 NEATHammer

 Timestamp is 6678d621 (Sun Jun 23 22:12:49 2024)

 Preferred load address is 10000000

 Start         Length     Name                   Class
 0001:00000000 0001fe50H .text$di                CODE
 0001:0001fe50 00074f80H .text$mn                CODE
 0001:00094dd0 0000e7f0H .text$x                 CODE
 0001:000a35c0 000018a4H .text$yd                CODE
 0002:00000000 000002b0H .idata$5                DATA
 0002:000002b0 00000004H .00cfg                  DATA
 0002:000002b4 00000004H .CRT$XCA                DATA
 0002:000002b8 00000004H .CRT$XCL                DATA
 0002:000002bc 0000023cH .CRT$XCU                DATA
 0002:000004f8 00000004H .CRT$XCZ                DATA
 0002:000004fc 00000004H .CRT$XIA                DATA
 0002:00000500 00000004H .CRT$XIC                DATA
 0002:00000504 00000004H .CRT$XIZ                DATA
 0002:00000508 00000004H .CRT$XLA                DATA
 0002:0000050c 00000004H .CRT$XLZ                DATA
 0002:00000510 00000004H .CRT$XPA                DATA
 0002:00000514 00000004H .CRT$XPZ                DATA
 0002:00000518 00000004H .CRT$XTA                DATA
 0002:0000051c 00000004H .CRT$XTZ                DATA
 0002:00000520 00000000H .gfids$y                DATA
 0002:00000520 00015d40H .rdata                  DATA
 0002:00016260 00000018H .rdata$T                DATA
 0002:00016278 00001838H .rdata$r                DATA
 0002:00017ab0 00000760H .rdata$sxdata           DATA
 0002:00018210 000003b4H .rdata$zzzdbg           DATA
 0002:000185c4 00000004H .rtc$IAA                DATA
 0002:000185c8 00000004H .rtc$IZZ                DATA
 0002:000185cc 00000004H .rtc$TAA                DATA
 0002:000185d0 00000004H .rtc$TZZ                DATA
 0002:000185d4 00000004H .tls                    DATA
 0002:000185d8 00000004H .tls$                   DATA
 0002:000185dc 00000004H .tls$ZZZ                DATA
 0002:000185e0 0000e4e0H .xdata$x                DATA
 0002:00026ac0 00000060H .edata                  DATA
 0002:00026b20 00000104H .idata$2                DATA
 0002:00026c24 00000014H .idata$3                DATA
 0002:00026c38 000002b0H .idata$4                DATA
 0002:00026ee8 0000164eH .idata$6                DATA
 0003:00000000 00006ce8H .data                   DATA
 0003:00006ce8 00001800H .data$r                 DATA
 0003:000084e8 00010a28H .bss                    DATA
 0004:00000000 00000060H .rsrc$01                DATA
 0004:00000060 00000180H .rsrc$02                DATA

  Address         Publics by Value              Rva+Base       Lib:Object

 0000:00000000       ___hybrid_auxiliary_iat    00000000     <absolute>
 0000:00000000       ___guard_longjmp_count     00000000     <absolute>
 0000:00000000       ___dynamic_value_reloc_table 00000000     <absolute>
 0000:00000000       ___guard_iat_count         00000000     <absolute>
 0000:00000000       ___guard_fids_count        00000000     <absolute>
 0000:00000000       ___guard_longjmp_table     00000000     <absolute>
 0000:00000000       ___hybrid_code_map_count   00000000     <absolute>
 0000:00000000       ___hybrid_code_map         00000000     <absolute>
 0000:00000000       ___volatile_metadata       00000000     <absolute>
 0000:00000000       ___guard_fids_table        00000000     <absolute>
 0000:00000000       ___guard_iat_table         00000000     <absolute>
 0000:00000000       ___enclave_config          00000000     <absolute>
 0000:0000002c       __tls_array                0000002c     <absolute>
 0000:00000100       ___guard_flags             00000100     <absolute>
 0000:000001d8       ___safe_se_handler_count   000001d8     <absolute>
 0000:00000000       ___ImageBase               10000000     <linker-defined>
 0001:0001fe50       ??1?$UnaryFilter@PAVUnitInterface@BWAPI@@V?$function@$$A6A_NPAVUnitInterface@BWAPI@@@Z@std@@@BWAPI@@QAE@XZ 10020e50 f i Base.obj
 0001:0001fe50       ??1?$_Func_class@_NHW4parse_event_t@detail@json_abi_v3_11_3@nlohmann@@AAV?$basic_json@Vmap@std@@Vvector@2@V?$basic_string@DU?$char_traits@D@std@@V?$allocator@D@2@@2@_N_J_KNVallocator@2@Uadl_serializer@json_abi_v3_11_3@nlohmann@@V?$vector@EV?$allocator@E@std@@@2@X@34@@std@@QAE@XZ 10020e50 f i db.obj
 0001:0001fe50       ??1?$_Func_class@NN@std@@QAE@XZ 10020e50 f i NEATCommander.obj
 0001:0001fe50       ??1?$function@$$A6ANN@Z@std@@QAE@XZ 10020e50 f i NEATCommander.obj
 0001:0001fe50       ??1?$function@$$A6A_NHW4parse_event_t@detail@json_abi_v3_11_3@nlohmann@@AAV?$basic_json@Vmap@std@@Vvector@2@V?$basic_string@DU?$char_traits@D@std@@V?$allocator@D@2@@2@_N_J_KNVallocator@2@Uadl_serializer@json_abi_v3_11_3@nlohmann@@V?$vector@EV?$allocator@E@std@@@2@X@34@@Z@std@@QAE@XZ 10020e50 f i db.obj
 0001:0001fe50       ??1?$function@$$A6ANABV?$vector@NV?$allocator@N@std@@@std@@@Z@std@@QAE@XZ 10020e50 f i NEATCommander.obj
 0001:0001fe50       ??1?$_Func_class@NABV?$vector@NV?$allocator@N@std@@@std@@@std@@QAE@XZ 10020e50 f i NEATCommander.obj
 0001:0001fe50       ??1?$_Func_class@_NPAVUnitInterface@BWAPI@@@std@@QAE@XZ 10020e50 f i Base.obj
 0001:0001feb0       ??4Unitset@BWAPI@@QAEAAV01@ABV01@@Z 10020eb0 f i Base.obj
 0001:0001ff80       ??1?$SetContainer@VUpgradeType@BWAPI@@U?$hash@H@std@@@BWAPI@@QAE@XZ 10020f80 f i BWAPILIB:UnitType.obj
 0001:0001ff80       ??1?$SetContainer@VWeaponType@BWAPI@@U?$hash@H@std@@@BWAPI@@QAE@XZ 10020f80 f i BWAPILIB:WeaponType.obj
 0001:0001ff80       ??1Bulletset@BWAPI@@QAE@XZ 10020f80 f i InformationManager.obj
 0001:0001ff80       ??1?$SetContainer@VUnitType@BWAPI@@U?$hash@H@std@@@BWAPI@@QAE@XZ 10020f80 f i BWAPILIB:UnitType.obj
 0001:0001ff80       ??1?$SetContainer@VTechType@BWAPI@@U?$hash@H@std@@@BWAPI@@QAE@XZ 10020f80 f i BWAPILIB:UnitType.obj
 0001:0001ff80       ??1Unitset@BWAPI@@QAE@XZ   10020f80 f i Base.obj
 0001:0001ff90       ??1?$_Hash@V?$_Uset_traits@VTechType@BWAPI@@V?$_Uhash_compare@VTechType@BWAPI@@U?$hash@H@std@@U?$equal_to@VTechType@BWAPI@@@4@@std@@V?$allocator@VTechType@BWAPI@@@4@$0A@@std@@@std@@QAE@XZ 10020f90 f i BWAPILIB:UnitType.obj
 0001:0001ff90       ??1?$_Hash@V?$_Uset_traits@VUnitType@BWAPI@@V?$_Uhash_compare@VUnitType@BWAPI@@U?$hash@H@std@@U?$equal_to@VUnitType@BWAPI@@@4@@std@@V?$allocator@VUnitType@BWAPI@@@4@$0A@@std@@@std@@QAE@XZ 10020f90 f i BWAPILIB:UnitType.obj
 0001:0001ff90       ??1?$_Hash@V?$_Uset_traits@PAVBulletInterface@BWAPI@@V?$_Uhash_compare@PAVBulletInterface@BWAPI@@U?$hash@PAX@std@@U?$equal_to@PAVBulletInterface@BWAPI@@@4@@std@@V?$allocator@PAVBulletInterface@BWAPI@@@4@$0A@@std@@@std@@QAE@XZ 10020f90 f i InformationManager.obj
 0001:0001ff90       ??1?$_Hash@V?$_Uset_traits@VWeaponType@BWAPI@@V?$_Uhash_compare@VWeaponType@BWAPI@@U?$hash@H@std@@U?$equal_to@VWeaponType@BWAPI@@@4@@std@@V?$allocator@VWeaponType@BWAPI@@@4@$0A@@std@@@std@@QAE@XZ 10020f90 f i BWAPILIB:WeaponType.obj
 0001:0001ff90       ??1?$_Hash@V?$_Uset_traits@VUpgradeType@BWAPI@@V?$_Uhash_compare@VUpgradeType@BWAPI@@U?$hash@H@std@@U?$equal_to@VUpgradeType@BWAPI@@@4@@std@@V?$allocator@VUpgradeType@BWAPI@@@4@$0A@@std@@@std@@QAE@XZ 10020f90 f i BWAPILIB:UnitType.obj
 0001:0001ff90       ??1?$_Hash@V?$_Uset_traits@PAVUnitInterface@BWAPI@@V?$_Uhash_compare@PAVUnitInterface@BWAPI@@U?$hash@PAX@std@@U?$equal_to@PAVUnitInterface@BWAPI@@@4@@std@@V?$allocator@PAVUnitInterface@BWAPI@@@4@$0A@@std@@@std@@QAE@XZ 10020f90 f i Base.obj
 0001:00020030       ?Root@The@UAlbertaBot@@SAAAV12@XZ 10021030 f i Base.obj
 0001:000200c0       ??1Grid@UAlbertaBot@@QAE@XZ 100210c0 f i Base.obj
 0001:000200c0       ??1GridRoom@UAlbertaBot@@QAE@XZ 100210c0 f i Base.obj
 0001:000200c0       ??1GridInset@UAlbertaBot@@QAE@XZ 100210c0 f i Base.obj
 0001:000200c0       ??1GroundAttacks@UAlbertaBot@@QAE@XZ 100210c0 f i Base.obj
 0001:000200c0       ??1AirAttacks@UAlbertaBot@@QAE@XZ 100210c0 f i Base.obj
 0001:000200c0       ??1GridTileRoom@UAlbertaBot@@QAE@XZ 100210c0 f i Base.obj
 0001:000200d0       ??1GridZone@UAlbertaBot@@QAE@XZ 100210d0 f i Base.obj
 0001:00020130       ??1MapPartitions@UAlbertaBot@@QAE@XZ 10021130 f i Base.obj
 0001:00020150       ??1MapTools@UAlbertaBot@@QAE@XZ 10021150 f i Base.obj
 0001:000201e0       ??1CombatSimulation@UAlbertaBot@@QAE@XZ 100211e0 f i Base.obj
 0001:00020200       ??1?$_Tree@V?$_Tmap_traits@PAVUnitInterface@BWAPI@@VMicroState@UAlbertaBot@@U?$less@PAVUnitInterface@BWAPI@@@std@@V?$allocator@U?$pair@QAVUnitInterface@BWAPI@@VMicroState@UAlbertaBot@@@std@@@6@$0A@@std@@@std@@QAE@XZ 10021200 f i Base.obj
 0001:00020200       ??1Micro@UAlbertaBot@@QAE@XZ 10021200 f i Base.obj
 0001:000202a0       ??1BuildingPlacer@UAlbertaBot@@QAE@XZ 100212a0 f i Base.obj
 0001:000202c0       ??1OpsBoss@UAlbertaBot@@QAE@XZ 100212c0 f i Base.obj
 0001:000202e0       ?_Tidy@?$vector@HV?$allocator@H@std@@@std@@AAEXXZ 100212e0 f i GameRecord.obj
 0001:000202e0       ??1?$vector@PAVBase@UAlbertaBot@@V?$allocator@PAVBase@UAlbertaBot@@@std@@@std@@QAE@XZ 100212e0 f i Bases.obj
 0001:000202e0       ??1?$vector@V?$_List_unchecked_const_iterator@V?$_List_val@U?$_List_simple_types@PAVUnitInterface@BWAPI@@@std@@@std@@U_Iterator_base0@2@@std@@V?$allocator@V?$_List_unchecked_const_iterator@V?$_List_val@U?$_List_simple_types@PAVUnitInterface@BWAPI@@@std@@@std@@U_Iterator_base0@2@@std@@@2@@std@@QAE@XZ 100212e0 f i Base.obj
 0001:000202e0       ??1?$vector@V?$_List_unchecked_const_iterator@V?$_List_val@U?$_List_simple_types@VOrder@BWAPI@@@std@@@std@@U_Iterator_base0@2@@std@@V?$allocator@V?$_List_unchecked_const_iterator@V?$_List_val@U?$_List_simple_types@VOrder@BWAPI@@@std@@@std@@U_Iterator_base0@2@@std@@@2@@std@@QAE@XZ 100212e0 f i BWAPILIB:Order.obj
 0001:000202e0       ??1?$vector@V?$_List_unchecked_const_iterator@V?$_List_val@U?$_List_simple_types@VWeaponType@BWAPI@@@std@@@std@@U_Iterator_base0@2@@std@@V?$allocator@V?$_List_unchecked_const_iterator@V?$_List_val@U?$_List_simple_types@VWeaponType@BWAPI@@@std@@@std@@U_Iterator_base0@2@@std@@@2@@std@@QAE@XZ 100212e0 f i BWAPILIB:WeaponType.obj
 0001:000202e0       ??1?$vector@V?$_List_unchecked_const_iterator@V?$_List_val@U?$_List_simple_types@VRace@BWAPI@@@std@@@std@@U_Iterator_base0@2@@std@@V?$allocator@V?$_List_unchecked_const_iterator@V?$_List_val@U?$_List_simple_types@VRace@BWAPI@@@std@@@std@@U_Iterator_base0@2@@std@@@2@@std@@QAE@XZ 100212e0 f i BWAPILIB:Race.obj
 0001:000202e0       ??1?$vector@VUnitType@BWAPI@@V?$allocator@VUnitType@BWAPI@@@std@@@std@@QAE@XZ 100212e0 f i BuildingManager.obj
 0001:000202e0       ??1?$vector@V?$_List_unchecked_iterator@V?$_List_val@U?$_List_simple_types@U?$pair@$$CBHN@std@@@std@@@std@@@std@@V?$allocator@V?$_List_unchecked_iterator@V?$_List_val@U?$_List_simple_types@U?$pair@$$CBHN@std@@@std@@@std@@@std@@@2@@std@@QAE@XZ 100212e0 f i NEATCommander.obj
 0001:000202e0       ??1?$vector@V?$_List_unchecked_const_iterator@V?$_List_val@U?$_List_simple_types@VTechType@BWAPI@@@std@@@std@@U_Iterator_base0@2@@std@@V?$allocator@V?$_List_unchecked_const_iterator@V?$_List_val@U?$_List_simple_types@VTechType@BWAPI@@@std@@@std@@U_Iterator_base0@2@@std@@@2@@std@@QAE@XZ 100212e0 f i BWAPILIB:UnitType.obj
 0001:000202e0       ??1?$vector@V?$_List_unchecked_const_iterator@V?$_List_val@U?$_List_simple_types@PAVBulletInterface@BWAPI@@@std@@@std@@U_Iterator_base0@2@@std@@V?$allocator@V?$_List_unchecked_const_iterator@V?$_List_val@U?$_List_simple_types@PAVBulletInterface@BWAPI@@@std@@@std@@U_Iterator_base0@2@@std@@@2@@std@@QAE@XZ 100212e0 f i InformationManager.obj
 0001:000202e0       ?_Tidy@?$vector@IV?$allocator@I@std@@@std@@AAEXXZ 100212e0 f i Base.obj
 0001:000202e0       ??1?$vector@PAV?$basic_json@Vmap@std@@Vvector@2@V?$basic_string@DU?$char_traits@D@std@@V?$allocator@D@2@@2@_N_J_KNVallocator@2@Uadl_serializer@json_abi_v3_11_3@nlohmann@@V?$vector@EV?$allocator@E@std@@@2@X@json_abi_v3_11_3@nlohmann@@V?$allocator@PAV?$basic_json@Vmap@std@@Vvector@2@V?$basic_string@DU?$char_traits@D@std@@V?$allocator@D@2@@2@_N_J_KNVallocator@2@Uadl_serializer@json_abi_v3_11_3@nlohmann@@V?$vector@EV?$allocator@E@std@@@2@X@json_abi_v3_11_3@nlohmann@@@std@@@std@@QAE@XZ 100212e0 f i db.obj
 0001:000202e0       ?_Tidy@?$vector@PAVUnitInterface@BWAPI@@V?$allocator@PAVUnitInterface@BWAPI@@@std@@@std@@AAEXXZ 100212e0 f i CombatCommander.obj
 0001:000202e0       ??1?$vector@V?$_List_unchecked_const_iterator@V?$_List_val@U?$_List_simple_types@VBulletType@BWAPI@@@std@@@std@@U_Iterator_base0@2@@std@@V?$allocator@V?$_List_unchecked_const_iterator@V?$_List_val@U?$_List_simple_types@VBulletType@BWAPI@@@std@@@std@@U_Iterator_base0@2@@std@@@2@@std@@QAE@XZ 100212e0 f i BWAPILIB:BulletType.obj
 0001:000202e0       ??1?$vector@V?$reference_wrapper@VBuilding@UAlbertaBot@@@std@@V?$allocator@V?$reference_wrapper@VBuilding@UAlbertaBot@@@std@@@2@@std@@QAE@XZ 100212e0 f i BuildingManager.obj
 0001:000202e0       ??1SkillKit@UAlbertaBot@@QAE@XZ 100212e0 f i Base.obj
 0001:000202e0       ??1?$vector@V?$_List_unchecked_const_iterator@V?$_List_val@U?$_List_simple_types@VUpgradeType@BWAPI@@@std@@@std@@U_Iterator_base0@2@@std@@V?$allocator@V?$_List_unchecked_const_iterator@V?$_List_val@U?$_List_simple_types@VUpgradeType@BWAPI@@@std@@@std@@U_Iterator_base0@2@@std@@@2@@std@@QAE@XZ 100212e0 f i BWAPILIB:UnitType.obj
 0001:000202e0       ??1?$vector@V?$_List_unchecked_const_iterator@V?$_List_val@U?$_List_simple_types@VUnitType@BWAPI@@@std@@@std@@U_Iterator_base0@2@@std@@V?$allocator@V?$_List_unchecked_const_iterator@V?$_List_val@U?$_List_simple_types@VUnitType@BWAPI@@@std@@@std@@U_Iterator_base0@2@@std@@@2@@std@@QAE@XZ 100212e0 f i BWAPILIB:UnitType.obj
 0001:00020340       ??1My@UAlbertaBot@@QAE@XZ  10021340 f i Base.obj
 0001:00020380       ??1Your@UAlbertaBot@@QAE@XZ 10021380 f i Base.obj
 0001:000203d0       ??1PlayerSnapshot@UAlbertaBot@@QAE@XZ 100213d0 f i Base.obj
 0001:000203f0       ??1?$map@VUnitType@BWAPI@@HU?$less@VUnitType@BWAPI@@@std@@V?$allocator@U?$pair@$$CBVUnitType@BWAPI@@H@std@@@4@@std@@QAE@XZ 100213f0 f i Base.obj
 0001:000203f0       ??1?$map@PAVUnitInterface@BWAPI@@_NU?$less@PAVUnitInterface@BWAPI@@@std@@V?$allocator@U?$pair@QAVUnitInterface@BWAPI@@_N@std@@@4@@std@@QAE@XZ 100213f0 f i Squad.obj
 0001:00020410       ?findFront@Base@UAlbertaBot@@ABE?AV?$Point@H$0CA@@BWAPI@@XZ 10021410 f   Base.obj
 0001:00020610       ??0Base@UAlbertaBot@@QAE@V?$Point@H$0CA@@BWAPI@@ABVUnitset@3@@Z 10021610 f   Base.obj
 0001:00020c90       ??1GridDistances@UAlbertaBot@@QAE@XZ 10021c90 f i Base.obj
 0001:00020cb0       ?isCompleted@Base@UAlbertaBot@@QBE_NXZ 10021cb0 f   Base.obj
 0001:00020e60       ?setInferredEnemyBase@Base@UAlbertaBot@@QAEXXZ 10021e60 f   Base.obj
 0001:00020ea0       ?getLastKnownMinerals@Base@UAlbertaBot@@QBEHXZ 10021ea0 f   Base.obj
 0001:00020fb0       ?getLastKnownGas@Base@UAlbertaBot@@QBEHXZ 10021fb0 f   Base.obj
 0001:000210c0       ?getPylon@Base@UAlbertaBot@@QBEPAVUnitInterface@BWAPI@@XZ 100220c0 f   Base.obj
 0001:000211d0       ?isExplored@Base@UAlbertaBot@@QBE_NXZ 100221d0 f   Base.obj
 0001:00021260       ?isVisible@Base@UAlbertaBot@@QBE_NXZ 10022260 f   Base.obj
 0001:000212f0       ??1?$vector@V?$vector@_NV?$allocator@_N@std@@@std@@V?$allocator@V?$vector@_NV?$allocator@_N@std@@@std@@@2@@std@@QAE@XZ 100222f0 f i Base.obj
 0001:00021300       ??1?$vector@NV?$allocator@N@std@@@std@@QAE@XZ 10022300 f i NEATCommander.obj
 0001:00021300       ??1?$vector@V?$Point@H$00@BWAPI@@V?$allocator@V?$Point@H$00@BWAPI@@@std@@@std@@QAE@XZ 10022300 f i MicroTransports.obj
 0001:00021300       ??1?$vector@V?$Point@H$0CA@@BWAPI@@V?$allocator@V?$Point@H$0CA@@BWAPI@@@std@@@std@@QAE@XZ 10022300 f i Base.obj
 0001:00021310       ??1?$list@VWeaponType@BWAPI@@V?$allocator@VWeaponType@BWAPI@@@std@@@std@@QAE@XZ 10022310 f i BWAPILIB:WeaponType.obj
 0001:00021310       ??1?$list@VBulletType@BWAPI@@V?$allocator@VBulletType@BWAPI@@@std@@@std@@QAE@XZ 10022310 f i BWAPILIB:BulletType.obj
 0001:00021310       ??1?$list@VTechType@BWAPI@@V?$allocator@VTechType@BWAPI@@@std@@@std@@QAE@XZ 10022310 f i BWAPILIB:UnitType.obj
 0001:00021310       ??1?$list@VRace@BWAPI@@V?$allocator@VRace@BWAPI@@@std@@@std@@QAE@XZ 10022310 f i BWAPILIB:Race.obj
 0001:00021310       ??1?$list@VUnitType@BWAPI@@V?$allocator@VUnitType@BWAPI@@@std@@@std@@QAE@XZ 10022310 f i BWAPILIB:UnitType.obj
 0001:00021310       ??1?$list@VUpgradeType@BWAPI@@V?$allocator@VUpgradeType@BWAPI@@@std@@@std@@QAE@XZ 10022310 f i BWAPILIB:UnitType.obj
 0001:00021310       ??1?$list@PAVBulletInterface@BWAPI@@V?$allocator@PAVBulletInterface@BWAPI@@@std@@@std@@QAE@XZ 10022310 f i InformationManager.obj
 0001:00021310       ??1?$list@PAVUnitInterface@BWAPI@@V?$allocator@PAVUnitInterface@BWAPI@@@std@@@std@@QAE@XZ 10022310 f i Base.obj
 0001:00021310       ??1?$list@VOrder@BWAPI@@V?$allocator@VOrder@BWAPI@@@std@@@std@@QAE@XZ 10022310 f i BWAPILIB:Order.obj
 0001:00021360       ?clear@?$_Hash@V?$_Uset_traits@PAVBulletInterface@BWAPI@@V?$_Uhash_compare@PAVBulletInterface@BWAPI@@U?$hash@PAX@std@@U?$equal_to@PAVBulletInterface@BWAPI@@@4@@std@@V?$allocator@PAVBulletInterface@BWAPI@@@4@$0A@@std@@@std@@QAEXXZ 10022360 f i InformationManager.obj
 0001:00021360       ?clear@?$_Hash@V?$_Uset_traits@PAVUnitInterface@BWAPI@@V?$_Uhash_compare@PAVUnitInterface@BWAPI@@U?$hash@PAX@std@@U?$equal_to@PAVUnitInterface@BWAPI@@@4@@std@@V?$allocator@PAVUnitInterface@BWAPI@@@4@$0A@@std@@@std@@QAEXXZ 10022360 f i Base.obj
 0001:000213d0       ?erase@?$_Hash@V?$_Uset_traits@PAVUnitInterface@BWAPI@@V?$_Uhash_compare@PAVUnitInterface@BWAPI@@U?$hash@PAX@std@@U?$equal_to@PAVUnitInterface@BWAPI@@@4@@std@@V?$allocator@PAVUnitInterface@BWAPI@@@4@$0A@@std@@@std@@QAEIABQAVUnitInterface@BWAPI@@@Z 100223d0 f i Base.obj
 0001:000214f0       ??8?$CompareFilter@PAVUnitInterface@BWAPI@@VUnitType@2@P6A?AV32@PAV12@@Z@BWAPI@@QBE?AV?$UnaryFilter@PAVUnitInterface@BWAPI@@V?$function@$$A6A_NPAVUnitInterface@BWAPI@@@Z@std@@@1@ABVUnitType@1@@Z 100224f0 f i Base.obj
 0001:00021520       ?getName@?$Type@VUnitType@BWAPI@@$0OJ@@BWAPI@@QBEABV?$basic_string@DU?$char_traits@D@std@@V?$allocator@D@2@@std@@XZ 10022520 f i Base.obj
 0001:00021540       ?c_str@?$basic_string@DU?$char_traits@D@std@@V?$allocator@D@2@@std@@QBEPBDXZ 10022540 f i Base.obj
 0001:00021550       ?_Tidy_deallocate@?$basic_string@DU?$char_traits@D@std@@V?$allocator@D@2@@std@@QAEXXZ 10022550 f i Base.obj
 0001:00021550       ??1?$basic_string@DU?$char_traits@D@std@@V?$allocator@D@2@@std@@QAE@XZ 10022550 f i Base.obj
 0001:000215a0       ??0?$basic_string@DU?$char_traits@D@std@@V?$allocator@D@2@@std@@QAE@QBD@Z 100225a0 f i Base.obj
 0001:000215e0       ?_Tidy@?$vector@VUnitCluster@UAlbertaBot@@V?$allocator@VUnitCluster@UAlbertaBot@@@std@@@std@@AAEXXZ 100225e0 f i Base.obj
 0001:00021660       ?_Tidy@?$vector@V?$vector@GV?$allocator@G@std@@@std@@V?$allocator@V?$vector@GV?$allocator@G@std@@@std@@@2@@std@@AAEXXZ 10022660 f i Base.obj
 0001:00021660       ?_Tidy@?$vector@V?$vector@FV?$allocator@F@std@@@std@@V?$allocator@V?$vector@FV?$allocator@F@std@@@std@@@2@@std@@AAEXXZ 10022660 f i Base.obj
 0001:000216e0       ??1?$_Tree_comp_alloc@V?$_Tmap_traits@PAVUnitInterface@BWAPI@@_NU?$less@PAVUnitInterface@BWAPI@@@std@@V?$allocator@U?$pair@QAVUnitInterface@BWAPI@@_N@std@@@4@$0A@@std@@@std@@QAE@XZ 100226e0 f i Squad.obj
 0001:000216e0       ??1?$_Tree_comp_alloc@V?$_Tmap_traits@VUnitType@BWAPI@@HU?$less@VUnitType@BWAPI@@@std@@V?$allocator@U?$pair@$$CBVUnitType@BWAPI@@H@std@@@4@$0A@@std@@@std@@QAE@XZ 100226e0 f i Base.obj
 0001:000216f0       ?_Tidy@?$_Tree@V?$_Tmap_traits@VUnitType@BWAPI@@HU?$less@VUnitType@BWAPI@@@std@@V?$allocator@U?$pair@$$CBVUnitType@BWAPI@@H@std@@@4@$0A@@std@@@std@@IAEXXZ 100226f0 f i Base.obj
 0001:000216f0       ?_Tidy@?$_Tree@V?$_Tmap_traits@PAVUnitInterface@BWAPI@@_NU?$less@PAVUnitInterface@BWAPI@@@std@@V?$allocator@U?$pair@QAVUnitInterface@BWAPI@@_N@std@@@4@$0A@@std@@@std@@IAEXXZ 100226f0 f i Squad.obj
 0001:00021700       ?_Tidy@?$vector@V?$vector@_NV?$allocator@_N@std@@@std@@V?$allocator@V?$vector@_NV?$allocator@_N@std@@@std@@@2@@std@@AAEXXZ 10022700 f i Base.obj
 0001:00021770       ?_Tidy@?$vector@V?$Point@H$0CA@@BWAPI@@V?$allocator@V?$Point@H$0CA@@BWAPI@@@std@@@std@@AAEXXZ 10022770 f i Base.obj
 0001:00021770       ?_Tidy@?$vector@V?$Point@H$00@BWAPI@@V?$allocator@V?$Point@H$00@BWAPI@@@std@@@std@@AAEXXZ 10022770 f i MicroTransports.obj
 0001:00021770       ??1?$vector@V?$Point@H$07@BWAPI@@V?$allocator@V?$Point@H$07@BWAPI@@@std@@@std@@QAE@XZ 10022770 f i GridInset.obj
 0001:00021770       ??1?$vector@V?$array@H$01@std@@V?$allocator@V?$array@H$01@std@@@2@@std@@QAE@XZ 10022770 f i NEATCommander.obj
 0001:00021770       ?_Tidy@?$vector@NV?$allocator@N@std@@@std@@AAEXXZ 10022770 f i NEATCommander.obj
 0001:00021770       ??1?$vector@U?$pair@HPAVBase@UAlbertaBot@@@std@@V?$allocator@U?$pair@HPAVBase@UAlbertaBot@@@std@@@2@@std@@QAE@XZ 10022770 f i CombatCommander.obj
 0001:000217d0       ?_Init@?$_Hash@V?$_Uset_traits@PAVUnitInterface@BWAPI@@V?$_Uhash_compare@PAVUnitInterface@BWAPI@@U?$hash@PAX@std@@U?$equal_to@PAVUnitInterface@BWAPI@@@4@@std@@V?$allocator@PAVUnitInterface@BWAPI@@@4@$0A@@std@@@std@@IAEXI@Z 100227d0 f i Base.obj
 0001:000217d0       ?_Init@?$_Hash@V?$_Uset_traits@PAVBulletInterface@BWAPI@@V?$_Uhash_compare@PAVBulletInterface@BWAPI@@U?$hash@PAX@std@@U?$equal_to@PAVBulletInterface@BWAPI@@@4@@std@@V?$allocator@PAVBulletInterface@BWAPI@@@4@$0A@@std@@@std@@IAEXI@Z 100227d0 f i InformationManager.obj
 0001:000217d0       ?_Init@?$_Hash@V?$_Umap_traits@HNV?$_Uhash_compare@HU?$hash@H@std@@U?$equal_to@H@2@@std@@V?$allocator@U?$pair@$$CBHN@std@@@2@$0A@@std@@@std@@IAEXI@Z 100227d0 f i NEATCommander.obj
 0001:00021830       ?assign@?$basic_string@DU?$char_traits@D@std@@V?$allocator@D@2@@std@@QAEAAV12@QBD@Z 10022830 f i Base.obj
 0001:00021860       ?assign@?$basic_string@DU?$char_traits@D@std@@V?$allocator@D@2@@std@@QAEAAV12@QBDI@Z 10022860 f i Base.obj
 0001:00021990       @_guard_check_icall_nop@4  10022990 f i MSVCRT:guard_support.obj
 0001:00021990       ?_Orphan_all@?$_Vector_alloc@U?$_Vec_base_types@PAVSkill@UAlbertaBot@@V?$allocator@PAVSkill@UAlbertaBot@@@std@@@std@@@std@@QAEXXZ 10022990 f i Base.obj
 0001:00021990       ?onStart@AIModule@BWAPI@@UAEXXZ 10022990 f i BWAPILIB:AIModule.obj
 0001:00021990       ??1?$GenericValue@U?$UTF8@D@rapidjson@@V?$MemoryPoolAllocator@VCrtAllocator@rapidjson@@@2@@rapidjson@@QAE@XZ 10022990 f i JSONTools.obj
 0001:00021990       ?onFrame@AIModule@BWAPI@@UAEXXZ 10022990 f i BWAPILIB:AIModule.obj
 0001:000219a0       ?_Destroy@?$vector@VUnitCluster@UAlbertaBot@@V?$allocator@VUnitCluster@UAlbertaBot@@@std@@@std@@AAEXPAVUnitCluster@UAlbertaBot@@0@Z 100229a0 f i Base.obj
 0001:000219c0       ?deallocate@?$allocator@VUnitCluster@UAlbertaBot@@@std@@QAEXQAVUnitCluster@UAlbertaBot@@I@Z 100229c0 f i Base.obj
 0001:00021a00       ??B?$_Vb_reference@U?$_Wrap_alloc@V?$allocator@I@std@@@std@@@std@@QBE_NXZ 10022a00 f i Base.obj
 0001:00021a20       ?assign@?$vector@V?$_List_unchecked_const_iterator@V?$_List_val@U?$_List_simple_types@PAVBulletInterface@BWAPI@@@std@@@std@@U_Iterator_base0@2@@std@@V?$allocator@V?$_List_unchecked_const_iterator@V?$_List_val@U?$_List_simple_types@PAVBulletInterface@BWAPI@@@std@@@std@@U_Iterator_base0@2@@std@@@2@@std@@QAEXIABV?$_List_unchecked_const_iterator@V?$_List_val@U?$_List_simple_types@PAVBulletInterface@BWAPI@@@std@@@std@@U_Iterator_base0@2@@2@@Z 10022a20 f i InformationManager.obj
 0001:00021a20       ?assign@?$vector@V?$_List_unchecked_iterator@V?$_List_val@U?$_List_simple_types@U?$pair@$$CBHN@std@@@std@@@std@@@std@@V?$allocator@V?$_List_unchecked_iterator@V?$_List_val@U?$_List_simple_types@U?$pair@$$CBHN@std@@@std@@@std@@@std@@@2@@std@@QAEXIABV?$_List_unchecked_iterator@V?$_List_val@U?$_List_simple_types@U?$pair@$$CBHN@std@@@std@@@std@@@2@@Z 10022a20 f i NEATCommander.obj
 0001:00021a20       ?assign@?$vector@V?$_List_unchecked_const_iterator@V?$_List_val@U?$_List_simple_types@PAVUnitInterface@BWAPI@@@std@@@std@@U_Iterator_base0@2@@std@@V?$allocator@V?$_List_unchecked_const_iterator@V?$_List_val@U?$_List_simple_types@PAVUnitInterface@BWAPI@@@std@@@std@@U_Iterator_base0@2@@std@@@2@@std@@QAEXIABV?$_List_unchecked_const_iterator@V?$_List_val@U?$_List_simple_types@PAVUnitInterface@BWAPI@@@std@@@std@@U_Iterator_base0@2@@2@@Z 10022a20 f i Base.obj
 0001:00021b90       ?erase@?$_Hash@V?$_Uset_traits@PAVBulletInterface@BWAPI@@V?$_Uhash_compare@PAVBulletInterface@BWAPI@@U?$hash@PAX@std@@U?$equal_to@PAVBulletInterface@BWAPI@@@4@@std@@V?$allocator@PAVBulletInterface@BWAPI@@@4@$0A@@std@@@std@@QAE?AV?$_List_const_iterator@V?$_List_val@U?$_List_simple_types@PAVBulletInterface@BWAPI@@@std@@@std@@@2@V32@@Z 10022b90 f i InformationManager.obj
 0001:00021b90       ?erase@?$_Hash@V?$_Uset_traits@PAVUnitInterface@BWAPI@@V?$_Uhash_compare@PAVUnitInterface@BWAPI@@U?$hash@PAX@std@@U?$equal_to@PAVUnitInterface@BWAPI@@@4@@std@@V?$allocator@PAVUnitInterface@BWAPI@@@4@$0A@@std@@@std@@QAE?AV?$_List_const_iterator@V?$_List_val@U?$_List_simple_types@PAVUnitInterface@BWAPI@@@std@@@std@@@2@V32@@Z 10022b90 f i Base.obj
 0001:00021c50       ?_Make_iter@?$_Hash@V?$_Umap_traits@HNV?$_Uhash_compare@HU?$hash@H@std@@U?$equal_to@H@2@@std@@V?$allocator@U?$pair@$$CBHN@std@@@2@$0A@@std@@@std@@QBE?AV?$_List_iterator@V?$_List_val@U?$_List_simple_types@U?$pair@$$CBHN@std@@@std@@@std@@@2@V?$_List_unchecked_const_iterator@V?$_List_val@U?$_List_simple_types@U?$pair@$$CBHN@std@@@std@@@std@@U_Iterator_base0@2@@2@@Z 10022c50 f i NEATCommander.obj
 0001:00021c50       ?_Make_iter@?$_Hash@V?$_Uset_traits@PAVBulletInterface@BWAPI@@V?$_Uhash_compare@PAVBulletInterface@BWAPI@@U?$hash@PAX@std@@U?$equal_to@PAVBulletInterface@BWAPI@@@4@@std@@V?$allocator@PAVBulletInterface@BWAPI@@@4@$0A@@std@@@std@@QBE?AV?$_List_const_iterator@V?$_List_val@U?$_List_simple_types@PAVBulletInterface@BWAPI@@@std@@@std@@@2@V?$_List_unchecked_const_iterator@V?$_List_val@U?$_List_simple_types@PAVBulletInterface@BWAPI@@@std@@@std@@U_Iterator_base0@2@@2@@Z 10022c50 f i InformationManager.obj
 0001:00021c50       ?_Make_iter@?$_Hash@V?$_Uset_traits@PAVUnitInterface@BWAPI@@V?$_Uhash_compare@PAVUnitInterface@BWAPI@@U?$hash@PAX@std@@U?$equal_to@PAVUnitInterface@BWAPI@@@4@@std@@V?$allocator@PAVUnitInterface@BWAPI@@@4@$0A@@std@@@std@@QBE?AV?$_List_const_iterator@V?$_List_val@U?$_List_simple_types@PAVUnitInterface@BWAPI@@@std@@@std@@@2@V?$_List_unchecked_const_iterator@V?$_List_val@U?$_List_simple_types@PAVUnitInterface@BWAPI@@@std@@@std@@U_Iterator_base0@2@@2@@Z 10022c50 f i Base.obj
 0001:00021c60       ?clear@?$_Tree@V?$_Tmap_traits@PAVUnitInterface@BWAPI@@_NU?$less@PAVUnitInterface@BWAPI@@@std@@V?$allocator@U?$pair@QAVUnitInterface@BWAPI@@_N@std@@@4@$0A@@std@@@std@@QAEXXZ 10022c60 f i Squad.obj
 0001:00021c60       ?clear@?$_Tree@V?$_Tmap_traits@VUnitType@BWAPI@@HU?$less@VUnitType@BWAPI@@@std@@V?$allocator@U?$pair@$$CBVUnitType@BWAPI@@H@std@@@4@$0A@@std@@@std@@QAEXXZ 10022c60 f i Base.obj
 0001:00021cf0       ?_Xlength@?$vector@VPotentialBase@UAlbertaBot@@V?$allocator@VPotentialBase@UAlbertaBot@@@std@@@std@@CAXXZ 10022cf0 f i Bases.obj
 0001:00021cf0       ?_Xlength@?$vector@PAVUnitInterface@BWAPI@@V?$allocator@PAVUnitInterface@BWAPI@@@std@@@std@@CAXXZ 10022cf0 f i CombatCommander.obj
 0001:00021cf0       ?_Xlength@?$vector@VUnitset@BWAPI@@V?$allocator@VUnitset@BWAPI@@@std@@@std@@CAXXZ 10022cf0 f i Bases.obj
 0001:00021cf0       ?_Xlength@?$vector@V?$_List_unchecked_iterator@V?$_List_val@U?$_List_simple_types@U?$pair@$$CBHN@std@@@std@@@std@@@std@@V?$allocator@V?$_List_unchecked_iterator@V?$_List_val@U?$_List_simple_types@U?$pair@$$CBHN@std@@@std@@@std@@@std@@@2@@std@@CAXXZ 10022cf0 f i NEATCommander.obj
 0001:00021cf0       ?_Xlength@?$vector@UFAPUnit@FastAPproximation@UAlbertaBot@@V?$allocator@UFAPUnit@FastAPproximation@UAlbertaBot@@@std@@@std@@CAXXZ 10022cf0 f i FAP.obj
 0001:00021cf0       ?_Xlength@?$vector@VNodeEval@@V?$allocator@VNodeEval@@@std@@@std@@CAXXZ 10022cf0 f i NodeEval.obj
 0001:00021cf0       ?_Xlength@?$vector@V?$_List_unchecked_const_iterator@V?$_List_val@U?$_List_simple_types@VUpgradeType@BWAPI@@@std@@@std@@U_Iterator_base0@2@@std@@V?$allocator@V?$_List_unchecked_const_iterator@V?$_List_val@U?$_List_simple_types@VUpgradeType@BWAPI@@@std@@@std@@U_Iterator_base0@2@@std@@@2@@std@@CAXXZ 10022cf0 f i BWAPILIB:UnitType.obj
 0001:00021cf0       ?_Xlength@?$vector@UConnection@@V?$allocator@UConnection@@@std@@@std@@CAXXZ 10022cf0 f i NodeEval.obj
 0001:00021cf0       ?_Xlength@?$vector@V?$_List_unchecked_const_iterator@V?$_List_val@U?$_List_simple_types@VRace@BWAPI@@@std@@@std@@U_Iterator_base0@2@@std@@V?$allocator@V?$_List_unchecked_const_iterator@V?$_List_val@U?$_List_simple_types@VRace@BWAPI@@@std@@@std@@U_Iterator_base0@2@@std@@@2@@std@@CAXXZ 10022cf0 f i BWAPILIB:Race.obj
 0001:00021cf0       ?_Xlength@?$vector@HV?$allocator@H@std@@@std@@CAXXZ 10022cf0 f i GameRecord.obj
 0001:00021cf0       ?_Xlength@?$vector@V?$vector@VActionType@BOSS@@V?$allocator@VActionType@BOSS@@@std@@@std@@V?$allocator@V?$vector@VActionType@BOSS@@V?$allocator@VActionType@BOSS@@@std@@@std@@@2@@std@@CAXXZ 10022cf0 f i BOSS:ActionType.obj
 0001:00021cf0       ?_Xlength@?$vector@PAVZone@UAlbertaBot@@V?$allocator@PAVZone@UAlbertaBot@@@std@@@std@@CAXXZ 10022cf0 f i GridZone.obj
 0001:00021cf0       ?_Xlength@?$vector@V?$_List_unchecked_const_iterator@V?$_List_val@U?$_List_simple_types@VOrder@BWAPI@@@std@@@std@@U_Iterator_base0@2@@std@@V?$allocator@V?$_List_unchecked_const_iterator@V?$_List_val@U?$_List_simple_types@VOrder@BWAPI@@@std@@@std@@U_Iterator_base0@2@@std@@@2@@std@@CAXXZ 10022cf0 f i BWAPILIB:Order.obj
 0001:00021cf0       ?_Xlength@?$vector@GV?$allocator@G@std@@@std@@CAXXZ 10022cf0 f i MapPartitions.obj
 0001:00021cf0       ?_Xlength@?$vector@NV?$allocator@N@std@@@std@@CAXXZ 10022cf0 f i NEATCommander.obj
 0001:00021cf0       ?_Xlength@?$vector@V?$array@H$01@std@@V?$allocator@V?$array@H$01@std@@@2@@std@@CAXXZ 10022cf0 f i NEATCommander.obj
 0001:00021cf0       ?_Xlength@?$vector@V?$basic_string@DU?$char_traits@D@std@@V?$allocator@D@2@@std@@V?$allocator@V?$basic_string@DU?$char_traits@D@std@@V?$allocator@D@2@@std@@@2@@std@@CAXXZ 10022cf0 f i db.obj
 0001:00021cf0       ?_Xlength@?$vector@V?$Point@H$00@BWAPI@@V?$allocator@V?$Point@H$00@BWAPI@@@std@@@std@@CAXXZ 10022cf0 f i MicroTransports.obj
 0001:00021cf0       ?_Xlength@?$vector@V?$_List_unchecked_const_iterator@V?$_List_val@U?$_List_simple_types@VUnitType@BWAPI@@@std@@@std@@U_Iterator_base0@2@@std@@V?$allocator@V?$_List_unchecked_const_iterator@V?$_List_val@U?$_List_simple_types@VUnitType@BWAPI@@@std@@@std@@U_Iterator_base0@2@@std@@@2@@std@@CAXXZ 10022cf0 f i BWAPILIB:UnitType.obj
 0001:00021cf0       ?_Xlength@?$vector@VBuilding@UAlbertaBot@@V?$allocator@VBuilding@UAlbertaBot@@@std@@@std@@CAXXZ 10022cf0 f i BuildingManager.obj
 0001:00021cf0       ?_Xlength@?$vector@U?$pair@HPAVBase@UAlbertaBot@@@std@@V?$allocator@U?$pair@HPAVBase@UAlbertaBot@@@std@@@2@@std@@CAXXZ 10022cf0 f i CombatCommander.obj
 0001:00021cf0       ?_Xlength@?$vector@V?$_List_unchecked_const_iterator@V?$_List_val@U?$_List_simple_types@PAVUnitInterface@BWAPI@@@std@@@std@@U_Iterator_base0@2@@std@@V?$allocator@V?$_List_unchecked_const_iterator@V?$_List_val@U?$_List_simple_types@PAVUnitInterface@BWAPI@@@std@@@std@@U_Iterator_base0@2@@std@@@2@@std@@CAXXZ 10022cf0 f i Base.obj
 0001:00021cf0       ?_Xlength@?$vector@V?$reference_wrapper@VBuilding@UAlbertaBot@@@std@@V?$allocator@V?$reference_wrapper@VBuilding@UAlbertaBot@@@std@@@2@@std@@CAXXZ 10022cf0 f i BuildingManager.obj
 0001:00021cf0       ?_Xlength@?$vector@VUnitType@BWAPI@@V?$allocator@VUnitType@BWAPI@@@std@@@std@@CAXXZ 10022cf0 f i BuildingManager.obj
 0001:00021cf0       ?_Xlength@?$vector@V?$vector@_NV?$allocator@_N@std@@@std@@V?$allocator@V?$vector@_NV?$allocator@_N@std@@@std@@@2@@std@@CAXXZ 10022cf0 f i BuildingPlacer.obj
 0001:00021cf0       ?_Xlength@?$vector@V?$basic_json@Vmap@std@@Vvector@2@V?$basic_string@DU?$char_traits@D@std@@V?$allocator@D@2@@2@_N_J_KNVallocator@2@Uadl_serializer@json_abi_v3_11_3@nlohmann@@V?$vector@EV?$allocator@E@std@@@2@X@json_abi_v3_11_3@nlohmann@@V?$allocator@V?$basic_json@Vmap@std@@Vvector@2@V?$basic_string@DU?$char_traits@D@std@@V?$allocator@D@2@@2@_N_J_KNVallocator@2@Uadl_serializer@json_abi_v3_11_3@nlohmann@@V?$vector@EV?$allocator@E@std@@@2@X@json_abi_v3_11_3@nlohmann@@@std@@@std@@CAXXZ 10022cf0 f i db.obj
 0001:00021cf0       ?_Xlength@?$vector@V?$vector@GV?$allocator@G@std@@@std@@V?$allocator@V?$vector@GV?$allocator@G@std@@@std@@@2@@std@@CAXXZ 10022cf0 f i MapPartitions.obj
 0001:00021cf0       ?_Xlength@?$vector@VUnitCluster@UAlbertaBot@@V?$allocator@VUnitCluster@UAlbertaBot@@@std@@@std@@CAXXZ 10022cf0 f i OpsBoss.obj
 0001:00021cf0       ?_Xlength@?$vector@PAVBase@UAlbertaBot@@V?$allocator@PAVBase@UAlbertaBot@@@std@@@std@@CAXXZ 10022cf0 f i Bases.obj
 0001:00021cf0       ?_Xlength@?$vector@V?$vector@FV?$allocator@F@std@@@std@@V?$allocator@V?$vector@FV?$allocator@F@std@@@std@@@2@@std@@CAXXZ 10022cf0 f i Grid.obj
 0001:00021cf0       ?_Xlength@?$vector@V?$_List_unchecked_const_iterator@V?$_List_val@U?$_List_simple_types@VBulletType@BWAPI@@@std@@@std@@U_Iterator_base0@2@@std@@V?$allocator@V?$_List_unchecked_const_iterator@V?$_List_val@U?$_List_simple_types@VBulletType@BWAPI@@@std@@@std@@U_Iterator_base0@2@@std@@@2@@std@@CAXXZ 10022cf0 f i BWAPILIB:BulletType.obj
 0001:00021cf0       ?_Xlength@?$vector@V?$_List_unchecked_const_iterator@V?$_List_val@U?$_List_simple_types@PAVBulletInterface@BWAPI@@@std@@@std@@U_Iterator_base0@2@@std@@V?$allocator@V?$_List_unchecked_const_iterator@V?$_List_val@U?$_List_simple_types@PAVBulletInterface@BWAPI@@@std@@@std@@U_Iterator_base0@2@@std@@@2@@std@@CAXXZ 10022cf0 f i InformationManager.obj
 0001:00021cf0       ?_Xlength@?$vector@DV?$allocator@D@std@@@std@@CAXXZ 10022cf0 f i db.obj
 0001:00021cf0       ?_Xlength@?$vector@V?$_List_unchecked_const_iterator@V?$_List_val@U?$_List_simple_types@VWeaponType@BWAPI@@@std@@@std@@U_Iterator_base0@2@@std@@V?$allocator@V?$_List_unchecked_const_iterator@V?$_List_val@U?$_List_simple_types@VWeaponType@BWAPI@@@std@@@std@@U_Iterator_base0@2@@std@@@2@@std@@CAXXZ 10022cf0 f i BWAPILIB:WeaponType.obj
 0001:00021cf0       ?_Xlength@?$vector@PAV?$basic_json@Vmap@std@@Vvector@2@V?$basic_string@DU?$char_traits@D@std@@V?$allocator@D@2@@2@_N_J_KNVallocator@2@Uadl_serializer@json_abi_v3_11_3@nlohmann@@V?$vector@EV?$allocator@E@std@@@2@X@json_abi_v3_11_3@nlohmann@@V?$allocator@PAV?$basic_json@Vmap@std@@Vvector@2@V?$basic_string@DU?$char_traits@D@std@@V?$allocator@D@2@@2@_N_J_KNVallocator@2@Uadl_serializer@json_abi_v3_11_3@nlohmann@@V?$vector@EV?$allocator@E@std@@@2@X@json_abi_v3_11_3@nlohmann@@@std@@@std@@CAXXZ 10022cf0 f i db.obj
 0001:00021cf0       ?_Xlength@?$vector@FV?$allocator@F@std@@@std@@CAXXZ 10022cf0 f i Grid.obj
 0001:00021cf0       ?_Xlength@?$vector@V?$_List_unchecked_const_iterator@V?$_List_val@U?$_List_simple_types@VTechType@BWAPI@@@std@@@std@@U_Iterator_base0@2@@std@@V?$allocator@V?$_List_unchecked_const_iterator@V?$_List_val@U?$_List_simple_types@VTechType@BWAPI@@@std@@@std@@U_Iterator_base0@2@@std@@@2@@std@@CAXXZ 10022cf0 f i BWAPILIB:UnitType.obj
 0001:00021cf0       ?_Xlength@?$vector@V?$Point@H$07@BWAPI@@V?$allocator@V?$Point@H$07@BWAPI@@@std@@@std@@CAXXZ 10022cf0 f i GridInset.obj
 0001:00021cf0       ?_Xlength@?$vector@VGridCell@UAlbertaBot@@V?$allocator@VGridCell@UAlbertaBot@@@std@@@std@@CAXXZ 10022cf0 f i MapGrid.obj
 0001:00021cf0       ?_Xlength@?$vector@VActionType@BOSS@@V?$allocator@VActionType@BOSS@@@std@@@std@@CAXXZ 10022cf0 f i BOSS:ActionType.obj
 0001:00021cf0       ?_Xlength@?$vector@VActionTypeData@BOSS@@V?$allocator@VActionTypeData@BOSS@@@std@@@std@@CAXXZ 10022cf0 f i BOSS:ActionTypeData.obj
 0001:00021cf0       ?_Xlength@?$vector@IV?$allocator@I@std@@@std@@CAXXZ 10022cf0 f i BuildingPlacer.obj
 0001:00021cf0       ?_Xlength@?$vector@U?$pair@W4LurkerTactic@UAlbertaBot@@V?$basic_string@DU?$char_traits@D@std@@V?$allocator@D@2@@std@@@std@@V?$allocator@U?$pair@W4LurkerTactic@UAlbertaBot@@V?$basic_string@DU?$char_traits@D@std@@V?$allocator@D@2@@std@@@std@@@2@@std@@CAXXZ 10022cf0 f i CombatCommander.obj
 0001:00021cf0       ?_Xlength@?$vector@V?$Point@H$0CA@@BWAPI@@V?$allocator@V?$Point@H$0CA@@BWAPI@@@std@@@std@@CAXXZ 10022cf0 f i GridDistances.obj
 0001:00021cf0       ?_Xlength@?$vector@EV?$allocator@E@std@@@std@@CAXXZ 10022cf0 f i db.obj
 0001:00021cf0       ?_Xlength@?$vector@UUnitInfo@UAlbertaBot@@V?$allocator@UUnitInfo@UAlbertaBot@@@std@@@std@@CAXXZ 10022cf0 f i InformationManager.obj
 0001:00021cf0       ?_Xlength@?$vector@VMacroAct@UAlbertaBot@@V?$allocator@VMacroAct@UAlbertaBot@@@std@@@std@@CAXXZ 10022cf0 f i BuildOrder.obj
 0001:00021d00       ?_Reallocate_exactly@?$vector@V?$_List_unchecked_iterator@V?$_List_val@U?$_List_simple_types@U?$pair@$$CBHN@std@@@std@@@std@@@std@@V?$allocator@V?$_List_unchecked_iterator@V?$_List_val@U?$_List_simple_types@U?$pair@$$CBHN@std@@@std@@@std@@@std@@@2@@std@@AAEXI@Z 10022d00 f i NEATCommander.obj
 0001:00021d00       ?_Reallocate_exactly@?$vector@V?$_List_unchecked_const_iterator@V?$_List_val@U?$_List_simple_types@PAVUnitInterface@BWAPI@@@std@@@std@@U_Iterator_base0@2@@std@@V?$allocator@V?$_List_unchecked_const_iterator@V?$_List_val@U?$_List_simple_types@PAVUnitInterface@BWAPI@@@std@@@std@@U_Iterator_base0@2@@std@@@2@@std@@AAEXI@Z 10022d00 f i Base.obj
 0001:00021d00       ?_Reallocate_exactly@?$vector@V?$_List_unchecked_const_iterator@V?$_List_val@U?$_List_simple_types@PAVBulletInterface@BWAPI@@@std@@@std@@U_Iterator_base0@2@@std@@V?$allocator@V?$_List_unchecked_const_iterator@V?$_List_val@U?$_List_simple_types@PAVBulletInterface@BWAPI@@@std@@@std@@U_Iterator_base0@2@@std@@@2@@std@@AAEXI@Z 10022d00 f i InformationManager.obj
 0001:00021e00       ?_Extract@?$_Tree_val@U?$_Tree_simple_types@U?$pair@QAVUnitInterface@BWAPI@@VCasterState@UAlbertaBot@@@std@@@std@@@std@@QAEPAU?$_Tree_node@U?$pair@QAVUnitInterface@BWAPI@@VCasterState@UAlbertaBot@@@std@@PAX@2@V?$_Tree_const_iterator@V?$_Tree_val@U?$_Tree_simple_types@U?$pair@QAVUnitInterface@BWAPI@@VCasterState@UAlbertaBot@@@std@@@std@@@std@@@2@@Z 10022e00 f i MicroAirToAir.obj
 0001:00021e00       ?_Extract@?$_Tree_val@U?$_Tree_simple_types@U?$pair@QAVUnitInterface@BWAPI@@VMicroState@UAlbertaBot@@@std@@@std@@@std@@QAEPAU?$_Tree_node@U?$pair@QAVUnitInterface@BWAPI@@VMicroState@UAlbertaBot@@@std@@PAX@2@V?$_Tree_const_iterator@V?$_Tree_val@U?$_Tree_simple_types@U?$pair@QAVUnitInterface@BWAPI@@VMicroState@UAlbertaBot@@@std@@@std@@@std@@@2@@Z 10022e00 f i Base.obj
 0001:00021e00       ?_Extract@?$_Tree_val@U?$_Tree_simple_types@U?$pair@$$CBV?$basic_string@DU?$char_traits@D@std@@V?$allocator@D@2@@std@@VActionType@BOSS@@@std@@@std@@@std@@QAEPAU?$_Tree_node@U?$pair@$$CBV?$basic_string@DU?$char_traits@D@std@@V?$allocator@D@2@@std@@VActionType@BOSS@@@std@@PAX@2@V?$_Tree_const_iterator@V?$_Tree_val@U?$_Tree_simple_types@U?$pair@$$CBV?$basic_string@DU?$char_traits@D@std@@V?$allocator@D@2@@std@@VActionType@BOSS@@@std@@@std@@@std@@@2@@Z 10022e00 f i BOSS:ActionType.obj
 0001:00021e00       ?_Extract@?$_Tree_val@U?$_Tree_simple_types@U?$pair@QAVUnitInterface@BWAPI@@V?$Point@H$0CA@@2@@std@@@std@@@std@@QAEPAU?$_Tree_node@U?$pair@QAVUnitInterface@BWAPI@@V?$Point@H$0CA@@2@@std@@PAX@2@V?$_Tree_const_iterator@V?$_Tree_val@U?$_Tree_simple_types@U?$pair@QAVUnitInterface@BWAPI@@V?$Point@H$0CA@@2@@std@@@std@@@std@@@2@@Z 10022e00 f i MicroOverlords.obj
 0001:00021e00       ?_Extract@?$_Tree_val@U?$_Tree_simple_types@U?$pair@QAVUnitInterface@BWAPI@@VWorkerPost@WorkerData@UAlbertaBot@@@std@@@std@@@std@@QAEPAU?$_Tree_node@U?$pair@QAVUnitInterface@BWAPI@@VWorkerPost@WorkerData@UAlbertaBot@@@std@@PAX@2@V?$_Tree_const_iterator@V?$_Tree_val@U?$_Tree_simple_types@U?$pair@QAVUnitInterface@BWAPI@@VWorkerPost@WorkerData@UAlbertaBot@@@std@@@std@@@std@@@2@@Z 10022e00 f i WorkerData.obj
 0001:00021e00       ?_Extract@?$_Tree_val@U?$_Tree_simple_types@U?$pair@QAVPlayerInterface@BWAPI@@VUnitData@UAlbertaBot@@@std@@@std@@@std@@QAEPAU?$_Tree_node@U?$pair@QAVPlayerInterface@BWAPI@@VUnitData@UAlbertaBot@@@std@@PAX@2@V?$_Tree_const_iterator@V?$_Tree_val@U?$_Tree_simple_types@U?$pair@QAVPlayerInterface@BWAPI@@VUnitData@UAlbertaBot@@@std@@@std@@@std@@@2@@Z 10022e00 f i InformationManager.obj
 0001:00021e00       ?_Extract@?$_Tree_val@U?$_Tree_simple_types@U?$pair@QAVUnitInterface@BWAPI@@W4WorkerJob@WorkerData@UAlbertaBot@@@std@@@std@@@std@@QAEPAU?$_Tree_node@U?$pair@QAVUnitInterface@BWAPI@@W4WorkerJob@WorkerData@UAlbertaBot@@@std@@PAX@2@V?$_Tree_const_iterator@V?$_Tree_val@U?$_Tree_simple_types@U?$pair@QAVUnitInterface@BWAPI@@W4WorkerJob@WorkerData@UAlbertaBot@@@std@@@std@@@std@@@2@@Z 10022e00 f i WorkerData.obj
 0001:00022230       ?_Erase@?$_Tree@V?$_Tmap_traits@PAVUnitInterface@BWAPI@@VMicroState@UAlbertaBot@@U?$less@PAVUnitInterface@BWAPI@@@std@@V?$allocator@U?$pair@QAVUnitInterface@BWAPI@@VMicroState@UAlbertaBot@@@std@@@6@$0A@@std@@@std@@IAEXPAU?$_Tree_node@U?$pair@QAVUnitInterface@BWAPI@@VMicroState@UAlbertaBot@@@std@@PAX@2@@Z 10023230 f i Base.obj
 0001:00022270       ?_Erase@?$_Tree@V?$_Tmap_traits@V?$Point@H$0CA@@BWAPI@@VGridDistances@UAlbertaBot@@U?$less@V?$Point@H$0CA@@BWAPI@@@std@@V?$allocator@U?$pair@$$CBV?$Point@H$0CA@@BWAPI@@VGridDistances@UAlbertaBot@@@std@@@6@$0A@@std@@@std@@IAEXPAU?$_Tree_node@U?$pair@$$CBV?$Point@H$0CA@@BWAPI@@VGridDistances@UAlbertaBot@@@std@@PAX@2@@Z 10023270 f i Base.obj
 0001:000222c0       ?_Erase@?$_Tree@V?$_Tmap_traits@PAVUnitInterface@BWAPI@@_NU?$less@PAVUnitInterface@BWAPI@@@std@@V?$allocator@U?$pair@QAVUnitInterface@BWAPI@@_N@std@@@4@$0A@@std@@@std@@IAEXPAU?$_Tree_node@U?$pair@QAVUnitInterface@BWAPI@@_N@std@@PAX@2@@Z 100232c0 f i Squad.obj
 0001:000222c0       ?_Erase@?$_Tree@V?$_Tmap_traits@PAVUnitInterface@BWAPI@@HU?$less@PAVUnitInterface@BWAPI@@@std@@V?$allocator@U?$pair@QAVUnitInterface@BWAPI@@H@std@@@4@$0A@@std@@@std@@IAEXPAU?$_Tree_node@U?$pair@QAVUnitInterface@BWAPI@@H@std@@PAX@2@@Z 100232c0 f i WorkerData.obj
 0001:000222c0       ?_Erase@?$_Tree@V?$_Tmap_traits@PAVUnitInterface@BWAPI@@PAVBase@UAlbertaBot@@U?$less@PAVUnitInterface@BWAPI@@@std@@V?$allocator@U?$pair@QAVUnitInterface@BWAPI@@PAVBase@UAlbertaBot@@@std@@@6@$0A@@std@@@std@@IAEXPAU?$_Tree_node@U?$pair@QAVUnitInterface@BWAPI@@PAVBase@UAlbertaBot@@@std@@PAX@2@@Z 100232c0 f i Bases.obj
 0001:000222c0       ?_Erase@?$_Tree@V?$_Tmap_traits@VUnitType@BWAPI@@HU?$less@VUnitType@BWAPI@@@std@@V?$allocator@U?$pair@$$CBVUnitType@BWAPI@@H@std@@@4@$0A@@std@@@std@@IAEXPAU?$_Tree_node@U?$pair@$$CBVUnitType@BWAPI@@H@std@@PAX@2@@Z 100232c0 f i Base.obj
 0001:000222c0       ?_Erase@?$_Tree@V?$_Tmap_traits@PAVUnitInterface@BWAPI@@W4WorkerJob@WorkerData@UAlbertaBot@@U?$less@PAVUnitInterface@BWAPI@@@std@@V?$allocator@U?$pair@QAVUnitInterface@BWAPI@@W4WorkerJob@WorkerData@UAlbertaBot@@@std@@@7@$0A@@std@@@std@@IAEXPAU?$_Tree_node@U?$pair@QAVUnitInterface@BWAPI@@W4WorkerJob@WorkerData@UAlbertaBot@@@std@@PAX@2@@Z 100232c0 f i WorkerData.obj
 0001:000222c0       ?_Erase@?$_Tree@V?$_Tmap_traits@PAVUnitInterface@BWAPI@@PAV12@U?$less@PAVUnitInterface@BWAPI@@@std@@V?$allocator@U?$pair@QAVUnitInterface@BWAPI@@PAV12@@std@@@4@$0A@@std@@@std@@IAEXPAU?$_Tree_node@U?$pair@QAVUnitInterface@BWAPI@@PAV12@@std@@PAX@2@@Z 100232c0 f i WorkerData.obj
 0001:000222c0       ?_Erase@?$_Tree@V?$_Tset_traits@V?$Point@H$0CA@@BWAPI@@U?$less@V?$Point@H$0CA@@BWAPI@@@std@@V?$allocator@V?$Point@H$0CA@@BWAPI@@@4@$0A@@std@@@std@@IAEXPAU?$_Tree_node@V?$Point@H$0CA@@BWAPI@@PAX@2@@Z 100232c0 f i MicroOverlords.obj
 0001:00022300       ?_Max@?$_Tree_val@U?$_Tree_simple_types@U?$pair@QAVUnitInterface@BWAPI@@V?$Point@H$0CA@@2@@std@@@std@@@std@@SAPAU?$_Tree_node@U?$pair@QAVUnitInterface@BWAPI@@V?$Point@H$0CA@@2@@std@@PAX@2@PAU32@@Z 10023300 f i MicroOverlords.obj
 0001:00022300       ?_Max@?$_Tree_val@U?$_Tree_simple_types@U?$pair@QAVUnitInterface@BWAPI@@UUnitInfo@UAlbertaBot@@@std@@@std@@@std@@SAPAU?$_Tree_node@U?$pair@QAVUnitInterface@BWAPI@@UUnitInfo@UAlbertaBot@@@std@@PAX@2@PAU32@@Z 10023300 f i InformationManager.obj
 0001:00022300       ?_Max@?$_Tree_val@U?$_Tree_simple_types@U?$pair@QAVUnitInterface@BWAPI@@PAVBase@UAlbertaBot@@@std@@@std@@@std@@SAPAU?$_Tree_node@U?$pair@QAVUnitInterface@BWAPI@@PAVBase@UAlbertaBot@@@std@@PAX@2@PAU32@@Z 10023300 f i Bases.obj
 0001:00022300       ?_Max@?$_Tree_val@U?$_Tree_simple_types@U?$pair@QAVUnitInterface@BWAPI@@W4WorkerJob@WorkerData@UAlbertaBot@@@std@@@std@@@std@@SAPAU?$_Tree_node@U?$pair@QAVUnitInterface@BWAPI@@W4WorkerJob@WorkerData@UAlbertaBot@@@std@@PAX@2@PAU32@@Z 10023300 f i WorkerData.obj
 0001:00022300       ?_Max@?$_Tree_val@U?$_Tree_simple_types@U?$pair@QAVUnitInterface@BWAPI@@VMicroState@UAlbertaBot@@@std@@@std@@@std@@SAPAU?$_Tree_node@U?$pair@QAVUnitInterface@BWAPI@@VMicroState@UAlbertaBot@@@std@@PAX@2@PAU32@@Z 10023300 f i Base.obj
 0001:00022300       ?_Max@?$_Tree_val@U?$_Tree_simple_types@U?$pair@QAVUnitInterface@BWAPI@@VCasterState@UAlbertaBot@@@std@@@std@@@std@@SAPAU?$_Tree_node@U?$pair@QAVUnitInterface@BWAPI@@VCasterState@UAlbertaBot@@@std@@PAX@2@PAU32@@Z 10023300 f i MicroAirToAir.obj
 0001:00022300       ?_Max@?$_Tree_val@U?$_Tree_simple_types@U?$pair@$$CBV?$basic_string@DU?$char_traits@D@std@@V?$allocator@D@2@@std@@VActionType@BOSS@@@std@@@std@@@std@@SAPAU?$_Tree_node@U?$pair@$$CBV?$basic_string@DU?$char_traits@D@std@@V?$allocator@D@2@@std@@VActionType@BOSS@@@std@@PAX@2@PAU32@@Z 10023300 f i BOSS:ActionType.obj
 0001:00022300       ?_Max@?$_Tree_val@U?$_Tree_simple_types@U?$pair@QAVUnitInterface@BWAPI@@H@std@@@std@@@std@@SAPAU?$_Tree_node@U?$pair@QAVUnitInterface@BWAPI@@H@std@@PAX@2@PAU32@@Z 10023300 f i WorkerData.obj
 0001:00022300       ?_Max@?$_Tree_val@U?$_Tree_simple_types@U?$pair@QAVPlayerInterface@BWAPI@@VUnitData@UAlbertaBot@@@std@@@std@@@std@@SAPAU?$_Tree_node@U?$pair@QAVPlayerInterface@BWAPI@@VUnitData@UAlbertaBot@@@std@@PAX@2@PAU32@@Z 10023300 f i InformationManager.obj
 0001:00022300       ?_Max@?$_Tree_val@U?$_Tree_simple_types@U?$pair@QAVUnitInterface@BWAPI@@PAV12@@std@@@std@@@std@@SAPAU?$_Tree_node@U?$pair@QAVUnitInterface@BWAPI@@PAV12@@std@@PAX@2@PAU32@@Z 10023300 f i MicroMutas.obj
 0001:00022300       ?_Max@?$_Tree_val@U?$_Tree_simple_types@U?$pair@QAVUnitInterface@BWAPI@@VWorkerPost@WorkerData@UAlbertaBot@@@std@@@std@@@std@@SAPAU?$_Tree_node@U?$pair@QAVUnitInterface@BWAPI@@VWorkerPost@WorkerData@UAlbertaBot@@@std@@PAX@2@PAU32@@Z 10023300 f i WorkerData.obj
 0001:00022300       ?_Max@?$_Tree_val@U?$_Tree_simple_types@U?$pair@$$CBV?$basic_string@DU?$char_traits@D@std@@V?$allocator@D@2@@std@@VSquad@UAlbertaBot@@@std@@@std@@@std@@SAPAU?$_Tree_node@U?$pair@$$CBV?$basic_string@DU?$char_traits@D@std@@V?$allocator@D@2@@std@@VSquad@UAlbertaBot@@@std@@PAX@2@PAU32@@Z 10023300 f i CombatCommander.obj
 0001:00022300       ?_Max@?$_Tree_val@U?$_Tree_simple_types@U?$pair@$$CBV?$basic_string@DU?$char_traits@D@std@@V?$allocator@D@2@@std@@V?$basic_json@Vmap@std@@Vvector@2@V?$basic_string@DU?$char_traits@D@std@@V?$allocator@D@2@@2@_N_J_KNVallocator@2@Uadl_serializer@json_abi_v3_11_3@nlohmann@@V?$vector@EV?$allocator@E@std@@@2@X@json_abi_v3_11_3@nlohmann@@@std@@@std@@@std@@SAPAU?$_Tree_node@U?$pair@$$CBV?$basic_string@DU?$char_traits@D@std@@V?$allocator@D@2@@std@@V?$basic_json@Vmap@std@@Vvector@2@V?$basic_string@DU?$char_traits@D@std@@V?$allocator@D@2@@2@_N_J_KNVallocator@2@Uadl_serializer@json_abi_v3_11_3@nlohmann@@V?$vector@EV?$allocator@E@std@@@2@X@json_abi_v3_11_3@nlohmann@@@std@@PAX@2@PAU32@@Z 10023300 f i db.obj
 0001:00022320       ??E?$_Tree_unchecked_const_iterator@V?$_Tree_val@U?$_Tree_simple_types@U?$pair@$$CBVUnitType@BWAPI@@H@std@@@std@@@std@@U_Iterator_base0@2@@std@@QAEAAV01@XZ 10023320 f i Base.obj
 0001:00022320       ??E?$_Tree_unchecked_const_iterator@V?$_Tree_val@U?$_Tree_simple_types@U?$pair@QAVUnitInterface@BWAPI@@PAV12@@std@@@std@@@std@@U_Iterator_base0@2@@std@@QAEAAV01@XZ 10023320 f i MicroMutas.obj
 0001:00022320       ??E?$_Tree_unchecked_const_iterator@V?$_Tree_val@U?$_Tree_simple_types@U?$pair@$$CBV?$basic_string@DU?$char_traits@D@std@@V?$allocator@D@2@@std@@V?$basic_json@Vmap@std@@Vvector@2@V?$basic_string@DU?$char_traits@D@std@@V?$allocator@D@2@@2@_N_J_KNVallocator@2@Uadl_serializer@json_abi_v3_11_3@nlohmann@@V?$vector@EV?$allocator@E@std@@@2@X@json_abi_v3_11_3@nlohmann@@@std@@@std@@@std@@U_Iterator_base0@2@@std@@QAEAAV01@XZ 10023320 f i db.obj
 0001:00022320       ??E?$_Tree_unchecked_const_iterator@V?$_Tree_val@U?$_Tree_simple_types@U?$pair@QAVUnitInterface@BWAPI@@UUnitInfo@UAlbertaBot@@@std@@@std@@@std@@U_Iterator_base0@2@@std@@QAEAAV01@XZ 10023320 f i CombatSimulation.obj
 0001:00022320       ??E?$_Tree_unchecked_const_iterator@V?$_Tree_val@U?$_Tree_simple_types@U?$pair@$$CBV?$basic_string@DU?$char_traits@D@std@@V?$allocator@D@2@@std@@VSquad@UAlbertaBot@@@std@@@std@@@std@@U_Iterator_base0@2@@std@@QAEAAV01@XZ 10023320 f i CombatCommander.obj
 0001:00022320       ??E?$_Tree_unchecked_const_iterator@V?$_Tree_val@U?$_Tree_simple_types@U?$pair@QAVUnitInterface@BWAPI@@H@std@@@std@@@std@@U_Iterator_base0@2@@std@@QAEAAV01@XZ 10023320 f i WorkerData.obj
 0001:00022380       ??$?VV?$UnaryFilter@PAVUnitInterface@BWAPI@@V?$function@$$A6A_NPAVUnitInterface@BWAPI@@@Z@std@@@BWAPI@@@?$UnaryFilter@PAVUnitInterface@BWAPI@@P6A_NPAV12@@Z@BWAPI@@QBE?AV?$UnaryFilter@PAVUnitInterface@BWAPI@@V?$function@$$A6A_NPAVUnitInterface@BWAPI@@@Z@std@@@1@ABV21@@Z 10023380 f i Base.obj
 0001:00022490       ??$?0V<lambda_59e4abf1f646fd939a8d58a73427ae7d>@@@?$UnaryFilter@PAVUnitInterface@BWAPI@@V?$function@$$A6A_NPAVUnitInterface@BWAPI@@@Z@std@@@BWAPI@@QAE@ABV<lambda_59e4abf1f646fd939a8d58a73427ae7d>@@@Z 10023490 f i Base.obj
 0001:000224c0       ??$_Deallocate@$07$0A@@std@@YAXPAXI@Z 100234c0 f i Base.obj
 0001:000224f0       ??$_Destroy_range@V?$allocator@VUnitCluster@UAlbertaBot@@@std@@@std@@YAXPAVUnitCluster@UAlbertaBot@@0AAV?$allocator@VUnitCluster@UAlbertaBot@@@0@@Z 100234f0 f i Base.obj
 0001:00022560       ??$_Fill_unchecked@PAV?$_List_unchecked_const_iterator@V?$_List_val@U?$_List_simple_types@PAVUnitInterface@BWAPI@@@std@@@std@@U_Iterator_base0@2@@std@@V12@@std@@YAXPAV?$_List_unchecked_const_iterator@V?$_List_val@U?$_List_simple_types@PAVUnitInterface@BWAPI@@@std@@@std@@U_Iterator_base0@2@@0@0ABV10@@Z 10023560 f i Base.obj
 0001:00022560       ??$_Fill_unchecked@PAV?$_List_unchecked_const_iterator@V?$_List_val@U?$_List_simple_types@PAVBulletInterface@BWAPI@@@std@@@std@@U_Iterator_base0@2@@std@@V12@@std@@YAXPAV?$_List_unchecked_const_iterator@V?$_List_val@U?$_List_simple_types@PAVBulletInterface@BWAPI@@@std@@@std@@U_Iterator_base0@2@@0@0ABV10@@Z 10023560 f i InformationManager.obj
 0001:00022560       ??$_Fill_unchecked@PAV?$_List_unchecked_iterator@V?$_List_val@U?$_List_simple_types@U?$pair@$$CBHN@std@@@std@@@std@@@std@@V12@@std@@YAXPAV?$_List_unchecked_iterator@V?$_List_val@U?$_List_simple_types@U?$pair@$$CBHN@std@@@std@@@std@@@0@0ABV10@@Z 10023560 f i NEATCommander.obj
 0001:000225e0       ??1<lambda_a75142be93029274f5333ecd96084427>@@QAE@XZ 100235e0 f i BuildingPlacer.obj
 0001:000225e0       ??1<lambda_c39fdb09d160b656fde65dff274b627b>@@QAE@XZ 100235e0 f i MicroDefilers.obj
 0001:000225e0       ??1<lambda_cef79e0d1072eba124270f82643b14a2>@@QAE@XZ 100235e0 f i Base.obj
 0001:000225e0       ??1<lambda_cfd6fce307c286eb3135c7782fdef1bb>@@QAE@XZ 100235e0 f i MicroIrradiated.obj
 0001:00022640       ?_Xlen@?$basic_string@DU?$char_traits@D@std@@V?$allocator@D@2@@std@@SAXXZ 10023640 f i Base.obj
 0001:00022650       ??$_Insert@ABQAVUnitInterface@BWAPI@@U_Not_a_node_tag@std@@@?$_Hash@V?$_Uset_traits@PAVUnitInterface@BWAPI@@V?$_Uhash_compare@PAVUnitInterface@BWAPI@@U?$hash@PAX@std@@U?$equal_to@PAVUnitInterface@BWAPI@@@4@@std@@V?$allocator@PAVUnitInterface@BWAPI@@@4@$0A@@std@@@std@@IAE?AU?$pair@V?$_List_const_iterator@V?$_List_val@U?$_List_simple_types@PAVUnitInterface@BWAPI@@@std@@@std@@@std@@_N@1@ABQAVUnitInterface@BWAPI@@U_Not_a_node_tag@1@@Z 10023650 f i Base.obj
 0001:00022820       ??$?0V<lambda_cb250b491d44fd5fafa1308ee8ece773>@@@?$UnaryFilter@PAVUnitInterface@BWAPI@@V?$function@$$A6A_NPAVUnitInterface@BWAPI@@@Z@std@@@BWAPI@@QAE@ABV<lambda_cb250b491d44fd5fafa1308ee8ece773>@@@Z 10023820 f i Base.obj
 0001:00022850       ?_Check_size@?$_Hash@V?$_Uset_traits@PAVUnitInterface@BWAPI@@V?$_Uhash_compare@PAVUnitInterface@BWAPI@@U?$hash@PAX@std@@U?$equal_to@PAVUnitInterface@BWAPI@@@4@@std@@V?$allocator@PAVUnitInterface@BWAPI@@@4@$0A@@std@@@std@@IAEXXZ 10023850 f i Base.obj
 0001:00022850       ?_Check_size@?$_Hash@V?$_Uset_traits@PAVBulletInterface@BWAPI@@V?$_Uhash_compare@PAVBulletInterface@BWAPI@@U?$hash@PAX@std@@U?$equal_to@PAVBulletInterface@BWAPI@@@4@@std@@V?$allocator@PAVBulletInterface@BWAPI@@@4@$0A@@std@@@std@@IAEXXZ 10023850 f i InformationManager.obj
 0001:000228f0       ?_Buynode0@?$_List_alloc@U?$_List_base_types@PAVUnitInterface@BWAPI@@V?$allocator@PAVUnitInterface@BWAPI@@@std@@@std@@@std@@QAEPAU?$_List_node@PAVUnitInterface@BWAPI@@PAX@2@PAU32@0@Z 100238f0 f i Base.obj
 0001:000228f0       ?_Buynode0@?$_List_alloc@U?$_List_base_types@PAVBulletInterface@BWAPI@@V?$allocator@PAVBulletInterface@BWAPI@@@std@@@std@@@std@@QAEPAU?$_List_node@PAVBulletInterface@BWAPI@@PAX@2@PAU32@0@Z 100238f0 f i InformationManager.obj
 0001:00022920       ??$_Insert@ABQAVUnitInterface@BWAPI@@V?$_List_unchecked_const_iterator@V?$_List_val@U?$_List_simple_types@PAVUnitInterface@BWAPI@@@std@@@std@@U_Iterator_base0@2@@std@@@?$_Hash@V?$_Uset_traits@PAVUnitInterface@BWAPI@@V?$_Uhash_compare@PAVUnitInterface@BWAPI@@U?$hash@PAX@std@@U?$equal_to@PAVUnitInterface@BWAPI@@@4@@std@@V?$allocator@PAVUnitInterface@BWAPI@@@4@$0A@@std@@@std@@IAE?AU?$pair@V?$_List_const_iterator@V?$_List_val@U?$_List_simple_types@PAVUnitInterface@BWAPI@@@std@@@std@@@std@@_N@1@ABQAVUnitInterface@BWAPI@@V?$_List_unchecked_const_iterator@V?$_List_val@U?$_List_simple_types@PAVUnitInterface@BWAPI@@@std@@@std@@U_Iterator_base0@2@@1@@Z 10023920 f i Base.obj
 0001:00022920       ??$_Insert@ABQAVBulletInterface@BWAPI@@V?$_List_unchecked_const_iterator@V?$_List_val@U?$_List_simple_types@PAVBulletInterface@BWAPI@@@std@@@std@@U_Iterator_base0@2@@std@@@?$_Hash@V?$_Uset_traits@PAVBulletInterface@BWAPI@@V?$_Uhash_compare@PAVBulletInterface@BWAPI@@U?$hash@PAX@std@@U?$equal_to@PAVBulletInterface@BWAPI@@@4@@std@@V?$allocator@PAVBulletInterface@BWAPI@@@4@$0A@@std@@@std@@IAE?AU?$pair@V?$_List_const_iterator@V?$_List_val@U?$_List_simple_types@PAVBulletInterface@BWAPI@@@std@@@std@@@std@@_N@1@ABQAVBulletInterface@BWAPI@@V?$_List_unchecked_const_iterator@V?$_List_val@U?$_List_simple_types@PAVBulletInterface@BWAPI@@@std@@@std@@U_Iterator_base0@2@@1@@Z 10023920 f i InformationManager.obj
 0001:00022920       ??$_Insert@AAPAVBulletInterface@BWAPI@@V?$_List_unchecked_const_iterator@V?$_List_val@U?$_List_simple_types@PAVBulletInterface@BWAPI@@@std@@@std@@U_Iterator_base0@2@@std@@@?$_Hash@V?$_Uset_traits@PAVBulletInterface@BWAPI@@V?$_Uhash_compare@PAVBulletInterface@BWAPI@@U?$hash@PAX@std@@U?$equal_to@PAVBulletInterface@BWAPI@@@4@@std@@V?$allocator@PAVBulletInterface@BWAPI@@@4@$0A@@std@@@std@@IAE?AU?$pair@V?$_List_const_iterator@V?$_List_val@U?$_List_simple_types@PAVBulletInterface@BWAPI@@@std@@@std@@@std@@_N@1@AAPAVBulletInterface@BWAPI@@V?$_List_unchecked_const_iterator@V?$_List_val@U?$_List_simple_types@PAVBulletInterface@BWAPI@@@std@@@std@@U_Iterator_base0@2@@1@@Z 10023920 f i InformationManager.obj
 0001:00022920       ??$_Insert@AAPAVUnitInterface@BWAPI@@V?$_List_unchecked_const_iterator@V?$_List_val@U?$_List_simple_types@PAVUnitInterface@BWAPI@@@std@@@std@@U_Iterator_base0@2@@std@@@?$_Hash@V?$_Uset_traits@PAVUnitInterface@BWAPI@@V?$_Uhash_compare@PAVUnitInterface@BWAPI@@U?$hash@PAX@std@@U?$equal_to@PAVUnitInterface@BWAPI@@@4@@std@@V?$allocator@PAVUnitInterface@BWAPI@@@4@$0A@@std@@@std@@IAE?AU?$pair@V?$_List_const_iterator@V?$_List_val@U?$_List_simple_types@PAVUnitInterface@BWAPI@@@std@@@std@@@std@@_N@1@AAPAVUnitInterface@BWAPI@@V?$_List_unchecked_const_iterator@V?$_List_val@U?$_List_simple_types@PAVUnitInterface@BWAPI@@@std@@@std@@U_Iterator_base0@2@@1@@Z 10023920 f i Bases.obj
 0001:00022ad0       ??1UnitCluster@UAlbertaBot@@QAE@XZ 10023ad0 f i Base.obj
 0001:00022b30       ?_Delete_this@?$_Func_impl_no_alloc@V<lambda_118b755b5cc58de9f37bbbebea1f7d1c>@@_NPAVUnitInterface@BWAPI@@@std@@EAEX_N@Z 10023b30 f i MicroIrradiated.obj
 0001:00022b30       ?_Delete_this@?$_Func_impl_no_alloc@V<lambda_3cdec769ff18744395981dd48fcfc232>@@_NPAVUnitInterface@BWAPI@@@std@@EAEX_N@Z 10023b30 f i Micro.obj
 0001:00022b30       ?_Delete_this@?$_Func_impl_no_alloc@V<lambda_78f85996966d427a337d8e82ed1b3dbd>@@_NPAVUnitInterface@BWAPI@@@std@@EAEX_N@Z 10023b30 f i MicroQueens.obj
 0001:00022b30       ?_Delete_this@?$_Func_impl_no_alloc@V<lambda_5f0711d792da3a2e3345062a6240f8fe>@@_NPAVUnitInterface@BWAPI@@@std@@EAEX_N@Z 10023b30 f i MicroDefilers.obj
 0001:00022b30       ?_Delete_this@?$_Func_impl_no_alloc@V<lambda_cb250b491d44fd5fafa1308ee8ece773>@@_NPAVUnitInterface@BWAPI@@@std@@EAEX_N@Z 10023b30 f i Base.obj
 0001:00022b30       ?_Delete_this@?$_Func_impl_no_alloc@V<lambda_60256d1e3ed74e89517e758b8ea31c06>@@_NPAVUnitInterface@BWAPI@@@std@@EAEX_N@Z 10023b30 f i ProductionManager.obj
 0001:00022b30       ?_Delete_this@?$_Func_impl_no_alloc@V<lambda_e0d4f0a6843bbf70301b4930bfad8260>@@_NPAVUnitInterface@BWAPI@@@std@@EAEX_N@Z 10023b30 f i MicroManager.obj
 0001:00022b30       ?_Delete_this@?$_Func_impl_no_alloc@V<lambda_59e4abf1f646fd939a8d58a73427ae7d>@@_NPAVUnitInterface@BWAPI@@@std@@EAEX_N@Z 10023b30 f i Base.obj
 0001:00022b50       ?_Get@?$_Func_impl_no_alloc@V<lambda_3cdec769ff18744395981dd48fcfc232>@@_NPAVUnitInterface@BWAPI@@@std@@EBEPBXXZ 10023b50 f i Micro.obj
 0001:00022b50       ?_Get@?$_Func_impl_no_alloc@P6ANABV?$vector@NV?$allocator@N@std@@@std@@@ZNABV12@@std@@EBEPBXXZ 10023b50 f i NodeEval.obj
 0001:00022b50       ?_Get@?$_Func_impl_no_alloc@V<lambda_118b755b5cc58de9f37bbbebea1f7d1c>@@_NPAVUnitInterface@BWAPI@@@std@@EBEPBXXZ 10023b50 f i MicroIrradiated.obj
 0001:00022b50       ?_Get@?$_Func_impl_no_alloc@V<lambda_5f0711d792da3a2e3345062a6240f8fe>@@_NPAVUnitInterface@BWAPI@@@std@@EBEPBXXZ 10023b50 f i MicroDefilers.obj
 0001:00022b50       ?_Get@?$_Func_impl_no_alloc@V<lambda_cb250b491d44fd5fafa1308ee8ece773>@@_NPAVUnitInterface@BWAPI@@@std@@EBEPBXXZ 10023b50 f i Base.obj
 0001:00022b50       ?_Get@?$_Func_impl_no_alloc@V<lambda_78f85996966d427a337d8e82ed1b3dbd>@@_NPAVUnitInterface@BWAPI@@@std@@EBEPBXXZ 10023b50 f i MicroQueens.obj
 0001:00022b50       ?_Get@?$_Func_impl_no_alloc@V<lambda_a2cf48cc0ad720342f05725db62c6909>@@_NPAVUnitInterface@BWAPI@@@std@@EBEPBXXZ 10023b50 f i MicroArbiter.obj
 0001:00022b50       ?_Get@?$_Func_impl_no_alloc@V<lambda_59e4abf1f646fd939a8d58a73427ae7d>@@_NPAVUnitInterface@BWAPI@@@std@@EBEPBXXZ 10023b50 f i Base.obj
 0001:00022b50       ?_Get@?$_Func_impl_no_alloc@P6ANN@ZNN@std@@EBEPBXXZ 10023b50 f i NodeEval.obj
 0001:00022b50       ?capacity@?$Vec@VActionCountPair@BOSS@@$0GE@@BOSS@@QBEABIXZ 10023b50 f i BOSS:PrerequisiteSet.obj
 0001:00022b50       ?_Get@?$_Func_impl_no_alloc@V<lambda_60256d1e3ed74e89517e758b8ea31c06>@@_NPAVUnitInterface@BWAPI@@@std@@EBEPBXXZ 10023b50 f i ProductionManager.obj
 0001:00022b50       ?_Get@?$_Func_impl_no_alloc@P6ANV?$vector@NV?$allocator@N@std@@@std@@@ZNABV12@@std@@EBEPBXXZ 10023b50 f i NodeEval.obj
 0001:00022b50       ?_Get@?$_Func_impl_no_alloc@V<lambda_e0d4f0a6843bbf70301b4930bfad8260>@@_NPAVUnitInterface@BWAPI@@@std@@EBEPBXXZ 10023b50 f i MicroManager.obj
 0001:00022b50       ?_Get@?$_Func_impl_no_alloc@V?$UnaryFilter@PAVUnitInterface@BWAPI@@P6A_NPAV12@@Z@BWAPI@@_NPAVUnitInterface@2@@std@@EBEPBXXZ 10023b50 f i CombatCommander.obj
 0001:00022b60       ?_Target_type@?$_Func_impl_no_alloc@V<lambda_59e4abf1f646fd939a8d58a73427ae7d>@@_NPAVUnitInterface@BWAPI@@@std@@EBEABVtype_info@@XZ 10023b60 f i Base.obj
 0001:00022b70       ?_Move@?$_Func_impl_no_alloc@V<lambda_59e4abf1f646fd939a8d58a73427ae7d>@@_NPAVUnitInterface@BWAPI@@@std@@EAEPAV?$_Func_base@_NPAVUnitInterface@BWAPI@@@2@PAX@Z 10023b70 f i Base.obj
 0001:00022b70       ?_Copy@?$_Func_impl_no_alloc@V<lambda_59e4abf1f646fd939a8d58a73427ae7d>@@_NPAVUnitInterface@BWAPI@@@std@@EBEPAV?$_Func_base@_NPAVUnitInterface@BWAPI@@@2@PAX@Z 10023b70 f i Base.obj
 0001:00022b90       ??1?$vector@FV?$allocator@F@std@@@std@@QAE@XZ 10023b90 f i Base.obj
 0001:00022b90       ??1?$vector@GV?$allocator@G@std@@@std@@QAE@XZ 10023b90 f i Base.obj
 0001:00022ba0       ??1?$vector@PAVUnitInterface@BWAPI@@V?$allocator@PAVUnitInterface@BWAPI@@@std@@@std@@QAE@XZ 10023ba0 f i CombatCommander.obj
 0001:00022ba0       ??1?$vector@HV?$allocator@H@std@@@std@@QAE@XZ 10023ba0 f i GameRecord.obj
 0001:00022ba0       ??1?$vector@_NV?$allocator@_N@std@@@std@@QAE@XZ 10023ba0 f i Base.obj
 0001:00022ba0       ??1?$_Vb_val@V?$allocator@_N@std@@@std@@QAE@XZ 10023ba0 f i Base.obj
 0001:00022bb0       ?_Tidy@?$vector@FV?$allocator@F@std@@@std@@AAEXXZ 10023bb0 f i Base.obj
 0001:00022bb0       ??1?$vector@VActionType@BOSS@@V?$allocator@VActionType@BOSS@@@std@@@std@@QAE@XZ 10023bb0 f i BOSS:ActionType.obj
 0001:00022bb0       ?_Tidy@?$vector@GV?$allocator@G@std@@@std@@AAEXXZ 10023bb0 f i Base.obj
 0001:00022c10       ?_Do_call@?$_Func_impl_no_alloc@V<lambda_59e4abf1f646fd939a8d58a73427ae7d>@@_NPAVUnitInterface@BWAPI@@@std@@EAE_N$$QAPAVUnitInterface@BWAPI@@@Z 10023c10 f i Base.obj
 0001:00022c10       ?_Do_call@?$_Func_impl_no_alloc@V<lambda_e0d4f0a6843bbf70301b4930bfad8260>@@_NPAVUnitInterface@BWAPI@@@std@@EAE_N$$QAPAVUnitInterface@BWAPI@@@Z 10023c10 f i MicroManager.obj
 0001:00022c40       ?_Delete_this@?$_Func_impl_no_alloc@V<lambda_cef79e0d1072eba124270f82643b14a2>@@_NPAVUnitInterface@BWAPI@@@std@@EAEX_N@Z 10023c40 f i Base.obj
 0001:00022c40       ?_Delete_this@?$_Func_impl_no_alloc@V<lambda_c39fdb09d160b656fde65dff274b627b>@@_NPAVUnitInterface@BWAPI@@@std@@EAEX_N@Z 10023c40 f i MicroDefilers.obj
 0001:00022c40       ?_Delete_this@?$_Func_impl_no_alloc@V<lambda_a75142be93029274f5333ecd96084427>@@_NPAVUnitInterface@BWAPI@@@std@@EAEX_N@Z 10023c40 f i BuildingPlacer.obj
 0001:00022c40       ?_Delete_this@?$_Func_impl_no_alloc@V<lambda_cfd6fce307c286eb3135c7782fdef1bb>@@_NPAVUnitInterface@BWAPI@@@std@@EAEX_N@Z 10023c40 f i MicroIrradiated.obj
 0001:00022cb0       ?_Get@?$_Func_impl_no_alloc@V<lambda_cfd6fce307c286eb3135c7782fdef1bb>@@_NPAVUnitInterface@BWAPI@@@std@@EBEPBXXZ 10023cb0 f i MicroIrradiated.obj
 0001:00022cb0       ?_Get@?$_Func_impl_no_alloc@V<lambda_a75142be93029274f5333ecd96084427>@@_NPAVUnitInterface@BWAPI@@@std@@EBEPBXXZ 10023cb0 f i BuildingPlacer.obj
 0001:00022cb0       ?_Get@?$_Func_impl_no_alloc@V<lambda_c39fdb09d160b656fde65dff274b627b>@@_NPAVUnitInterface@BWAPI@@@std@@EBEPBXXZ 10023cb0 f i MicroDefilers.obj
 0001:00022cb0       ?_Get@?$_Func_impl_no_alloc@V<lambda_cef79e0d1072eba124270f82643b14a2>@@_NPAVUnitInterface@BWAPI@@@std@@EBEPBXXZ 10023cb0 f i Base.obj
 0001:00022cc0       ?_Target_type@?$_Func_impl_no_alloc@V<lambda_cef79e0d1072eba124270f82643b14a2>@@_NPAVUnitInterface@BWAPI@@@std@@EBEABVtype_info@@XZ 10023cc0 f i Base.obj
 0001:00022cd0       ?_Move@?$_Func_impl_no_alloc@V<lambda_cef79e0d1072eba124270f82643b14a2>@@_NPAVUnitInterface@BWAPI@@@std@@EAEPAV?$_Func_base@_NPAVUnitInterface@BWAPI@@@2@PAX@Z 10023cd0 f i Base.obj
 0001:00022d40       ?_Copy@?$_Func_impl_no_alloc@V<lambda_cef79e0d1072eba124270f82643b14a2>@@_NPAVUnitInterface@BWAPI@@@std@@EBEPAV?$_Func_base@_NPAVUnitInterface@BWAPI@@@2@PAX@Z 10023d40 f i Base.obj
 0001:00022d50       ?_Target_type@?$_Func_impl_no_alloc@V<lambda_cb250b491d44fd5fafa1308ee8ece773>@@_NPAVUnitInterface@BWAPI@@@std@@EBEABVtype_info@@XZ 10023d50 f i Base.obj
 0001:00022d60       ?_Move@?$_Func_impl_no_alloc@V<lambda_cb250b491d44fd5fafa1308ee8ece773>@@_NPAVUnitInterface@BWAPI@@@std@@EAEPAV?$_Func_base@_NPAVUnitInterface@BWAPI@@@2@PAX@Z 10023d60 f i Base.obj
 0001:00022d60       ?_Copy@?$_Func_impl_no_alloc@V<lambda_cb250b491d44fd5fafa1308ee8ece773>@@_NPAVUnitInterface@BWAPI@@@std@@EBEPAV?$_Func_base@_NPAVUnitInterface@BWAPI@@@2@PAX@Z 10023d60 f i Base.obj
 0001:00022d80       ?_Do_call@?$_Func_impl_no_alloc@V<lambda_cb250b491d44fd5fafa1308ee8ece773>@@_NPAVUnitInterface@BWAPI@@@std@@EAE_N$$QAPAVUnitInterface@BWAPI@@@Z 10023d80 f i Base.obj
 0001:00022dd0       ?_Do_call@?$_Func_impl_no_alloc@V<lambda_cef79e0d1072eba124270f82643b14a2>@@_NPAVUnitInterface@BWAPI@@@std@@EAE_N$$QAPAVUnitInterface@BWAPI@@@Z 10023dd0 f i Base.obj
 0001:00022e20       ??$_Buynode@ABQAVBulletInterface@BWAPI@@@?$_List_buy@PAVBulletInterface@BWAPI@@V?$allocator@PAVBulletInterface@BWAPI@@@std@@@std@@QAEPAU?$_List_node@PAVBulletInterface@BWAPI@@PAX@1@PAU21@0ABQAVBulletInterface@BWAPI@@@Z 10023e20 f i InformationManager.obj
 0001:00022e20       ??$_Buynode@ABQAVUnitInterface@BWAPI@@@?$_List_buy@PAVUnitInterface@BWAPI@@V?$allocator@PAVUnitInterface@BWAPI@@@std@@@std@@QAEPAU?$_List_node@PAVUnitInterface@BWAPI@@PAX@1@PAU21@0ABQAVUnitInterface@BWAPI@@@Z 10023e20 f i Base.obj
 0001:00022e40       ??$_Global_new@V?$_Func_impl_no_alloc@V<lambda_cef79e0d1072eba124270f82643b14a2>@@_NPAVUnitInterface@BWAPI@@@std@@V<lambda_cef79e0d1072eba124270f82643b14a2>@@@std@@YAPAV?$_Func_impl_no_alloc@V<lambda_cef79e0d1072eba124270f82643b14a2>@@_NPAVUnitInterface@BWAPI@@@0@$$QAV<lambda_cef79e0d1072eba124270f82643b14a2>@@@Z 10023e40 f i Base.obj
 0001:00022e40       ??$_Global_new@V?$_Func_impl_no_alloc@V<lambda_cef79e0d1072eba124270f82643b14a2>@@_NPAVUnitInterface@BWAPI@@@std@@ABV<lambda_cef79e0d1072eba124270f82643b14a2>@@@std@@YAPAV?$_Func_impl_no_alloc@V<lambda_cef79e0d1072eba124270f82643b14a2>@@_NPAVUnitInterface@BWAPI@@@0@ABV<lambda_cef79e0d1072eba124270f82643b14a2>@@@Z 10023e40 f i Base.obj
 0001:00022ee0       ??0exception@std@@QAE@QBD@Z 10023ee0 f i Bases.obj
 0001:00022f20       ??0exception@std@@QAE@ABV01@@Z 10023f20 f i Bases.obj
 0001:00022f50       ??1bad_cast@std@@UAE@XZ    10023f50 f i Logger.obj
 0001:00022f50       ??1exception@std@@UAE@XZ   10023f50 f i Bases.obj
 0001:00022f50       ??1overflow_error@std@@UAE@XZ 10023f50 f i NEATCommander.obj
 0001:00022f50       ??1invalid_argument@std@@UAE@XZ 10023f50 f i NEATCommander.obj
 0001:00022f70       ?what@exception@std@@UBEPBDXZ 10023f70 f i Bases.obj
 0001:00022f80       ??_Goverflow_error@std@@UAEPAXI@Z 10023f80 f i NEATCommander.obj
 0001:00022f80       ??_Gexception@std@@UAEPAXI@Z 10023f80 f i Bases.obj
 0001:00022f80       ??_Einvalid_argument@std@@UAEPAXI@Z 10023f80 f i * CIL library *:* CIL module *
 0001:00022f80       ??_Ginvalid_argument@std@@UAEPAXI@Z 10023f80 f i NEATCommander.obj
 0001:00022f80       ??_Gruntime_error@std@@UAEPAXI@Z 10023f80 f i db.obj
 0001:00022f80       ??_Glogic_error@std@@UAEPAXI@Z 10023f80 f i NEATCommander.obj
 0001:00022f80       ??_Eoverflow_error@std@@UAEPAXI@Z 10023f80 f i * CIL library *:* CIL module *
 0001:00022f80       ??_Ebad_cast@std@@UAEPAXI@Z 10023f80 f i * CIL library *:* CIL module *
 0001:00022f80       ??_Elogic_error@std@@UAEPAXI@Z 10023f80 f i * CIL library *:* CIL module *
 0001:00022f80       ??_Eexception@std@@UAEPAXI@Z 10023f80 f i * CIL library *:* CIL module *
 0001:00022f80       ??_Gbad_cast@std@@UAEPAXI@Z 10023f80 f i Logger.obj
 0001:00022f80       ??_Eruntime_error@std@@UAEPAXI@Z 10023f80 f i * CIL library *:* CIL module *
 0001:00022fc0       ?compareBases@@YA_NPBVBase@UAlbertaBot@@0@Z 10023fc0 f   Bases.obj
 0001:00022ff0       ?checkIslandStart@Bases@UAlbertaBot@@ABE_NXZ 10023ff0 f   Bases.obj
 0001:000231c0       ?findBasePosition@Bases@UAlbertaBot@@AAE?AV?$Point@H$0CA@@BWAPI@@VUnitset@4@@Z 100241c0 f   Bases.obj
 0001:00023720       ?inferEnemyBaseFromOverlord@Bases@UAlbertaBot@@AAE_NXZ 10024720 f   Bases.obj
 0001:00023930       ?updateEnemyStart@Bases@UAlbertaBot@@AAEXXZ 10024930 f   Bases.obj
 0001:00023b00       ?updateBaseOwners@Bases@UAlbertaBot@@AAEXXZ 10024b00 f   Bases.obj
 0001:00023db0       ?updateMainBase@Bases@UAlbertaBot@@AAEXXZ 10024db0 f   Bases.obj
 0001:00023f70       ?initialize@Bases@UAlbertaBot@@QAEXXZ 10024f70 f   Bases.obj
 0001:00024b00       ?checkBuildingPosition@Bases@UAlbertaBot@@QAEXABV?$Point@H$0CA@@BWAPI@@0@Z 10025b00 f   Bases.obj
 0001:00024d30       ?myFront@Bases@UAlbertaBot@@QBEPAVBase@2@XZ 10025d30 f   Bases.obj
 0001:00024f80       ?frontTile@Bases@UAlbertaBot@@QBE?AV?$Point@H$0CA@@BWAPI@@XZ 10025f80 f   Bases.obj
 0001:00024fd0       ?connectedToStart@Bases@UAlbertaBot@@QBE_NABV?$Point@H$0CA@@BWAPI@@@Z 10025fd0 f   Bases.obj
 0001:00025090       ?baseCount@Bases@UAlbertaBot@@QBEHPAVPlayerInterface@BWAPI@@@Z 10026090 f   Bases.obj
 0001:000250e0       ?completedBaseCount@Bases@UAlbertaBot@@QBEHPAVPlayerInterface@BWAPI@@@Z 100260e0 f   Bases.obj
 0001:00025140       ?mineralPatchCount@Bases@UAlbertaBot@@QBEHXZ 10026140 f   Bases.obj
 0001:00025230       ?clearNeutral@Bases@UAlbertaBot@@QAEXPAVUnitInterface@BWAPI@@@Z 10026230 f   Bases.obj
 0001:000252e0       ?Instance@Bases@UAlbertaBot@@SAAAV12@XZ 100262e0 f   Bases.obj
 0001:00025470       ??1Bases@UAlbertaBot@@QAE@XZ 10026470 f i Bases.obj
 0001:000256d0       ?getApproxDistance@?$Point@H$00@BWAPI@@QBEHABV12@@Z 100266d0 f i Bases.obj
 0001:00025730       ?_Destroy@?$vector@VUnitset@BWAPI@@V?$allocator@VUnitset@BWAPI@@@std@@@std@@AAEXPAVUnitset@BWAPI@@0@Z 10026730 f i Bases.obj
 0001:00025760       ?deallocate@?$allocator@VUnitset@BWAPI@@@std@@QAEXQAVUnitset@BWAPI@@I@Z 10026760 f i Bases.obj
 0001:000257a0       ?erase@?$_Tree@V?$_Tmap_traits@PAVUnitInterface@BWAPI@@PAVBase@UAlbertaBot@@U?$less@PAVUnitInterface@BWAPI@@@std@@V?$allocator@U?$pair@QAVUnitInterface@BWAPI@@PAVBase@UAlbertaBot@@@std@@@6@$0A@@std@@@std@@QAE?AV?$_Tree_iterator@V?$_Tree_val@U?$_Tree_simple_types@U?$pair@QAVUnitInterface@BWAPI@@PAVBase@UAlbertaBot@@@std@@@std@@@std@@@2@V?$_Tree_const_iterator@V?$_Tree_val@U?$_Tree_simple_types@U?$pair@QAVUnitInterface@BWAPI@@PAVBase@UAlbertaBot@@@std@@@std@@@std@@@2@@Z 100267a0 f i Bases.obj
 0001:00025810       ?_Extract@?$_Tree_val@U?$_Tree_simple_types@U?$pair@QAVUnitInterface@BWAPI@@PAVBase@UAlbertaBot@@@std@@@std@@@std@@QAEPAU?$_Tree_node@U?$pair@QAVUnitInterface@BWAPI@@PAVBase@UAlbertaBot@@@std@@PAX@2@V?$_Tree_const_iterator@V?$_Tree_val@U?$_Tree_simple_types@U?$pair@QAVUnitInterface@BWAPI@@PAVBase@UAlbertaBot@@@std@@@std@@@std@@@2@@Z 10026810 f i Bases.obj
 0001:00025ab0       ?_Buyheadnode@?$_Tree_comp_alloc@V?$_Tmap_traits@PAVUnitInterface@BWAPI@@_NU?$less@PAVUnitInterface@BWAPI@@@std@@V?$allocator@U?$pair@QAVUnitInterface@BWAPI@@_N@std@@@4@$0A@@std@@@std@@QAEPAU?$_Tree_node@U?$pair@QAVUnitInterface@BWAPI@@_N@std@@PAX@2@XZ 10026ab0 f i Squad.obj
 0001:00025ab0       ?_Buyheadnode@?$_Tree_comp_alloc@V?$_Tmap_traits@PAVUnitInterface@BWAPI@@PAVBase@UAlbertaBot@@U?$less@PAVUnitInterface@BWAPI@@@std@@V?$allocator@U?$pair@QAVUnitInterface@BWAPI@@PAVBase@UAlbertaBot@@@std@@@6@$0A@@std@@@std@@QAEPAU?$_Tree_node@U?$pair@QAVUnitInterface@BWAPI@@PAVBase@UAlbertaBot@@@std@@PAX@2@XZ 10026ab0 f i Bases.obj
 0001:00025ab0       ?_Buyheadnode@?$_Tree_comp_alloc@V?$_Tmap_traits@PAVUnitInterface@BWAPI@@PAV12@U?$less@PAVUnitInterface@BWAPI@@@std@@V?$allocator@U?$pair@QAVUnitInterface@BWAPI@@PAV12@@std@@@4@$0A@@std@@@std@@QAEPAU?$_Tree_node@U?$pair@QAVUnitInterface@BWAPI@@PAV12@@std@@PAX@2@XZ 10026ab0 f i WorkerData.obj
 0001:00025ab0       ?_Buyheadnode@?$_Tree_comp_alloc@V?$_Tset_traits@V?$Point@H$0CA@@BWAPI@@U?$less@V?$Point@H$0CA@@BWAPI@@@std@@V?$allocator@V?$Point@H$0CA@@BWAPI@@@4@$0A@@std@@@std@@QAEPAU?$_Tree_node@V?$Point@H$0CA@@BWAPI@@PAX@2@XZ 10026ab0 f i MicroOverlords.obj
 0001:00025ab0       ?_Buyheadnode@?$_Tree_comp_alloc@V?$_Tmap_traits@VUnitType@BWAPI@@HU?$less@VUnitType@BWAPI@@@std@@V?$allocator@U?$pair@$$CBVUnitType@BWAPI@@H@std@@@4@$0A@@std@@@std@@QAEPAU?$_Tree_node@U?$pair@$$CBVUnitType@BWAPI@@H@std@@PAX@2@XZ 10026ab0 f i BOSimulator.obj
 0001:00025ab0       ?_Buyheadnode@?$_Tree_comp_alloc@V?$_Tmap_traits@PAVUnitInterface@BWAPI@@HU?$less@PAVUnitInterface@BWAPI@@@std@@V?$allocator@U?$pair@QAVUnitInterface@BWAPI@@H@std@@@4@$0A@@std@@@std@@QAEPAU?$_Tree_node@U?$pair@QAVUnitInterface@BWAPI@@H@std@@PAX@2@XZ 10026ab0 f i WorkerData.obj
 0001:00025ab0       ?_Buyheadnode@?$_Tree_comp_alloc@V?$_Tmap_traits@PAVUnitInterface@BWAPI@@W4WorkerJob@WorkerData@UAlbertaBot@@U?$less@PAVUnitInterface@BWAPI@@@std@@V?$allocator@U?$pair@QAVUnitInterface@BWAPI@@W4WorkerJob@WorkerData@UAlbertaBot@@@std@@@7@$0A@@std@@@std@@QAEPAU?$_Tree_node@U?$pair@QAVUnitInterface@BWAPI@@W4WorkerJob@WorkerData@UAlbertaBot@@@std@@PAX@2@XZ 10026ab0 f i WorkerData.obj
 0001:00025ad0       ?_Rrotate@?$_Tree_val@U?$_Tree_simple_types@U?$pair@$$CBV?$basic_string@DU?$char_traits@D@std@@V?$allocator@D@2@@std@@V?$basic_json@Vmap@std@@Vvector@2@V?$basic_string@DU?$char_traits@D@std@@V?$allocator@D@2@@2@_N_J_KNVallocator@2@Uadl_serializer@json_abi_v3_11_3@nlohmann@@V?$vector@EV?$allocator@E@std@@@2@X@json_abi_v3_11_3@nlohmann@@@std@@@std@@@std@@QAEXPAU?$_Tree_node@U?$pair@$$CBV?$basic_string@DU?$char_traits@D@std@@V?$allocator@D@2@@std@@V?$basic_json@Vmap@std@@Vvector@2@V?$basic_string@DU?$char_traits@D@std@@V?$allocator@D@2@@2@_N_J_KNVallocator@2@Uadl_serializer@json_abi_v3_11_3@nlohmann@@V?$vector@EV?$allocator@E@std@@@2@X@json_abi_v3_11_3@nlohmann@@@std@@PAX@2@@Z 10026ad0 f i db.obj
 0001:00025ad0       ?_Rrotate@?$_Tree_val@U?$_Tree_simple_types@U?$pair@QAVUnitInterface@BWAPI@@PAVBase@UAlbertaBot@@@std@@@std@@@std@@QAEXPAU?$_Tree_node@U?$pair@QAVUnitInterface@BWAPI@@PAVBase@UAlbertaBot@@@std@@PAX@2@@Z 10026ad0 f i Bases.obj
 0001:00025b30       ?_Lrotate@?$_Tree_val@U?$_Tree_simple_types@U?$pair@QAVUnitInterface@BWAPI@@PAVBase@UAlbertaBot@@@std@@@std@@@std@@QAEXPAU?$_Tree_node@U?$pair@QAVUnitInterface@BWAPI@@PAVBase@UAlbertaBot@@@std@@PAX@2@@Z 10026b30 f i Bases.obj
 0001:00025b30       ?_Lrotate@?$_Tree_val@U?$_Tree_simple_types@U?$pair@$$CBV?$basic_string@DU?$char_traits@D@std@@V?$allocator@D@2@@std@@V?$basic_json@Vmap@std@@Vvector@2@V?$basic_string@DU?$char_traits@D@std@@V?$allocator@D@2@@2@_N_J_KNVallocator@2@Uadl_serializer@json_abi_v3_11_3@nlohmann@@V?$vector@EV?$allocator@E@std@@@2@X@json_abi_v3_11_3@nlohmann@@@std@@@std@@@std@@QAEXPAU?$_Tree_node@U?$pair@$$CBV?$basic_string@DU?$char_traits@D@std@@V?$allocator@D@2@@std@@V?$basic_json@Vmap@std@@Vvector@2@V?$basic_string@DU?$char_traits@D@std@@V?$allocator@D@2@@2@_N_J_KNVallocator@2@Uadl_serializer@json_abi_v3_11_3@nlohmann@@V?$vector@EV?$allocator@E@std@@@2@X@json_abi_v3_11_3@nlohmann@@@std@@PAX@2@@Z 10026b30 f i db.obj
 0001:00025b90       ??$_Emplace_reallocate@VPotentialBase@UAlbertaBot@@@?$vector@VPotentialBase@UAlbertaBot@@V?$allocator@VPotentialBase@UAlbertaBot@@@std@@@std@@QAEPAVPotentialBase@UAlbertaBot@@QAV23@$$QAV23@@Z 10026b90 f i Bases.obj
 0001:00025d80       ??$_Emplace_reallocate@ABVUnitset@BWAPI@@@?$vector@VUnitset@BWAPI@@V?$allocator@VUnitset@BWAPI@@@std@@@std@@QAEPAVUnitset@BWAPI@@QAV23@ABV23@@Z 10026d80 f i Bases.obj
 0001:00026010       ??$_Emplace_reallocate@ABH@?$vector@HV?$allocator@H@std@@@std@@QAEPAHQAHABH@Z 10027010 f i NodeEval.obj
 0001:00026010       ??$_Emplace_reallocate@PAV?$basic_json@Vmap@std@@Vvector@2@V?$basic_string@DU?$char_traits@D@std@@V?$allocator@D@2@@2@_N_J_KNVallocator@2@Uadl_serializer@json_abi_v3_11_3@nlohmann@@V?$vector@EV?$allocator@E@std@@@2@X@json_abi_v3_11_3@nlohmann@@@?$vector@PAV?$basic_json@Vmap@std@@Vvector@2@V?$basic_string@DU?$char_traits@D@std@@V?$allocator@D@2@@2@_N_J_KNVallocator@2@Uadl_serializer@json_abi_v3_11_3@nlohmann@@V?$vector@EV?$allocator@E@std@@@2@X@json_abi_v3_11_3@nlohmann@@V?$allocator@PAV?$basic_json@Vmap@std@@Vvector@2@V?$basic_string@DU?$char_traits@D@std@@V?$allocator@D@2@@2@_N_J_KNVallocator@2@Uadl_serializer@json_abi_v3_11_3@nlohmann@@V?$vector@EV?$allocator@E@std@@@2@X@json_abi_v3_11_3@nlohmann@@@std@@@std@@QAEPAPAV?$basic_json@Vmap@std@@Vvector@2@V?$basic_string@DU?$char_traits@D@std@@V?$allocator@D@2@@2@_N_J_KNVallocator@2@Uadl_serializer@json_abi_v3_11_3@nlohmann@@V?$vector@EV?$allocator@E@std@@@2@X@json_abi_v3_11_3@nlohmann@@QAPAV234@$$QAPAV234@@Z 10027010 f i db.obj
 0001:00026010       ??$_Emplace_reallocate@ABQAVBase@UAlbertaBot@@@?$vector@PAVBase@UAlbertaBot@@V?$allocator@PAVBase@UAlbertaBot@@@std@@@std@@QAEPAPAVBase@UAlbertaBot@@QAPAV23@ABQAV23@@Z 10027010 f i Bases.obj
 0001:00026010       ??$_Emplace_reallocate@ABQAVUnitInterface@BWAPI@@@?$vector@PAVUnitInterface@BWAPI@@V?$allocator@PAVUnitInterface@BWAPI@@@std@@@std@@QAEPAPAVUnitInterface@BWAPI@@QAPAV23@ABQAV23@@Z 10027010 f i CombatCommander.obj
 0001:00026010       ??$_Emplace_reallocate@ABQAV?$basic_json@Vmap@std@@Vvector@2@V?$basic_string@DU?$char_traits@D@std@@V?$allocator@D@2@@2@_N_J_KNVallocator@2@Uadl_serializer@json_abi_v3_11_3@nlohmann@@V?$vector@EV?$allocator@E@std@@@2@X@json_abi_v3_11_3@nlohmann@@@?$vector@PAV?$basic_json@Vmap@std@@Vvector@2@V?$basic_string@DU?$char_traits@D@std@@V?$allocator@D@2@@2@_N_J_KNVallocator@2@Uadl_serializer@json_abi_v3_11_3@nlohmann@@V?$vector@EV?$allocator@E@std@@@2@X@json_abi_v3_11_3@nlohmann@@V?$allocator@PAV?$basic_json@Vmap@std@@Vvector@2@V?$basic_string@DU?$char_traits@D@std@@V?$allocator@D@2@@2@_N_J_KNVallocator@2@Uadl_serializer@json_abi_v3_11_3@nlohmann@@V?$vector@EV?$allocator@E@std@@@2@X@json_abi_v3_11_3@nlohmann@@@std@@@std@@QAEPAPAV?$basic_json@Vmap@std@@Vvector@2@V?$basic_string@DU?$char_traits@D@std@@V?$allocator@D@2@@2@_N_J_KNVallocator@2@Uadl_serializer@json_abi_v3_11_3@nlohmann@@V?$vector@EV?$allocator@E@std@@@2@X@json_abi_v3_11_3@nlohmann@@QAPAV234@ABQAV234@@Z 10027010 f i db.obj
 0001:00026010       ??$_Emplace_reallocate@PAVZone@UAlbertaBot@@@?$vector@PAVZone@UAlbertaBot@@V?$allocator@PAVZone@UAlbertaBot@@@std@@@std@@QAEPAPAVZone@UAlbertaBot@@QAPAV23@$$QAPAV23@@Z 10027010 f i GridZone.obj
 0001:00026190       ?_Umove@?$vector@VUnitset@BWAPI@@V?$allocator@VUnitset@BWAPI@@@std@@@std@@AAEPAVUnitset@BWAPI@@PAV34@00@Z 10027190 f i Bases.obj
 0001:00026240       ?_Copy@?$_Hash@V?$_Uset_traits@PAVUnitInterface@BWAPI@@V?$_Uhash_compare@PAVUnitInterface@BWAPI@@U?$hash@PAX@std@@U?$equal_to@PAVUnitInterface@BWAPI@@@4@@std@@V?$allocator@PAVUnitInterface@BWAPI@@@4@$0A@@std@@@std@@IAEXABV12@@Z 10027240 f i Bases.obj
 0001:00026310       ??$_Sort_unchecked@PAPAVBase@UAlbertaBot@@P6A_NPBV12@0@Z@std@@YAXPAPAVBase@UAlbertaBot@@0HP6A_NPBV12@1@Z@Z 10027310 f i Bases.obj
 0001:00026520       ??$insert@V?$_List_const_iterator@V?$_List_val@U?$_List_simple_types@PAVUnitInterface@BWAPI@@@std@@@std@@@std@@@?$_Hash@V?$_Uset_traits@PAVUnitInterface@BWAPI@@V?$_Uhash_compare@PAVUnitInterface@BWAPI@@U?$hash@PAX@std@@U?$equal_to@PAVUnitInterface@BWAPI@@@4@@std@@V?$allocator@PAVUnitInterface@BWAPI@@@4@$0A@@std@@@std@@QAEXV?$_List_const_iterator@V?$_List_val@U?$_List_simple_types@PAVUnitInterface@BWAPI@@@std@@@std@@@1@0@Z 10027520 f i Bases.obj
 0001:000265b0       ??$_Partition_by_median_guess_unchecked@PAPAVBase@UAlbertaBot@@P6A_NPBV12@0@Z@std@@YA?AU?$pair@PAPAVBase@UAlbertaBot@@PAPAV12@@0@PAPAVBase@UAlbertaBot@@0P6A_NPBV23@1@Z@Z 100275b0 f i Bases.obj
 0001:00026780       ??$_Ptr_move_cat@DD@std@@YA?AU_Really_trivial_ptr_iterator_tag@0@ABQAD0@Z 10027780 f i db.obj
 0001:00026780       ??$_Ptr_copy_cat@GG@std@@YA?AU_Really_trivial_ptr_iterator_tag@0@ABQAG0@Z 10027780 f i MapPartitions.obj
 0001:00026780       ??$_Ptr_move_cat@PAVUnitInterface@BWAPI@@PAV12@@std@@YA?AU_Really_trivial_ptr_iterator_tag@0@ABQAPAVUnitInterface@BWAPI@@0@Z 10027780 f i CombatCommander.obj
 0001:00026780       ??$_Ptr_move_cat@II@std@@YA?AU_Really_trivial_ptr_iterator_tag@0@ABQAI0@Z 10027780 f i BuildingPlacer.obj
 0001:00026780       ??$_Ptr_copy_cat@II@std@@YA?AU_Really_trivial_ptr_iterator_tag@0@ABQAI0@Z 10027780 f i BuildingPlacer.obj
 0001:00026780       ??$_Ptr_copy_cat@FF@std@@YA?AU_Really_trivial_ptr_iterator_tag@0@ABQAF0@Z 10027780 f i Grid.obj
 0001:00026780       ??$_Ptr_copy_cat@PAUBuildOrderItem@UAlbertaBot@@PAU12@@std@@YA?AU_Really_trivial_ptr_iterator_tag@0@ABQAPAUBuildOrderItem@UAlbertaBot@@0@Z 10027780 f i BuildOrderQueue.obj
 0001:00026780       ??$_Ptr_move_cat@PAVZone@UAlbertaBot@@PAV12@@std@@YA?AU_Really_trivial_ptr_iterator_tag@0@ABQAPAVZone@UAlbertaBot@@0@Z 10027780 f i GridZone.obj
 0001:00026780       ??$_Ptr_copy_cat@EE@std@@YA?AU_Really_trivial_ptr_iterator_tag@0@ABQAE0@Z 10027780 f i db.obj
 0001:00026780       ??$_Ptr_move_cat@PAV?$basic_json@Vmap@std@@Vvector@2@V?$basic_string@DU?$char_traits@D@std@@V?$allocator@D@2@@2@_N_J_KNVallocator@2@Uadl_serializer@json_abi_v3_11_3@nlohmann@@V?$vector@EV?$allocator@E@std@@@2@X@json_abi_v3_11_3@nlohmann@@PAV123@@std@@YA?AU_Really_trivial_ptr_iterator_tag@0@ABQAPAV?$basic_json@Vmap@std@@Vvector@2@V?$basic_string@DU?$char_traits@D@std@@V?$allocator@D@2@@2@_N_J_KNVallocator@2@Uadl_serializer@json_abi_v3_11_3@nlohmann@@V?$vector@EV?$allocator@E@std@@@2@X@json_abi_v3_11_3@nlohmann@@0@Z 10027780 f i db.obj
 0001:00026780       ??$_Ptr_move_cat@NN@std@@YA?AU_Really_trivial_ptr_iterator_tag@0@ABQAN0@Z 10027780 f i NEATCommander.obj
 0001:00026780       ??$_Ptr_move_cat@V?$array@H$01@std@@V12@@std@@YA?AU_Really_trivial_ptr_iterator_tag@0@ABQAV?$array@H$01@0@0@Z 10027780 f i NEATCommander.obj
 0001:00026780       ??$_Ptr_move_cat@PAVBase@UAlbertaBot@@PAV12@@std@@YA?AU_Really_trivial_ptr_iterator_tag@0@ABQAPAVBase@UAlbertaBot@@0@Z 10027780 f i Bases.obj
 0001:00026780       ??$_Ptr_move_cat@HH@std@@YA?AU_Really_trivial_ptr_iterator_tag@0@ABQAH0@Z 10027780 f i NodeEval.obj
 0001:00026780       ??$_Ptr_copy_cat@UConnection@@U1@@std@@YA?AU_Really_trivial_ptr_iterator_tag@0@ABQAUConnection@@0@Z 10027780 f i NodeEval.obj
 0001:00026780       ??$_Ptr_move_cat@UConnection@@U1@@std@@YA?AU_Really_trivial_ptr_iterator_tag@0@ABQAUConnection@@0@Z 10027780 f i NodeEval.obj
 0001:00026780       ??$_Ptr_copy_cat@NN@std@@YA?AU_Really_trivial_ptr_iterator_tag@0@ABQAN0@Z 10027780 f i NodeEval.obj
 0001:00026780       ??$_Ptr_move_cat@VBuilding@UAlbertaBot@@V12@@std@@YA?AU_Trivially_copyable_ptr_iterator_tag@0@ABQAVBuilding@UAlbertaBot@@0@Z 10027780 f i BuildingManager.obj
 0001:00026790       ??1?$_Uninitialized_backout_al@PAVUnitset@BWAPI@@V?$allocator@VUnitset@BWAPI@@@std@@@std@@QAE@XZ 10027790 f i Bases.obj
 0001:000267c0       ??$_Guess_median_unchecked@PAPAVBase@UAlbertaBot@@P6A_NPBV12@0@Z@std@@YAXPAPAVBase@UAlbertaBot@@00P6A_NPBV12@1@Z@Z 100277c0 f i Bases.obj
 0001:00026990       ??$_Pop_heap_hole_by_index@PAPAVBase@UAlbertaBot@@PAV12@P6A_NPBV12@0@Z@std@@YAXPAPAVBase@UAlbertaBot@@HH$$QAPAV12@P6A_NPBV12@2@Z@Z 10027990 f i Bases.obj
 0001:00026a40       ??$_Buynode@ABUpiecewise_construct_t@std@@V?$tuple@$$QAVUnitType@BWAPI@@@2@V?$tuple@$$V@2@@?$_Tree_comp_alloc@V?$_Tmap_traits@VUnitType@BWAPI@@HU?$less@VUnitType@BWAPI@@@std@@V?$allocator@U?$pair@$$CBVUnitType@BWAPI@@H@std@@@4@$0A@@std@@@std@@QAEPAU?$_Tree_node@U?$pair@$$CBVUnitType@BWAPI@@H@std@@PAX@1@ABUpiecewise_construct_t@1@$$QAV?$tuple@$$QAVUnitType@BWAPI@@@1@$$QAV?$tuple@$$V@1@@Z 10027a40 f i CombatSimulation.obj
 0001:00026a40       ??$_Buynode@ABUpiecewise_construct_t@std@@V?$tuple@ABQAVUnitInterface@BWAPI@@@2@V?$tuple@$$V@2@@?$_Tree_comp_alloc@V?$_Tmap_traits@PAVUnitInterface@BWAPI@@PAV12@U?$less@PAVUnitInterface@BWAPI@@@std@@V?$allocator@U?$pair@QAVUnitInterface@BWAPI@@PAV12@@std@@@4@$0A@@std@@@std@@QAEPAU?$_Tree_node@U?$pair@QAVUnitInterface@BWAPI@@PAV12@@std@@PAX@1@ABUpiecewise_construct_t@1@$$QAV?$tuple@ABQAVUnitInterface@BWAPI@@@1@$$QAV?$tuple@$$V@1@@Z 10027a40 f i WorkerData.obj
 0001:00026a40       ??$_Buynode@ABUpiecewise_construct_t@std@@V?$tuple@ABVUnitType@BWAPI@@@2@V?$tuple@$$V@2@@?$_Tree_comp_alloc@V?$_Tmap_traits@VUnitType@BWAPI@@HU?$less@VUnitType@BWAPI@@@std@@V?$allocator@U?$pair@$$CBVUnitType@BWAPI@@H@std@@@4@$0A@@std@@@std@@QAEPAU?$_Tree_node@U?$pair@$$CBVUnitType@BWAPI@@H@std@@PAX@1@ABUpiecewise_construct_t@1@$$QAV?$tuple@ABVUnitType@BWAPI@@@1@$$QAV?$tuple@$$V@1@@Z 10027a40 f i BOSimulator.obj
 0001:00026a40       ??$_Buynode@ABUpiecewise_construct_t@std@@V?$tuple@ABQAVUnitInterface@BWAPI@@@2@V?$tuple@$$V@2@@?$_Tree_comp_alloc@V?$_Tmap_traits@PAVUnitInterface@BWAPI@@PAVBase@UAlbertaBot@@U?$less@PAVUnitInterface@BWAPI@@@std@@V?$allocator@U?$pair@QAVUnitInterface@BWAPI@@PAVBase@UAlbertaBot@@@std@@@6@$0A@@std@@@std@@QAEPAU?$_Tree_node@U?$pair@QAVUnitInterface@BWAPI@@PAVBase@UAlbertaBot@@@std@@PAX@1@ABUpiecewise_construct_t@1@$$QAV?$tuple@ABQAVUnitInterface@BWAPI@@@1@$$QAV?$tuple@$$V@1@@Z 10027a40 f i Bases.obj
 0001:00026a40       ??$_Buynode@ABUpiecewise_construct_t@std@@V?$tuple@ABQAVUnitInterface@BWAPI@@@2@V?$tuple@$$V@2@@?$_Tree_comp_alloc@V?$_Tmap_traits@PAVUnitInterface@BWAPI@@W4WorkerJob@WorkerData@UAlbertaBot@@U?$less@PAVUnitInterface@BWAPI@@@std@@V?$allocator@U?$pair@QAVUnitInterface@BWAPI@@W4WorkerJob@WorkerData@UAlbertaBot@@@std@@@7@$0A@@std@@@std@@QAEPAU?$_Tree_node@U?$pair@QAVUnitInterface@BWAPI@@W4WorkerJob@WorkerData@UAlbertaBot@@@std@@PAX@1@ABUpiecewise_construct_t@1@$$QAV?$tuple@ABQAVUnitInterface@BWAPI@@@1@$$QAV?$tuple@$$V@1@@Z 10027a40 f i WorkerData.obj
 0001:00026a40       ??$_Buynode@ABUpiecewise_construct_t@std@@V?$tuple@ABQAVUnitInterface@BWAPI@@@2@V?$tuple@$$V@2@@?$_Tree_comp_alloc@V?$_Tmap_traits@PAVUnitInterface@BWAPI@@HU?$less@PAVUnitInterface@BWAPI@@@std@@V?$allocator@U?$pair@QAVUnitInterface@BWAPI@@H@std@@@4@$0A@@std@@@std@@QAEPAU?$_Tree_node@U?$pair@QAVUnitInterface@BWAPI@@H@std@@PAX@1@ABUpiecewise_construct_t@1@$$QAV?$tuple@ABQAVUnitInterface@BWAPI@@@1@$$QAV?$tuple@$$V@1@@Z 10027a40 f i WorkerData.obj
 0001:00026a70       ??$_Insert_hint@AAU?$pair@QAVUnitInterface@BWAPI@@PAVBase@UAlbertaBot@@@std@@PAU?$_Tree_node@U?$pair@QAVUnitInterface@BWAPI@@PAVBase@UAlbertaBot@@@std@@PAX@2@@?$_Tree@V?$_Tmap_traits@PAVUnitInterface@BWAPI@@PAVBase@UAlbertaBot@@U?$less@PAVUnitInterface@BWAPI@@@std@@V?$allocator@U?$pair@QAVUnitInterface@BWAPI@@PAVBase@UAlbertaBot@@@std@@@6@$0A@@std@@@std@@IAE?AV?$_Tree_iterator@V?$_Tree_val@U?$_Tree_simple_types@U?$pair@QAVUnitInterface@BWAPI@@PAVBase@UAlbertaBot@@@std@@@std@@@std@@@1@V?$_Tree_const_iterator@V?$_Tree_val@U?$_Tree_simple_types@U?$pair@QAVUnitInterface@BWAPI@@PAVBase@UAlbertaBot@@@std@@@std@@@std@@@1@AAU?$pair@QAVUnitInterface@BWAPI@@PAVBase@UAlbertaBot@@@1@PAU?$_Tree_node@U?$pair@QAVUnitInterface@BWAPI@@PAVBase@UAlbertaBot@@@std@@PAX@1@@Z 10027a70 f i Bases.obj
 0001:00026d00       ?_Buynode0@?$_Tree_comp_alloc@V?$_Tmap_traits@PAVUnitInterface@BWAPI@@W4WorkerJob@WorkerData@UAlbertaBot@@U?$less@PAVUnitInterface@BWAPI@@@std@@V?$allocator@U?$pair@QAVUnitInterface@BWAPI@@W4WorkerJob@WorkerData@UAlbertaBot@@@std@@@7@$0A@@std@@@std@@QAEPAU?$_Tree_node@U?$pair@QAVUnitInterface@BWAPI@@W4WorkerJob@WorkerData@UAlbertaBot@@@std@@PAX@2@XZ 10027d00 f i WorkerData.obj
 0001:00026d00       ?_Buynode0@?$_Tree_comp_alloc@V?$_Tset_traits@V?$Point@H$0CA@@BWAPI@@U?$less@V?$Point@H$0CA@@BWAPI@@@std@@V?$allocator@V?$Point@H$0CA@@BWAPI@@@4@$0A@@std@@@std@@QAEPAU?$_Tree_node@V?$Point@H$0CA@@BWAPI@@PAX@2@XZ 10027d00 f i MicroOverlords.obj
 0001:00026d00       ?_Buynode0@?$_Tree_comp_alloc@V?$_Tmap_traits@PAVUnitInterface@BWAPI@@HU?$less@PAVUnitInterface@BWAPI@@@std@@V?$allocator@U?$pair@QAVUnitInterface@BWAPI@@H@std@@@4@$0A@@std@@@std@@QAEPAU?$_Tree_node@U?$pair@QAVUnitInterface@BWAPI@@H@std@@PAX@2@XZ 10027d00 f i WorkerData.obj
 0001:00026d00       ?_Buynode0@?$_Tree_comp_alloc@V?$_Tmap_traits@PAVUnitInterface@BWAPI@@_NU?$less@PAVUnitInterface@BWAPI@@@std@@V?$allocator@U?$pair@QAVUnitInterface@BWAPI@@_N@std@@@4@$0A@@std@@@std@@QAEPAU?$_Tree_node@U?$pair@QAVUnitInterface@BWAPI@@_N@std@@PAX@2@XZ 10027d00 f i Squad.obj
 0001:00026d00       ?_Buynode0@?$_Tree_comp_alloc@V?$_Tmap_traits@PAVUnitInterface@BWAPI@@PAVBase@UAlbertaBot@@U?$less@PAVUnitInterface@BWAPI@@@std@@V?$allocator@U?$pair@QAVUnitInterface@BWAPI@@PAVBase@UAlbertaBot@@@std@@@6@$0A@@std@@@std@@QAEPAU?$_Tree_node@U?$pair@QAVUnitInterface@BWAPI@@PAVBase@UAlbertaBot@@@std@@PAX@2@XZ 10027d00 f i Bases.obj
 0001:00026d00       ?_Buynode0@?$_Tree_comp_alloc@V?$_Tmap_traits@VUnitType@BWAPI@@HU?$less@VUnitType@BWAPI@@@std@@V?$allocator@U?$pair@$$CBVUnitType@BWAPI@@H@std@@@4@$0A@@std@@@std@@QAEPAU?$_Tree_node@U?$pair@$$CBVUnitType@BWAPI@@H@std@@PAX@2@XZ 10027d00 f i BOSimulator.obj
 0001:00026d00       ?_Buynode0@?$_Tree_comp_alloc@V?$_Tmap_traits@PAVUnitInterface@BWAPI@@PAV12@U?$less@PAVUnitInterface@BWAPI@@@std@@V?$allocator@U?$pair@QAVUnitInterface@BWAPI@@PAV12@@std@@@4@$0A@@std@@@std@@QAEPAU?$_Tree_node@U?$pair@QAVUnitInterface@BWAPI@@PAV12@@std@@PAX@2@XZ 10027d00 f i WorkerData.obj
 0001:00026d20       ?_Destroy_if_node@?$_Tree@V?$_Tmap_traits@PAVUnitInterface@BWAPI@@_NU?$less@PAVUnitInterface@BWAPI@@@std@@V?$allocator@U?$pair@QAVUnitInterface@BWAPI@@_N@std@@@4@$0A@@std@@@std@@IAEXPAU?$_Tree_node@U?$pair@QAVUnitInterface@BWAPI@@_N@std@@PAX@2@@Z 10027d20 f i Squad.obj
 0001:00026d20       ?_Destroy_if_node@?$_Tree@V?$_Tmap_traits@PAVUnitInterface@BWAPI@@W4WorkerJob@WorkerData@UAlbertaBot@@U?$less@PAVUnitInterface@BWAPI@@@std@@V?$allocator@U?$pair@QAVUnitInterface@BWAPI@@W4WorkerJob@WorkerData@UAlbertaBot@@@std@@@7@$0A@@std@@@std@@IAEXPAU?$_Tree_node@U?$pair@QAVUnitInterface@BWAPI@@W4WorkerJob@WorkerData@UAlbertaBot@@@std@@PAX@2@@Z 10027d20 f i WorkerData.obj
 0001:00026d20       ?_Destroy_if_node@?$_Tree@V?$_Tmap_traits@PAVUnitInterface@BWAPI@@PAV12@U?$less@PAVUnitInterface@BWAPI@@@std@@V?$allocator@U?$pair@QAVUnitInterface@BWAPI@@PAV12@@std@@@4@$0A@@std@@@std@@IAEXPAU?$_Tree_node@U?$pair@QAVUnitInterface@BWAPI@@PAV12@@std@@PAX@2@@Z 10027d20 f i WorkerData.obj
 0001:00026d20       ?_Destroy_if_node@?$_Tree@V?$_Tmap_traits@PAVUnitInterface@BWAPI@@HU?$less@PAVUnitInterface@BWAPI@@@std@@V?$allocator@U?$pair@QAVUnitInterface@BWAPI@@H@std@@@4@$0A@@std@@@std@@IAEXPAU?$_Tree_node@U?$pair@QAVUnitInterface@BWAPI@@H@std@@PAX@2@@Z 10027d20 f i WorkerData.obj
 0001:00026d20       ?_Destroy_if_node@?$_Tree@V?$_Tmap_traits@PAVUnitInterface@BWAPI@@PAVBase@UAlbertaBot@@U?$less@PAVUnitInterface@BWAPI@@@std@@V?$allocator@U?$pair@QAVUnitInterface@BWAPI@@PAVBase@UAlbertaBot@@@std@@@6@$0A@@std@@@std@@IAEXPAU?$_Tree_node@U?$pair@QAVUnitInterface@BWAPI@@PAVBase@UAlbertaBot@@@std@@PAX@2@@Z 10027d20 f i Bases.obj
 0001:00026d20       ?_Destroy_if_node@?$_Tree@V?$_Tmap_traits@VUnitType@BWAPI@@HU?$less@VUnitType@BWAPI@@@std@@V?$allocator@U?$pair@$$CBVUnitType@BWAPI@@H@std@@@4@$0A@@std@@@std@@IAEXPAU?$_Tree_node@U?$pair@$$CBVUnitType@BWAPI@@H@std@@PAX@2@@Z 10027d20 f i BOSimulator.obj
 0001:00026d40       ??$_Insert_at@AAU?$pair@QAVUnitInterface@BWAPI@@PAVBase@UAlbertaBot@@@std@@PAU?$_Tree_node@U?$pair@QAVUnitInterface@BWAPI@@PAVBase@UAlbertaBot@@@std@@PAX@2@@?$_Tree@V?$_Tmap_traits@PAVUnitInterface@BWAPI@@PAVBase@UAlbertaBot@@U?$less@PAVUnitInterface@BWAPI@@@std@@V?$allocator@U?$pair@QAVUnitInterface@BWAPI@@PAVBase@UAlbertaBot@@@std@@@6@$0A@@std@@@std@@IAE?AV?$_Tree_iterator@V?$_Tree_val@U?$_Tree_simple_types@U?$pair@QAVUnitInterface@BWAPI@@PAVBase@UAlbertaBot@@@std@@@std@@@std@@@1@_NPAU?$_Tree_node@U?$pair@QAVUnitInterface@BWAPI@@PAVBase@UAlbertaBot@@@std@@PAX@1@AAU?$pair@QAVUnitInterface@BWAPI@@PAVBase@UAlbertaBot@@@1@1@Z 10027d40 f i Bases.obj
 0001:00026ea0       ??$_Insert_nohint@AAU?$pair@QAVUnitInterface@BWAPI@@PAVBase@UAlbertaBot@@@std@@PAU?$_Tree_node@U?$pair@QAVUnitInterface@BWAPI@@PAVBase@UAlbertaBot@@@std@@PAX@2@@?$_Tree@V?$_Tmap_traits@PAVUnitInterface@BWAPI@@PAVBase@UAlbertaBot@@U?$less@PAVUnitInterface@BWAPI@@@std@@V?$allocator@U?$pair@QAVUnitInterface@BWAPI@@PAVBase@UAlbertaBot@@@std@@@6@$0A@@std@@@std@@IAE?AU?$pair@V?$_Tree_iterator@V?$_Tree_val@U?$_Tree_simple_types@U?$pair@QAVUnitInterface@BWAPI@@PAVBase@UAlbertaBot@@@std@@@std@@@std@@@std@@_N@1@_NAAU?$pair@QAVUnitInterface@BWAPI@@PAVBase@UAlbertaBot@@@1@PAU?$_Tree_node@U?$pair@QAVUnitInterface@BWAPI@@PAVBase@UAlbertaBot@@@std@@PAX@1@@Z 10027ea0 f i Bases.obj
 0001:00027010       ??A?$map@VUnitType@BWAPI@@HU?$less@VUnitType@BWAPI@@@std@@V?$allocator@U?$pair@$$CBVUnitType@BWAPI@@H@std@@@4@@std@@QAEAAH$$QAVUnitType@BWAPI@@@Z 10028010 f i CombatSimulation.obj
 0001:00027010       ??A?$map@VUnitType@BWAPI@@HU?$less@VUnitType@BWAPI@@@std@@V?$allocator@U?$pair@$$CBVUnitType@BWAPI@@H@std@@@4@@std@@QAEAAHABVUnitType@BWAPI@@@Z 10028010 f i BOSimulator.obj
 0001:00027080       ??$emplace_hint@ABUpiecewise_construct_t@std@@V?$tuple@ABVUnitType@BWAPI@@@2@V?$tuple@$$V@2@@?$_Tree@V?$_Tmap_traits@VUnitType@BWAPI@@HU?$less@VUnitType@BWAPI@@@std@@V?$allocator@U?$pair@$$CBVUnitType@BWAPI@@H@std@@@4@$0A@@std@@@std@@QAE?AV?$_Tree_iterator@V?$_Tree_val@U?$_Tree_simple_types@U?$pair@$$CBVUnitType@BWAPI@@H@std@@@std@@@std@@@1@V?$_Tree_const_iterator@V?$_Tree_val@U?$_Tree_simple_types@U?$pair@$$CBVUnitType@BWAPI@@H@std@@@std@@@std@@@1@ABUpiecewise_construct_t@1@$$QAV?$tuple@ABVUnitType@BWAPI@@@1@$$QAV?$tuple@$$V@1@@Z 10028080 f i BOSimulator.obj
 0001:000270b0       ??$_Insert_hint@AAU?$pair@$$CBVUnitType@BWAPI@@H@std@@PAU?$_Tree_node@U?$pair@$$CBVUnitType@BWAPI@@H@std@@PAX@2@@?$_Tree@V?$_Tmap_traits@VUnitType@BWAPI@@HU?$less@VUnitType@BWAPI@@@std@@V?$allocator@U?$pair@$$CBVUnitType@BWAPI@@H@std@@@4@$0A@@std@@@std@@IAE?AV?$_Tree_iterator@V?$_Tree_val@U?$_Tree_simple_types@U?$pair@$$CBVUnitType@BWAPI@@H@std@@@std@@@std@@@1@V?$_Tree_const_iterator@V?$_Tree_val@U?$_Tree_simple_types@U?$pair@$$CBVUnitType@BWAPI@@H@std@@@std@@@std@@@1@AAU?$pair@$$CBVUnitType@BWAPI@@H@1@PAU?$_Tree_node@U?$pair@$$CBVUnitType@BWAPI@@H@std@@PAX@1@@Z 100280b0 f i BOSimulator.obj
 0001:00027310       ??$_Insert_at@AAU?$pair@QAVUnitInterface@BWAPI@@_N@std@@PAU?$_Tree_node@U?$pair@QAVUnitInterface@BWAPI@@_N@std@@PAX@2@@?$_Tree@V?$_Tmap_traits@PAVUnitInterface@BWAPI@@_NU?$less@PAVUnitInterface@BWAPI@@@std@@V?$allocator@U?$pair@QAVUnitInterface@BWAPI@@_N@std@@@4@$0A@@std@@@std@@IAE?AV?$_Tree_iterator@V?$_Tree_val@U?$_Tree_simple_types@U?$pair@QAVUnitInterface@BWAPI@@_N@std@@@std@@@std@@@1@_NPAU?$_Tree_node@U?$pair@QAVUnitInterface@BWAPI@@_N@std@@PAX@1@AAU?$pair@QAVUnitInterface@BWAPI@@_N@1@1@Z 10028310 f i Squad.obj
 0001:00027310       ??$_Insert_at@AAU?$pair@QAVUnitInterface@BWAPI@@H@std@@PAU?$_Tree_node@U?$pair@QAVUnitInterface@BWAPI@@H@std@@PAX@2@@?$_Tree@V?$_Tmap_traits@PAVUnitInterface@BWAPI@@HU?$less@PAVUnitInterface@BWAPI@@@std@@V?$allocator@U?$pair@QAVUnitInterface@BWAPI@@H@std@@@4@$0A@@std@@@std@@IAE?AV?$_Tree_iterator@V?$_Tree_val@U?$_Tree_simple_types@U?$pair@QAVUnitInterface@BWAPI@@H@std@@@std@@@std@@@1@_NPAU?$_Tree_node@U?$pair@QAVUnitInterface@BWAPI@@H@std@@PAX@1@AAU?$pair@QAVUnitInterface@BWAPI@@H@1@1@Z 10028310 f i WorkerData.obj
 0001:00027310       ??$_Insert_at@AAU?$pair@$$CBVUnitType@BWAPI@@H@std@@PAU?$_Tree_node@U?$pair@$$CBVUnitType@BWAPI@@H@std@@PAX@2@@?$_Tree@V?$_Tmap_traits@VUnitType@BWAPI@@HU?$less@VUnitType@BWAPI@@@std@@V?$allocator@U?$pair@$$CBVUnitType@BWAPI@@H@std@@@4@$0A@@std@@@std@@IAE?AV?$_Tree_iterator@V?$_Tree_val@U?$_Tree_simple_types@U?$pair@$$CBVUnitType@BWAPI@@H@std@@@std@@@std@@@1@_NPAU?$_Tree_node@U?$pair@$$CBVUnitType@BWAPI@@H@std@@PAX@1@AAU?$pair@$$CBVUnitType@BWAPI@@H@1@1@Z 10028310 f i BOSimulator.obj
 0001:00027310       ??$_Insert_at@AAU?$pair@QAVUnitInterface@BWAPI@@W4WorkerJob@WorkerData@UAlbertaBot@@@std@@PAU?$_Tree_node@U?$pair@QAVUnitInterface@BWAPI@@W4WorkerJob@WorkerData@UAlbertaBot@@@std@@PAX@2@@?$_Tree@V?$_Tmap_traits@PAVUnitInterface@BWAPI@@W4WorkerJob@WorkerData@UAlbertaBot@@U?$less@PAVUnitInterface@BWAPI@@@std@@V?$allocator@U?$pair@QAVUnitInterface@BWAPI@@W4WorkerJob@WorkerData@UAlbertaBot@@@std@@@7@$0A@@std@@@std@@IAE?AV?$_Tree_iterator@V?$_Tree_val@U?$_Tree_simple_types@U?$pair@QAVUnitInterface@BWAPI@@W4WorkerJob@WorkerData@UAlbertaBot@@@std@@@std@@@std@@@1@_NPAU?$_Tree_node@U?$pair@QAVUnitInterface@BWAPI@@W4WorkerJob@WorkerData@UAlbertaBot@@@std@@PAX@1@AAU?$pair@QAVUnitInterface@BWAPI@@W4WorkerJob@WorkerData@UAlbertaBot@@@1@1@Z 10028310 f i WorkerData.obj
 0001:00027310       ??$_Insert_at@AAU?$pair@QAVUnitInterface@BWAPI@@PAV12@@std@@PAU?$_Tree_node@U?$pair@QAVUnitInterface@BWAPI@@PAV12@@std@@PAX@2@@?$_Tree@V?$_Tmap_traits@PAVUnitInterface@BWAPI@@PAV12@U?$less@PAVUnitInterface@BWAPI@@@std@@V?$allocator@U?$pair@QAVUnitInterface@BWAPI@@PAV12@@std@@@4@$0A@@std@@@std@@IAE?AV?$_Tree_iterator@V?$_Tree_val@U?$_Tree_simple_types@U?$pair@QAVUnitInterface@BWAPI@@PAV12@@std@@@std@@@std@@@1@_NPAU?$_Tree_node@U?$pair@QAVUnitInterface@BWAPI@@PAV12@@std@@PAX@1@AAU?$pair@QAVUnitInterface@BWAPI@@PAV12@@1@1@Z 10028310 f i WorkerData.obj
 0001:00027540       ??$_Insert_nohint@AAU?$pair@$$CBVUnitType@BWAPI@@H@std@@PAU?$_Tree_node@U?$pair@$$CBVUnitType@BWAPI@@H@std@@PAX@2@@?$_Tree@V?$_Tmap_traits@VUnitType@BWAPI@@HU?$less@VUnitType@BWAPI@@@std@@V?$allocator@U?$pair@$$CBVUnitType@BWAPI@@H@std@@@4@$0A@@std@@@std@@IAE?AU?$pair@V?$_Tree_iterator@V?$_Tree_val@U?$_Tree_simple_types@U?$pair@$$CBVUnitType@BWAPI@@H@std@@@std@@@std@@@std@@_N@1@_NAAU?$pair@$$CBVUnitType@BWAPI@@H@1@PAU?$_Tree_node@U?$pair@$$CBVUnitType@BWAPI@@H@std@@PAX@1@@Z 10028540 f i BOSimulator.obj
 0001:000276b0       ??0Building@UAlbertaBot@@QAE@VUnitType@BWAPI@@V?$Point@H$0CA@@3@@Z 100286b0 f i BuildingManager.obj
 0001:00027720       ?update@BuildingManager@UAlbertaBot@@QAEXXZ 10028720 f   BuildingManager.obj
 0001:00027880       ?validateBuildings@BuildingManager@UAlbertaBot@@AAEXXZ 10028880 f   BuildingManager.obj
 0001:000279e0       ?assignWorkersToUnassignedBuildings@BuildingManager@UAlbertaBot@@AAEXXZ 100289e0 f   BuildingManager.obj
 0001:00027b70       ?constructAssignedBuildings@BuildingManager@UAlbertaBot@@AAEXXZ 10028b70 f   BuildingManager.obj
 0001:00028110       ?checkForStartedConstruction@BuildingManager@UAlbertaBot@@AAEXXZ 10029110 f   BuildingManager.obj
 0001:000282c0       ?checkForCompletedBuildings@BuildingManager@UAlbertaBot@@AAEXXZ 100292c0 f   BuildingManager.obj
 0001:00028580       ?clearAbandonedTerranBuildings@BuildingManager@UAlbertaBot@@AAEXXZ 10029580 f   BuildingManager.obj
 0001:000287d0       ?addBuildingTask@BuildingManager@UAlbertaBot@@QAEXABVMacroAct@2@V?$Point@H$0CA@@BWAPI@@PAVUnitInterface@5@_N@Z 100297d0 f   BuildingManager.obj
 0001:000288e0       ?validBuilder@BuildingManager@UAlbertaBot@@ABE_NPAVUnitInterface@BWAPI@@@Z 100298e0 f   BuildingManager.obj
 0001:00028990       ?isBeingBuilt@BuildingManager@UAlbertaBot@@QBE_NVUnitType@BWAPI@@@Z 10029990 f   BuildingManager.obj
 0001:000289c0       ?Instance@BuildingManager@UAlbertaBot@@SAAAV12@XZ 100299c0 f   BuildingManager.obj
 0001:00028a30       ?getBuildingLocation@BuildingManager@UAlbertaBot@@QAE?AV?$Point@H$0CA@@BWAPI@@ABVBuilding@2@@Z 10029a30 f   BuildingManager.obj
 0001:00028be0       ?undoBuildings@BuildingManager@UAlbertaBot@@AAEXABV?$vector@V?$reference_wrapper@VBuilding@UAlbertaBot@@@std@@V?$allocator@V?$reference_wrapper@VBuilding@UAlbertaBot@@@std@@@2@@std@@@Z 10029be0 f   BuildingManager.obj
 0001:00028e30       ?removeBuildings@BuildingManager@UAlbertaBot@@AAEXABV?$vector@V?$reference_wrapper@VBuilding@UAlbertaBot@@@std@@V?$allocator@V?$reference_wrapper@VBuilding@UAlbertaBot@@@std@@@2@@std@@@Z 10029e30 f   BuildingManager.obj
 0001:00028ec0       ?typeIsStalled@BuildingManager@UAlbertaBot@@QBE_NVUnitType@BWAPI@@@Z 10029ec0 f   BuildingManager.obj
 0001:00028ef0       ??$_Emplace_reallocate@V?$reference_wrapper@VBuilding@UAlbertaBot@@@std@@@?$vector@V?$reference_wrapper@VBuilding@UAlbertaBot@@@std@@V?$allocator@V?$reference_wrapper@VBuilding@UAlbertaBot@@@std@@@2@@std@@QAEPAV?$reference_wrapper@VBuilding@UAlbertaBot@@@1@QAV21@$$QAV21@@Z 10029ef0 f i BuildingManager.obj
 0001:00028ef0       ??$_Emplace_reallocate@ABVUnitType@BWAPI@@@?$vector@VUnitType@BWAPI@@V?$allocator@VUnitType@BWAPI@@@std@@@std@@QAEPAVUnitType@BWAPI@@QAV23@ABV23@@Z 10029ef0 f i BuildingManager.obj
 0001:000290c0       ??$_Emplace_reallocate@ABVBuilding@UAlbertaBot@@@?$vector@VBuilding@UAlbertaBot@@V?$allocator@VBuilding@UAlbertaBot@@@std@@@std@@QAEPAVBuilding@UAlbertaBot@@QAV23@ABV23@@Z 1002a0c0 f i BuildingManager.obj
 0001:00029290       ?_Umove@?$vector@VBuilding@UAlbertaBot@@V?$allocator@VBuilding@UAlbertaBot@@@std@@@std@@AAEPAVBuilding@UAlbertaBot@@PAV34@00@Z 1002a290 f i BuildingManager.obj
 0001:000292d0       ?reserveSpaceNearResources@BuildingPlacer@UAlbertaBot@@AAEXXZ 1002a2d0 f   BuildingPlacer.obj
 0001:00029480       ?setReserve@BuildingPlacer@UAlbertaBot@@AAEXABV?$Point@H$0CA@@BWAPI@@HH_N@Z 1002a480 f   BuildingPlacer.obj
 0001:00029530       ?isFreeTile@BuildingPlacer@UAlbertaBot@@ABE_NHH@Z 1002a530 f   BuildingPlacer.obj
 0001:000296c0       ?canBuildHere@BuildingPlacer@UAlbertaBot@@ABE_NABV?$Point@H$0CA@@BWAPI@@ABVBuilding@2@@Z 1002a6c0 f   BuildingPlacer.obj
 0001:00029750       ?canBuildWithSpace@BuildingPlacer@UAlbertaBot@@ABE_NABV?$Point@H$0CA@@BWAPI@@ABVBuilding@2@H@Z 1002a750 f   BuildingPlacer.obj
 0001:000298b0       ?findAnyLocation@BuildingPlacer@UAlbertaBot@@ABE?AV?$Point@H$0CA@@BWAPI@@ABVBuilding@2@H@Z 1002a8b0 f   BuildingPlacer.obj
 0001:00029950       ?getBuildLocationNear@BuildingPlacer@UAlbertaBot@@QBE?AV?$Point@H$0CA@@BWAPI@@ABVBuilding@2@H@Z 1002a950 f   BuildingPlacer.obj
 0001:00029a20       ?buildingOK@BuildingPlacer@UAlbertaBot@@QBE_NABVBuilding@2@ABV?$Point@H$0CA@@BWAPI@@@Z 1002aa20 f   BuildingPlacer.obj
 0001:00029a50       ?getMacroLocationTile@BuildingPlacer@UAlbertaBot@@QBE?AV?$Point@H$0CA@@BWAPI@@W4MacroLocation@2@@Z 1002aa50 f   BuildingPlacer.obj
 0001:00029e30       ?getRefineryPosition@BuildingPlacer@UAlbertaBot@@QBE?AV?$Point@H$0CA@@BWAPI@@V34@@Z 1002ae30 f   BuildingPlacer.obj
 0001:0002a0a0       ?getInBaseProxyPosition@BuildingPlacer@UAlbertaBot@@QBE?AV?$Point@H$0CA@@BWAPI@@PBVBase@2@@Z 1002b0a0 f   BuildingPlacer.obj
 0001:0002a300       ??0?$vector@V?$vector@_NV?$allocator@_N@std@@@std@@V?$allocator@V?$vector@_NV?$allocator@_N@std@@@std@@@2@@std@@QAE@IABV?$vector@_NV?$allocator@_N@std@@@1@ABV?$allocator@V?$vector@_NV?$allocator@_N@std@@@std@@@1@@Z 1002b300 f i BuildingPlacer.obj
 0001:0002a420       ??0?$vector@_NV?$allocator@_N@std@@@std@@QAE@IAB_NABV?$allocator@_N@1@@Z 1002b420 f i BuildingPlacer.obj
 0001:0002a4d0       ??0?$vector@IV?$allocator@I@std@@@std@@QAE@IABIABV?$allocator@I@1@@Z 1002b4d0 f i BuildingPlacer.obj
 0001:0002a4d0       ??0?$vector@HV?$allocator@H@std@@@std@@QAE@IABHABV?$allocator@H@1@@Z 1002b4d0 f i UnitData.obj
 0001:0002a520       ?_Xlen@?$vector@_NV?$allocator@_N@std@@@std@@QBEXXZ 1002b520 f i BuildingPlacer.obj
 0001:0002a530       ?_Buy@?$vector@IV?$allocator@I@std@@@std@@AAE_NI@Z 1002b530 f i BuildingPlacer.obj
 0001:0002a530       ?_Buy@?$vector@HV?$allocator@H@std@@@std@@AAE_NI@Z 1002b530 f i GameRecord.obj
 0001:0002a5f0       ??$?WV?$UnaryFilter@PAVUnitInterface@BWAPI@@V?$function@$$A6A_NPAVUnitInterface@BWAPI@@@Z@std@@@BWAPI@@@?$UnaryFilter@PAVUnitInterface@BWAPI@@V?$function@$$A6A_NPAVUnitInterface@BWAPI@@@Z@std@@@BWAPI@@QBE?AV01@ABV01@@Z 1002b5f0 f i BuildingPlacer.obj
 0001:0002a700       ??1?$_Uninitialized_backout_al@PAV?$vector@_NV?$allocator@_N@std@@@std@@V?$allocator@V?$vector@_NV?$allocator@_N@std@@@std@@@2@@std@@QAE@XZ 1002b700 f i BuildingPlacer.obj
 0001:0002a730       ?_Target_type@?$_Func_impl_no_alloc@V<lambda_a75142be93029274f5333ecd96084427>@@_NPAVUnitInterface@BWAPI@@@std@@EBEABVtype_info@@XZ 1002b730 f i BuildingPlacer.obj
 0001:0002a740       ?_Move@?$_Func_impl_no_alloc@V<lambda_a75142be93029274f5333ecd96084427>@@_NPAVUnitInterface@BWAPI@@@std@@EAEPAV?$_Func_base@_NPAVUnitInterface@BWAPI@@@2@PAX@Z 1002b740 f i BuildingPlacer.obj
 0001:0002a7b0       ?_Copy@?$_Func_impl_no_alloc@V<lambda_a75142be93029274f5333ecd96084427>@@_NPAVUnitInterface@BWAPI@@@std@@EBEPAV?$_Func_base@_NPAVUnitInterface@BWAPI@@@2@PAX@Z 1002b7b0 f i BuildingPlacer.obj
 0001:0002a7c0       ??0?$vector@IV?$allocator@I@std@@@std@@QAE@ABV01@@Z 1002b7c0 f i BuildingPlacer.obj
 0001:0002a820       ?_Do_call@?$_Func_impl_no_alloc@V<lambda_a75142be93029274f5333ecd96084427>@@_NPAVUnitInterface@BWAPI@@@std@@EAE_N$$QAPAVUnitInterface@BWAPI@@@Z 1002b820 f i BuildingPlacer.obj
 0001:0002a880       ??$_Global_new@V?$_Func_impl_no_alloc@V<lambda_a75142be93029274f5333ecd96084427>@@_NPAVUnitInterface@BWAPI@@@std@@ABV<lambda_a75142be93029274f5333ecd96084427>@@@std@@YAPAV?$_Func_impl_no_alloc@V<lambda_a75142be93029274f5333ecd96084427>@@_NPAVUnitInterface@BWAPI@@@0@ABV<lambda_a75142be93029274f5333ecd96084427>@@@Z 1002b880 f i BuildingPlacer.obj
 0001:0002a880       ??$_Global_new@V?$_Func_impl_no_alloc@V<lambda_a75142be93029274f5333ecd96084427>@@_NPAVUnitInterface@BWAPI@@@std@@V<lambda_a75142be93029274f5333ecd96084427>@@@std@@YAPAV?$_Func_impl_no_alloc@V<lambda_a75142be93029274f5333ecd96084427>@@_NPAVUnitInterface@BWAPI@@@0@$$QAV<lambda_a75142be93029274f5333ecd96084427>@@@Z 1002b880 f i BuildingPlacer.obj
 0001:0002a920       ??1?$vector@VMacroAct@UAlbertaBot@@V?$allocator@VMacroAct@UAlbertaBot@@@std@@@std@@QAE@XZ 1002b920 f i BuildOrder.obj
 0001:0002a930       ??0?$vector@VMacroAct@UAlbertaBot@@V?$allocator@VMacroAct@UAlbertaBot@@@std@@@std@@QAE@ABV01@@Z 1002b930 f i BuildOrder.obj
 0001:0002a990       ?_Tidy@?$vector@VMacroAct@UAlbertaBot@@V?$allocator@VMacroAct@UAlbertaBot@@@std@@@std@@AAEXXZ 1002b990 f i BuildOrder.obj
 0001:0002aa10       ?_Buy@?$vector@VMacroAct@UAlbertaBot@@V?$allocator@VMacroAct@UAlbertaBot@@@std@@@std@@AAE_NI@Z 1002ba10 f i BuildOrder.obj
 0001:0002aae0       ??$_Emplace_reallocate@ABVMacroAct@UAlbertaBot@@@?$vector@VMacroAct@UAlbertaBot@@V?$allocator@VMacroAct@UAlbertaBot@@@std@@@std@@QAEPAVMacroAct@UAlbertaBot@@QAV23@ABV23@@Z 1002bae0 f i BuildOrder.obj
 0001:0002ace0       ?_Umove@?$vector@VMacroAct@UAlbertaBot@@V?$allocator@VMacroAct@UAlbertaBot@@@std@@@std@@AAEPAVMacroAct@UAlbertaBot@@PAV34@00@Z 1002bce0 f i BuildOrder.obj
 0001:0002ace0       ??$_Ucopy@PAVMacroAct@UAlbertaBot@@@?$vector@VMacroAct@UAlbertaBot@@V?$allocator@VMacroAct@UAlbertaBot@@@std@@@std@@AAEPAVMacroAct@UAlbertaBot@@PAV23@00@Z 1002bce0 f i BuildOrder.obj
 0001:0002ad20       ?queueAsHighestPriority@BuildOrderQueue@UAlbertaBot@@QAEXVMacroAct@2@_N@Z 1002bd20 f   BuildOrderQueue.obj
 0001:0002add0       ?pullToTop@BuildOrderQueue@UAlbertaBot@@QAEXI@Z 1002bdd0 f   BuildOrderQueue.obj
 0001:0002af00       ?getHighestPriorityItem@BuildOrderQueue@UAlbertaBot@@QBEABUBuildOrderItem@2@XZ 1002bf00 f   BuildOrderQueue.obj
 0001:0002af70       ??_D?$basic_stringstream@DU?$char_traits@D@std@@V?$allocator@D@2@@std@@QAEXXZ 1002bf70 f i BuildOrderQueue.obj
 0001:0002afc0       ?str@?$basic_stringstream@DU?$char_traits@D@std@@V?$allocator@D@2@@std@@QBE?AV?$basic_string@DU?$char_traits@D@std@@V?$allocator@D@2@@2@XZ 1002bfc0 f i BuildOrderQueue.obj
 0001:0002afe0       ??0?$basic_stringstream@DU?$char_traits@D@std@@V?$allocator@D@2@@std@@QAE@H@Z 1002bfe0 f i BuildOrderQueue.obj
 0001:0002b0a0       ?seekpos@?$basic_stringbuf@DU?$char_traits@D@std@@V?$allocator@D@2@@std@@MAE?AV?$fpos@U_Mbstatet@@@2@V32@H@Z 1002c0a0 f i BuildOrderQueue.obj
 0001:0002b1a0       ?seekoff@?$basic_stringbuf@DU?$char_traits@D@std@@V?$allocator@D@2@@std@@MAE?AV?$fpos@U_Mbstatet@@@2@_JHH@Z 1002c1a0 f i BuildOrderQueue.obj
 0001:0002b310       ?underflow@?$basic_stringbuf@DU?$char_traits@D@std@@V?$allocator@D@2@@std@@MAEHXZ 1002c310 f i BuildOrderQueue.obj
 0001:0002b370       ?pbackfail@?$basic_stringbuf@DU?$char_traits@D@std@@V?$allocator@D@2@@std@@MAEHH@Z 1002c370 f i BuildOrderQueue.obj
 0001:0002b3d0       ?overflow@?$basic_stringbuf@DU?$char_traits@D@std@@V?$allocator@D@2@@std@@MAEHH@Z 1002c3d0 f i BuildOrderQueue.obj
 0001:0002b580       ??_E?$basic_stringstream@DU?$char_traits@D@std@@V?$allocator@D@2@@std@@UAEPAXI@Z 1002c580 f i * CIL library *:* CIL module *
 0001:0002b580       ??_G?$basic_stringstream@DU?$char_traits@D@std@@V?$allocator@D@2@@std@@UAEPAXI@Z 1002c580 f i BuildOrderQueue.obj
 0001:0002b5f0       ??_G?$basic_stringbuf@DU?$char_traits@D@std@@V?$allocator@D@2@@std@@UAEPAXI@Z 1002c5f0 f i BuildOrderQueue.obj
 0001:0002b5f0       ??_E?$basic_stringbuf@DU?$char_traits@D@std@@V?$allocator@D@2@@std@@UAEPAXI@Z 1002c5f0 f i * CIL library *:* CIL module *
 0001:0002b630       ?_Tidy@?$deque@UBuildOrderItem@UAlbertaBot@@V?$allocator@UBuildOrderItem@UAlbertaBot@@@std@@@std@@IAEXXZ 1002c630 f i BuildOrderQueue.obj
 0001:0002b6d0       ?_Growmap@?$deque@UBuildOrderItem@UAlbertaBot@@V?$allocator@UBuildOrderItem@UAlbertaBot@@@std@@@std@@IAEXI@Z 1002c6d0 f i BuildOrderQueue.obj
 0001:0002b8a0       ?erase@?$deque@UBuildOrderItem@UAlbertaBot@@V?$allocator@UBuildOrderItem@UAlbertaBot@@@std@@@std@@QAE?AV?$_Deque_iterator@V?$_Deque_val@U?$_Deque_simple_types@UBuildOrderItem@UAlbertaBot@@@std@@@std@@@2@V?$_Deque_const_iterator@V?$_Deque_val@U?$_Deque_simple_types@UBuildOrderItem@UAlbertaBot@@@std@@@std@@@2@0@Z 1002c8a0 f i BuildOrderQueue.obj
 0001:0002bac0       ??1sentry@?$basic_ostream@DU?$char_traits@D@std@@@std@@QAE@XZ 1002cac0 f i BuildOrderQueue.obj
 0001:0002bb30       ?_Tidy@?$basic_stringbuf@DU?$char_traits@D@std@@V?$allocator@D@2@@std@@IAEXXZ 1002cb30 f i BuildOrderQueue.obj
 0001:0002bbd0       ?str@?$basic_stringbuf@DU?$char_traits@D@std@@V?$allocator@D@2@@std@@QBE?AV?$basic_string@DU?$char_traits@D@std@@V?$allocator@D@2@@2@XZ 1002cbd0 f i BuildOrderQueue.obj
 0001:0002bc80       ?_Xlen@?$deque@UBuildOrderItem@UAlbertaBot@@V?$allocator@UBuildOrderItem@UAlbertaBot@@@std@@@std@@IBEXXZ 1002cc80 f i BuildOrderQueue.obj
 0001:0002bc90       ??1_Sentry_base@?$basic_istream@DU?$char_traits@D@std@@@std@@QAE@XZ 1002cc90 f i GameRecord.obj
 0001:0002bc90       ??1_Sentry_base@?$basic_ostream@DU?$char_traits@D@std@@@std@@QAE@XZ 1002cc90 f i BuildOrderQueue.obj
 0001:0002bce0       ??$?6U?$char_traits@D@std@@@std@@YAAAV?$basic_ostream@DU?$char_traits@D@std@@@0@AAV10@PBD@Z 1002cce0 f i BuildOrderQueue.obj
 0001:0002bf20       ??$?6U?$char_traits@D@std@@@std@@YAAAV?$basic_ostream@DU?$char_traits@D@std@@@0@AAV10@D@Z 1002cf20 f i BuildOrderQueue.obj
 0001:0002c129       ??_E?$basic_stringstream@DU?$char_traits@D@std@@V?$allocator@D@2@@std@@$4PPPPPPPM@A@AEPAXI@Z 1002d129 f i BuildOrderQueue.obj
 0001:0002c140       ?analyzeForEnemies@CombatSimulation@UAlbertaBot@@ABE?AW4CombatSimEnemies@2@ABVUnitset@BWAPI@@@Z 1002d140 f   CombatSimulation.obj
 0001:0002c2f0       ?includeEnemy@CombatSimulation@UAlbertaBot@@ABE_NW4CombatSimEnemies@2@VUnitType@BWAPI@@@Z 1002d2f0 f   CombatSimulation.obj
 0001:0002c3a0       ?getClosestEnemyCombatUnit@CombatSimulation@UAlbertaBot@@ABE?AV?$Point@H$00@BWAPI@@ABV34@H@Z 1002d3a0 f   CombatSimulation.obj
 0001:0002c530       ?setCombatUnits@CombatSimulation@UAlbertaBot@@QAEXABVUnitset@BWAPI@@ABV?$Point@H$00@4@H_N@Z 1002d530 f   CombatSimulation.obj
 0001:0002d0d0       ?_Tidy@?$vector@VTimer@BOSS@@V?$allocator@VTimer@BOSS@@@std@@@std@@AAEXXZ 1002e0d0 f i GameCommander.obj
 0001:0002d0d0       ??1?$vector@UUnitInfo@UAlbertaBot@@V?$allocator@UUnitInfo@UAlbertaBot@@@std@@@std@@QAE@XZ 1002e0d0 f i CombatSimulation.obj
 0001:0002d140       ??$_Copy@U_Copy_tag@?$_Tree@V?$_Tmap_traits@VUnitType@BWAPI@@HU?$less@VUnitType@BWAPI@@@std@@V?$allocator@U?$pair@$$CBVUnitType@BWAPI@@H@std@@@4@$0A@@std@@@std@@@?$_Tree@V?$_Tmap_traits@VUnitType@BWAPI@@HU?$less@VUnitType@BWAPI@@@std@@V?$allocator@U?$pair@$$CBVUnitType@BWAPI@@H@std@@@4@$0A@@std@@@std@@IAEXABV01@U_Copy_tag@01@@Z 1002e140 f i CombatSimulation.obj
 0001:0002d1c0       ??$_Copy_nodes@U_Copy_tag@?$_Tree@V?$_Tmap_traits@PAVUnitInterface@BWAPI@@_NU?$less@PAVUnitInterface@BWAPI@@@std@@V?$allocator@U?$pair@QAVUnitInterface@BWAPI@@_N@std@@@4@$0A@@std@@@std@@@?$_Tree@V?$_Tmap_traits@PAVUnitInterface@BWAPI@@_NU?$less@PAVUnitInterface@BWAPI@@@std@@V?$allocator@U?$pair@QAVUnitInterface@BWAPI@@_N@std@@@4@$0A@@std@@@std@@IAEPAU?$_Tree_node@U?$pair@QAVUnitInterface@BWAPI@@_N@std@@PAX@1@PAU21@0U_Copy_tag@01@@Z 1002e1c0 f i SquadData.obj
 0001:0002d1c0       ??$_Copy_nodes@U_Copy_tag@?$_Tree@V?$_Tmap_traits@VUnitType@BWAPI@@HU?$less@VUnitType@BWAPI@@@std@@V?$allocator@U?$pair@$$CBVUnitType@BWAPI@@H@std@@@4@$0A@@std@@@std@@@?$_Tree@V?$_Tmap_traits@VUnitType@BWAPI@@HU?$less@VUnitType@BWAPI@@@std@@V?$allocator@U?$pair@$$CBVUnitType@BWAPI@@H@std@@@4@$0A@@std@@@std@@IAEPAU?$_Tree_node@U?$pair@$$CBVUnitType@BWAPI@@H@std@@PAX@1@PAU21@0U_Copy_tag@01@@Z 1002e1c0 f i CombatSimulation.obj
 0001:0002d280       ??$_Buynode@AAU?$pair@$$CBVUnitType@BWAPI@@H@std@@@?$_Tree_comp_alloc@V?$_Tmap_traits@VUnitType@BWAPI@@HU?$less@VUnitType@BWAPI@@@std@@V?$allocator@U?$pair@$$CBVUnitType@BWAPI@@H@std@@@4@$0A@@std@@@std@@QAEPAU?$_Tree_node@U?$pair@$$CBVUnitType@BWAPI@@H@std@@PAX@1@AAU?$pair@$$CBVUnitType@BWAPI@@H@1@@Z 1002e280 f i CombatSimulation.obj
 0001:0002d280       ??$_Buynode@ABV?$Point@H$0CA@@BWAPI@@@?$_Tree_comp_alloc@V?$_Tset_traits@V?$Point@H$0CA@@BWAPI@@U?$less@V?$Point@H$0CA@@BWAPI@@@std@@V?$allocator@V?$Point@H$0CA@@BWAPI@@@4@$0A@@std@@@std@@QAEPAU?$_Tree_node@V?$Point@H$0CA@@BWAPI@@PAX@1@ABV?$Point@H$0CA@@BWAPI@@@Z 1002e280 f i MicroOverlords.obj
 0001:0002d280       ??$_Buynode@AAU?$pair@QAVUnitInterface@BWAPI@@_N@std@@@?$_Tree_comp_alloc@V?$_Tmap_traits@PAVUnitInterface@BWAPI@@_NU?$less@PAVUnitInterface@BWAPI@@@std@@V?$allocator@U?$pair@QAVUnitInterface@BWAPI@@_N@std@@@4@$0A@@std@@@std@@QAEPAU?$_Tree_node@U?$pair@QAVUnitInterface@BWAPI@@_N@std@@PAX@1@AAU?$pair@QAVUnitInterface@BWAPI@@_N@1@@Z 1002e280 f i SquadData.obj
 0001:0002d2a0       ??1?$pair@W4LurkerTactic@UAlbertaBot@@V?$basic_string@DU?$char_traits@D@std@@V?$allocator@D@2@@std@@@std@@QAE@XZ 1002e2a0 f i CombatCommander.obj
 0001:0002d2f0       ?enemyRace@The@UAlbertaBot@@QBE?AVRace@BWAPI@@XZ 1002e2f0 f i CombatCommander.obj
 0001:0002d320       ??1SquadData@UAlbertaBot@@QAE@XZ 1002e320 f i CombatCommander.obj
 0001:0002d360       ?update@CombatCommander@UAlbertaBot@@QAEXABVUnitset@BWAPI@@@Z 1002e360 f   CombatCommander.obj
 0001:0002d860       ?updateIrradiatedSquad@CombatCommander@UAlbertaBot@@AAEXXZ 1002e860 f   CombatCommander.obj
 0001:0002dd90       ?compareFirst@@YA_NABU?$pair@HPAVBase@UAlbertaBot@@@std@@0@Z 1002ed90 f   CombatCommander.obj
 0001:0002ddb0       ?updateWatchSquads@CombatCommander@UAlbertaBot@@AAEXXZ 1002edb0 f   CombatCommander.obj
 0001:0002e9c0       ?updateReconSquad@CombatCommander@UAlbertaBot@@AAEXXZ 1002f9c0 f   CombatCommander.obj
 0001:0002f090       ?weighReconUnit@CombatCommander@UAlbertaBot@@ABEHQAVUnitInterface@BWAPI@@@Z 10030090 f   CombatCommander.obj
 0001:0002f110       ?weighReconUnit@CombatCommander@UAlbertaBot@@ABEHVUnitType@BWAPI@@@Z 10030110 f   CombatCommander.obj
 0001:0002f180       ?chooseReconTarget@CombatCommander@UAlbertaBot@@AAEXABVSquad@2@@Z 10030180 f   CombatCommander.obj
 0001:0002f370       ?getReconLocation@CombatCommander@UAlbertaBot@@ABEPAVBase@2@XZ 10030370 f   CombatCommander.obj
 0001:0002f4e0       ?updateAttackSquads@CombatCommander@UAlbertaBot@@AAEXXZ 100304e0 f   CombatCommander.obj
 0001:0002f960       ?updateDropSquads@CombatCommander@UAlbertaBot@@AAEXXZ 10030960 f   CombatCommander.obj
 0001:00030080       ?updateScoutDefenseSquad@CombatCommander@UAlbertaBot@@AAEXXZ 10031080 f   CombatCommander.obj
 0001:000303e0       ?updateBaseDefenseSquads@CombatCommander@UAlbertaBot@@AAEXXZ 100313e0 f   CombatCommander.obj
 0001:00032000       ?updateDefenseSquadUnits@CombatCommander@UAlbertaBot@@AAEXAAVSquad@2@ABI1_N2@Z 10033000 f   CombatCommander.obj
 0001:000321d0       ?findClosestDefender@CombatCommander@UAlbertaBot@@AAEPAVUnitInterface@BWAPI@@ABVSquad@2@V?$Point@H$00@4@_N22@Z 100331d0 f   CombatCommander.obj
 0001:00032330       ?loadOrUnloadBunkers@CombatCommander@UAlbertaBot@@AAEXXZ 10033330 f   CombatCommander.obj
 0001:00032850       ?wantSquadDetectors@CombatCommander@UAlbertaBot@@ABE_NXZ 10033850 f   CombatCommander.obj
 0001:00032980       ?maybeAssignDetector@CombatCommander@UAlbertaBot@@AAEXAAVSquad@2@_N@Z 10033980 f   CombatCommander.obj
 0001:00032ab0       ?workerPullScore@CombatCommander@UAlbertaBot@@CAHPAVUnitInterface@BWAPI@@@Z 10033ab0 f   CombatCommander.obj
 0001:00032b50       ?NEAT_CreateSquads@CombatCommander@UAlbertaBot@@QAEXXZ 10033b50 f   CombatCommander.obj
 0001:00033360       ?pullWorkers@CombatCommander@UAlbertaBot@@QAEXH@Z 10034360 f   CombatCommander.obj
 0001:00033660       ?getAttackOrder@CombatCommander@UAlbertaBot@@AAE?AVSquadOrder@2@PAVSquad@2@@Z 10034660 f   CombatCommander.obj
 0001:00033a80       ?getAttackLocation@CombatCommander@UAlbertaBot@@AAEXPAVSquad@2@AAPAVBase@2@AAV?$Point@H$00@BWAPI@@AAV?$basic_string@DU?$char_traits@D@std@@V?$allocator@D@2@@std@@@Z 10034a80 f   CombatCommander.obj
 0001:000349c0       ?Instance@CombatCommander@UAlbertaBot@@SAAAV12@XZ 100359c0 f   CombatCommander.obj
 0001:00034b50       ?append@?$basic_string@DU?$char_traits@D@std@@V?$allocator@D@2@@std@@QAEAAV12@QBD@Z 10035b50 f i CombatCommander.obj
 0001:00034bc0       ?append@?$basic_string@DU?$char_traits@D@std@@V?$allocator@D@2@@std@@QAEAAV12@ABV12@@Z 10035bc0 f i CombatCommander.obj
 0001:00034c40       ??0?$basic_string@DU?$char_traits@D@std@@V?$allocator@D@2@@std@@QAE@XZ 10035c40 f i CombatCommander.obj
 0001:00034c60       ??0?$basic_string@DU?$char_traits@D@std@@V?$allocator@D@2@@std@@QAE@ABV01@@Z 10035c60 f i CombatCommander.obj
 0001:00034d20       ?_Xrange@?$vector@PAVBase@UAlbertaBot@@V?$allocator@PAVBase@UAlbertaBot@@@std@@@std@@CAXXZ 10035d20 f i CombatCommander.obj
 0001:00034d30       ?erase@?$_Tree@V?$_Tmap_traits@W4LurkerTactic@UAlbertaBot@@ULurkerState@2@U?$less@W4LurkerTactic@UAlbertaBot@@@std@@V?$allocator@U?$pair@$$CBW4LurkerTactic@UAlbertaBot@@ULurkerState@2@@std@@@5@$0A@@std@@@std@@QAE?AV?$_Tree_iterator@V?$_Tree_val@U?$_Tree_simple_types@U?$pair@$$CBW4LurkerTactic@UAlbertaBot@@ULurkerState@2@@std@@@std@@@std@@@2@V?$_Tree_const_iterator@V?$_Tree_val@U?$_Tree_simple_types@U?$pair@$$CBW4LurkerTactic@UAlbertaBot@@ULurkerState@2@@std@@@std@@@std@@@2@0@Z 10035d30 f i CombatCommander.obj
 0001:00034e80       ?_Tidy@?$vector@U?$pair@W4LurkerTactic@UAlbertaBot@@V?$basic_string@DU?$char_traits@D@std@@V?$allocator@D@2@@std@@@std@@V?$allocator@U?$pair@W4LurkerTactic@UAlbertaBot@@V?$basic_string@DU?$char_traits@D@std@@V?$allocator@D@2@@std@@@std@@@2@@std@@AAEXXZ 10035e80 f i CombatCommander.obj
 0001:00034f00       ?erase@?$_Tree@V?$_Tmap_traits@V?$basic_string@DU?$char_traits@D@std@@V?$allocator@D@2@@std@@VSquad@UAlbertaBot@@U?$less@V?$basic_string@DU?$char_traits@D@std@@V?$allocator@D@2@@std@@@2@V?$allocator@U?$pair@$$CBV?$basic_string@DU?$char_traits@D@std@@V?$allocator@D@2@@std@@VSquad@UAlbertaBot@@@std@@@2@$0A@@std@@@std@@QAE?AV?$_Tree_iterator@V?$_Tree_val@U?$_Tree_simple_types@U?$pair@$$CBV?$basic_string@DU?$char_traits@D@std@@V?$allocator@D@2@@std@@VSquad@UAlbertaBot@@@std@@@std@@@std@@@2@V?$_Tree_const_iterator@V?$_Tree_val@U?$_Tree_simple_types@U?$pair@$$CBV?$basic_string@DU?$char_traits@D@std@@V?$allocator@D@2@@std@@VSquad@UAlbertaBot@@@std@@@std@@@std@@@2@0@Z 10035f00 f i CombatCommander.obj
 0001:00034fe0       ?_Extract@?$_Tree_val@U?$_Tree_simple_types@PAVZone@UAlbertaBot@@@std@@@std@@QAEPAU?$_Tree_node@PAVZone@UAlbertaBot@@PAX@2@V?$_Tree_const_iterator@V?$_Tree_val@U?$_Tree_simple_types@PAVZone@UAlbertaBot@@@std@@@std@@@2@@Z 10035fe0 f i GridZone.obj
 0001:00034fe0       ?_Extract@?$_Tree_val@U?$_Tree_simple_types@U?$pair@$$CBV?$basic_string@DU?$char_traits@D@std@@V?$allocator@D@2@@std@@UStrategy@UAlbertaBot@@@std@@@std@@@std@@QAEPAU?$_Tree_node@U?$pair@$$CBV?$basic_string@DU?$char_traits@D@std@@V?$allocator@D@2@@std@@UStrategy@UAlbertaBot@@@std@@PAX@2@V?$_Tree_const_iterator@V?$_Tree_val@U?$_Tree_simple_types@U?$pair@$$CBV?$basic_string@DU?$char_traits@D@std@@V?$allocator@D@2@@std@@UStrategy@UAlbertaBot@@@std@@@std@@@std@@@2@@Z 10035fe0 f i StrategyManager.obj
 0001:00034fe0       ?_Extract@?$_Tree_val@U?$_Tree_simple_types@U?$pair@$$CBW4LurkerTactic@UAlbertaBot@@ULurkerState@2@@std@@@std@@@std@@QAEPAU?$_Tree_node@U?$pair@$$CBW4LurkerTactic@UAlbertaBot@@ULurkerState@2@@std@@PAX@2@V?$_Tree_const_iterator@V?$_Tree_val@U?$_Tree_simple_types@U?$pair@$$CBW4LurkerTactic@UAlbertaBot@@ULurkerState@2@@std@@@std@@@std@@@2@@Z 10035fe0 f i CombatCommander.obj
 0001:00034fe0       ?_Extract@?$_Tree_val@U?$_Tree_simple_types@U?$pair@$$CBV?$basic_string@DU?$char_traits@D@std@@V?$allocator@D@2@@std@@VUnitType@BWAPI@@@std@@@std@@@std@@QAEPAU?$_Tree_node@U?$pair@$$CBV?$basic_string@DU?$char_traits@D@std@@V?$allocator@D@2@@std@@VUnitType@BWAPI@@@std@@PAX@2@V?$_Tree_const_iterator@V?$_Tree_val@U?$_Tree_simple_types@U?$pair@$$CBV?$basic_string@DU?$char_traits@D@std@@V?$allocator@D@2@@std@@VUnitType@BWAPI@@@std@@@std@@@std@@@2@@Z 10035fe0 f i MacroAct.obj
 0001:00035420       ?_Erase@?$_Tree@V?$_Tmap_traits@W4LurkerTactic@UAlbertaBot@@ULurkerState@2@U?$less@W4LurkerTactic@UAlbertaBot@@@std@@V?$allocator@U?$pair@$$CBW4LurkerTactic@UAlbertaBot@@ULurkerState@2@@std@@@5@$0A@@std@@@std@@IAEXPAU?$_Tree_node@U?$pair@$$CBW4LurkerTactic@UAlbertaBot@@ULurkerState@2@@std@@PAX@2@@Z 10036420 f i CombatCommander.obj
 0001:00035470       ?_Extract@?$_Tree_val@U?$_Tree_simple_types@U?$pair@$$CBV?$basic_string@DU?$char_traits@D@std@@V?$allocator@D@2@@std@@VSquad@UAlbertaBot@@@std@@@std@@@std@@QAEPAU?$_Tree_node@U?$pair@$$CBV?$basic_string@DU?$char_traits@D@std@@V?$allocator@D@2@@std@@VSquad@UAlbertaBot@@@std@@PAX@2@V?$_Tree_const_iterator@V?$_Tree_val@U?$_Tree_simple_types@U?$pair@$$CBV?$basic_string@DU?$char_traits@D@std@@V?$allocator@D@2@@std@@VSquad@UAlbertaBot@@@std@@@std@@@std@@@2@@Z 10036470 f i CombatCommander.obj
 0001:00035470       ?_Extract@?$_Tree_val@U?$_Tree_simple_types@U?$pair@QAVUnitInterface@BWAPI@@UUnitInfo@UAlbertaBot@@@std@@@std@@@std@@QAEPAU?$_Tree_node@U?$pair@QAVUnitInterface@BWAPI@@UUnitInfo@UAlbertaBot@@@std@@PAX@2@V?$_Tree_const_iterator@V?$_Tree_val@U?$_Tree_simple_types@U?$pair@QAVUnitInterface@BWAPI@@UUnitInfo@UAlbertaBot@@@std@@@std@@@std@@@2@@Z 10036470 f i InformationManager.obj
 0001:00035470       ?_Extract@?$_Tree_val@U?$_Tree_simple_types@U?$pair@QAVUnitInterface@BWAPI@@PAV12@@std@@@std@@@std@@QAEPAU?$_Tree_node@U?$pair@QAVUnitInterface@BWAPI@@PAV12@@std@@PAX@2@V?$_Tree_const_iterator@V?$_Tree_val@U?$_Tree_simple_types@U?$pair@QAVUnitInterface@BWAPI@@PAV12@@std@@@std@@@std@@@2@@Z 10036470 f i MicroMutas.obj
 0001:00035470       ?_Extract@?$_Tree_val@U?$_Tree_simple_types@U?$pair@QAVUnitInterface@BWAPI@@H@std@@@std@@@std@@QAEPAU?$_Tree_node@U?$pair@QAVUnitInterface@BWAPI@@H@std@@PAX@2@V?$_Tree_const_iterator@V?$_Tree_val@U?$_Tree_simple_types@U?$pair@QAVUnitInterface@BWAPI@@H@std@@@std@@@std@@@2@@Z 10036470 f i WorkerData.obj
 0001:00035860       ?_Erase@?$_Tree@V?$_Tmap_traits@V?$basic_string@DU?$char_traits@D@std@@V?$allocator@D@2@@std@@VSquad@UAlbertaBot@@U?$less@V?$basic_string@DU?$char_traits@D@std@@V?$allocator@D@2@@std@@@2@V?$allocator@U?$pair@$$CBV?$basic_string@DU?$char_traits@D@std@@V?$allocator@D@2@@std@@VSquad@UAlbertaBot@@@std@@@2@$0A@@std@@@std@@IAEXPAU?$_Tree_node@U?$pair@$$CBV?$basic_string@DU?$char_traits@D@std@@V?$allocator@D@2@@std@@VSquad@UAlbertaBot@@@std@@PAX@2@@Z 10036860 f i CombatCommander.obj
 0001:000358c0       ??$stable_sort@V?$_Vector_iterator@V?$_Vector_val@U?$_Simple_types@U?$pair@HPAVBase@UAlbertaBot@@@std@@@std@@@std@@@std@@P6A_NABU?$pair@HPAVBase@UAlbertaBot@@@2@0@Z@std@@YAXV?$_Vector_iterator@V?$_Vector_val@U?$_Simple_types@U?$pair@HPAVBase@UAlbertaBot@@@std@@@std@@@std@@@0@0P6A_NABU?$pair@HPAVBase@UAlbertaBot@@@0@1@Z@Z 100368c0 f i CombatCommander.obj
 0001:00035ae0       ??$_Emplace_reallocate@U?$pair@HPAVBase@UAlbertaBot@@@std@@@?$vector@U?$pair@HPAVBase@UAlbertaBot@@@std@@V?$allocator@U?$pair@HPAVBase@UAlbertaBot@@@std@@@2@@std@@QAEPAU?$pair@HPAVBase@UAlbertaBot@@@1@QAU21@$$QAU21@@Z 10036ae0 f i CombatCommander.obj
 0001:00035c80       ??$_Range_construct_or_tidy@PBU?$pair@W4LurkerTactic@UAlbertaBot@@V?$basic_string@DU?$char_traits@D@std@@V?$allocator@D@2@@std@@@std@@@?$vector@U?$pair@W4LurkerTactic@UAlbertaBot@@V?$basic_string@DU?$char_traits@D@std@@V?$allocator@D@2@@std@@@std@@V?$allocator@U?$pair@W4LurkerTactic@UAlbertaBot@@V?$basic_string@DU?$char_traits@D@std@@V?$allocator@D@2@@std@@@std@@@2@@std@@AAEXPBU?$pair@W4LurkerTactic@UAlbertaBot@@V?$basic_string@DU?$char_traits@D@std@@V?$allocator@D@2@@std@@@1@0Uforward_iterator_tag@1@@Z 10036c80 f i CombatCommander.obj
 0001:00035dd0       ??$_Reallocate_grow_by@V<lambda_ab246b20b9526e2ef7792587e4298a77>@@PBDI@?$basic_string@DU?$char_traits@D@std@@V?$allocator@D@2@@std@@QAEAAV01@IV<lambda_ab246b20b9526e2ef7792587e4298a77>@@PBDI@Z 10036dd0 f i CombatCommander.obj
 0001:00035f20       ??$_Destroy_range@V?$allocator@U?$pair@W4LurkerTactic@UAlbertaBot@@V?$basic_string@DU?$char_traits@D@std@@V?$allocator@D@2@@std@@@std@@@std@@@std@@YAXPAU?$pair@W4LurkerTactic@UAlbertaBot@@V?$basic_string@DU?$char_traits@D@std@@V?$allocator@D@2@@std@@@0@0AAV?$allocator@U?$pair@W4LurkerTactic@UAlbertaBot@@V?$basic_string@DU?$char_traits@D@std@@V?$allocator@D@2@@std@@@std@@@0@@Z 10036f20 f i CombatCommander.obj
 0001:00035f90       ??1?$pair@$$CBV?$basic_string@DU?$char_traits@D@std@@V?$allocator@D@2@@std@@VSquad@UAlbertaBot@@@std@@QAE@XZ 10036f90 f i CombatCommander.obj
 0001:00035ff0       ??1?$_Optimistic_temporary_buffer@U?$pair@HPAVBase@UAlbertaBot@@@std@@@std@@QAE@XZ 10036ff0 f i CombatCommander.obj
 0001:00036010       ?reserve@?$basic_string@DU?$char_traits@D@std@@V?$allocator@D@2@@std@@QAEXI@Z 10037010 f i CombatCommander.obj
 0001:000361b0       ??$_UIntegral_to_buff@DI@std@@YAPADPADI@Z 100371b0 f i CombatCommander.obj
 0001:000361e0       ??$_Stable_sort_unchecked@PAU?$pair@HPAVBase@UAlbertaBot@@@std@@P6A_NABU12@0@Z@std@@YAXQAU?$pair@HPAVBase@UAlbertaBot@@@0@0H0HP6A_NABU10@1@Z@Z 100371e0 f i CombatCommander.obj
 0001:00036300       ??$_Traits_equal@U?$char_traits@D@std@@@std@@YA_NQBDI0I@Z 10037300 f i CombatCommander.obj
 0001:00036370       ??$_Insertion_sort_unchecked@PAU?$pair@HPAVBase@UAlbertaBot@@@std@@P6A_NABU12@0@Z@std@@YAPAU?$pair@HPAVBase@UAlbertaBot@@@0@PAU10@QAU10@P6A_NABU10@2@Z@Z 10037370 f i CombatCommander.obj
 0001:00036450       ??$_Buffered_merge_sort_unchecked@PAU?$pair@HPAVBase@UAlbertaBot@@@std@@P6A_NABU12@0@Z@std@@YAXQAU?$pair@HPAVBase@UAlbertaBot@@@0@0H0P6A_NABU10@1@Z@Z 10037450 f i CombatCommander.obj
 0001:000365e0       ??$_Buffered_inplace_merge_unchecked@PAU?$pair@HPAVBase@UAlbertaBot@@@std@@P6A_NABU12@0@Z@std@@YAXPAU?$pair@HPAVBase@UAlbertaBot@@@0@00HHQAU10@HP6A_NABU10@2@Z@Z 100375e0 f i CombatCommander.obj
 0001:000366e0       ?_Delete_this@?$_Func_impl_no_alloc@V<lambda_a2cf48cc0ad720342f05725db62c6909>@@_NPAVUnitInterface@BWAPI@@@std@@EAEX_N@Z 100376e0 f i MicroArbiter.obj
 0001:000366e0       ?_Delete_this@?$_Func_impl_no_alloc@V?$UnaryFilter@PAVUnitInterface@BWAPI@@P6A_NPAV12@@Z@BWAPI@@_NPAVUnitInterface@2@@std@@EAEX_N@Z 100376e0 f i CombatCommander.obj
 0001:000366e0       ?_Delete_this@?$_Func_impl_no_alloc@P6ANABV?$vector@NV?$allocator@N@std@@@std@@@ZNABV12@@std@@EAEX_N@Z 100376e0 f i NodeEval.obj
 0001:000366e0       ?_Delete_this@?$_Func_impl_no_alloc@P6ANV?$vector@NV?$allocator@N@std@@@std@@@ZNABV12@@std@@EAEX_N@Z 100376e0 f i NodeEval.obj
 0001:000366e0       ?_Delete_this@?$_Func_impl_no_alloc@P6ANN@ZNN@std@@EAEX_N@Z 100376e0 f i NodeEval.obj
 0001:00036700       ?_Target_type@?$_Func_impl_no_alloc@V?$UnaryFilter@PAVUnitInterface@BWAPI@@P6A_NPAV12@@Z@BWAPI@@_NPAVUnitInterface@2@@std@@EBEABVtype_info@@XZ 10037700 f i CombatCommander.obj
 0001:00036710       ?_Copy@?$_Func_impl_no_alloc@V?$UnaryFilter@PAVUnitInterface@BWAPI@@P6A_NPAV12@@Z@BWAPI@@_NPAVUnitInterface@2@@std@@EBEPAV?$_Func_base@_NPAVUnitInterface@BWAPI@@@2@PAX@Z 10037710 f i CombatCommander.obj
 0001:00036710       ?_Move@?$_Func_impl_no_alloc@V?$UnaryFilter@PAVUnitInterface@BWAPI@@P6A_NPAV12@@Z@BWAPI@@_NPAVUnitInterface@2@@std@@EAEPAV?$_Func_base@_NPAVUnitInterface@BWAPI@@@2@PAX@Z 10037710 f i CombatCommander.obj
 0001:00036730       ??$_Move_backward_unchecked@PAU?$pair@HPAVBase@UAlbertaBot@@@std@@PAU12@@std@@YAPAU?$pair@HPAVBase@UAlbertaBot@@@0@PAU10@00@Z 10037730 f i CombatCommander.obj
 0001:00036760       ??$_Chunked_merge_unchecked@PAU?$pair@HPAVBase@UAlbertaBot@@@std@@PAU12@P6A_NABU12@0@Z@std@@YAXPAU?$pair@HPAVBase@UAlbertaBot@@@0@QAU10@0HHP6A_NABU10@2@Z@Z 10037760 f i CombatCommander.obj
 0001:00036860       ??$_Buffered_inplace_merge_unchecked_impl@PAU?$pair@HPAVBase@UAlbertaBot@@@std@@P6A_NABU12@0@Z@std@@YAXPAU?$pair@HPAVBase@UAlbertaBot@@@0@00HHQAU10@HP6A_NABU10@2@Z@Z 10037860 f i CombatCommander.obj
 0001:00036a80       ?_Do_call@?$_Func_impl_no_alloc@V?$UnaryFilter@PAVUnitInterface@BWAPI@@P6A_NPAV12@@Z@BWAPI@@_NPAVUnitInterface@2@@std@@EAE_N$$QAPAVUnitInterface@BWAPI@@@Z 10037a80 f i CombatCommander.obj
 0001:00036aa0       ??1?$_Uninitialized_backout_al@PAU?$pair@W4LurkerTactic@UAlbertaBot@@V?$basic_string@DU?$char_traits@D@std@@V?$allocator@D@2@@std@@@std@@V?$allocator@U?$pair@W4LurkerTactic@UAlbertaBot@@V?$basic_string@DU?$char_traits@D@std@@V?$allocator@D@2@@std@@@std@@@2@@std@@QAE@XZ 10037aa0 f i CombatCommander.obj
 0001:00036ab0       ??$_Uninitialized_move_unchecked@PAU?$pair@HPAVBase@UAlbertaBot@@@std@@PAU12@@std@@YAPAU?$pair@HPAVBase@UAlbertaBot@@@0@QAU10@00@Z 10037ab0 f i CombatCommander.obj
 0001:00036ae0       ??$_Move_unchecked@PAU?$pair@HPAVBase@UAlbertaBot@@@std@@PAU12@@std@@YAPAU?$pair@HPAVBase@UAlbertaBot@@@0@PAU10@00@Z 10037ae0 f i CombatCommander.obj
 0001:00036b10       ??$_Buffered_inplace_merge_divide_and_conquer@PAU?$pair@HPAVBase@UAlbertaBot@@@std@@P6A_NABU12@0@Z@std@@YAXPAU?$pair@HPAVBase@UAlbertaBot@@@0@00HHQAU10@HP6A_NABU10@2@Z@Z 10037b10 f i CombatCommander.obj
 0001:00036c60       ??$_Buffered_rotate_unchecked@PAU?$pair@HPAVBase@UAlbertaBot@@@std@@@std@@YAPAU?$pair@HPAVBase@UAlbertaBot@@@0@QAU10@00HH0H@Z 10037c60 f i CombatCommander.obj
 0001:00036dd0       ?Intersection@@YA?AVUnitset@BWAPI@@ABV12@0@Z 10037dd0 f   Common.obj
 0001:00036ec0       ?GetIntFromString@@YAHABV?$basic_string@DU?$char_traits@D@std@@V?$allocator@D@2@@std@@@Z 10037ec0 f   Common.obj
 0001:00036f90       ?TrimRaceName@@YA?AV?$basic_string@DU?$char_traits@D@std@@V?$allocator@D@2@@std@@ABV12@@Z 10037f90 f   Common.obj
 0001:00037240       ?UnitTypeName@@YA?AV?$basic_string@DU?$char_traits@D@std@@V?$allocator@D@2@@std@@VUnitType@BWAPI@@@Z 10038240 f   Common.obj
 0001:00037360       ?DistanceAndDirection@@YA?AV?$Point@H$00@BWAPI@@ABV12@0H@Z 10038360 f   Common.obj
 0001:00037420       ?PredictMovement@@YA?AV?$Point@H$00@BWAPI@@PAVUnitInterface@2@H@Z 10038420 f   Common.obj
 0001:00037530       ?contains@?$SetContainer@PAVUnitInterface@BWAPI@@U?$hash@PAX@std@@@BWAPI@@QBE_NABQAVUnitInterface@2@@Z 10038530 f i Common.obj
 0001:00037610       ??8?$Point@H$00@BWAPI@@QBE_NABV01@@Z 10038610 f i Common.obj
 0001:00037630       ?substr@?$basic_string@DU?$char_traits@D@std@@V?$allocator@D@2@@std@@QBE?AV12@II@Z 10038630 f i Common.obj
 0001:00037680       ??0?$basic_stringstream@DU?$char_traits@D@std@@V?$allocator@D@2@@std@@QAE@ABV?$basic_string@DU?$char_traits@D@std@@V?$allocator@D@2@@1@H@Z 10038680 f i Common.obj
 0001:00037750       ?_Init@?$basic_stringbuf@DU?$char_traits@D@std@@V?$allocator@D@2@@std@@IAEXPBDIH@Z 10038750 f i Common.obj
 0001:00037850       ?_Xran@?$_String_val@U?$_Simple_types@D@std@@@std@@SAXXZ 10038850 f i Common.obj
 0001:00037860       ___local_stdio_printf_options 10038860 f i db.obj
 0001:00037870       __vfprintf_l               10038870 f i db.obj
 0001:000378a0       _fprintf                   100388a0 f i db.obj
 0001:000378c0       _vsnprintf                 100388c0 f i db.obj
 0001:00037900       _snprintf                  10038900 f i db.obj
 0001:00037920       ?_Get_deleter@_Ref_count_base@std@@UBEPAXABVtype_info@@@Z 10038920 f i db.obj
 0001:00037930       ??0runtime_error@std@@QAE@ABV01@@Z 10038930 f i db.obj
 0001:00037970       ?to_string@std@@YA?AV?$basic_string@DU?$char_traits@D@std@@V?$allocator@D@2@@1@I@Z 10038970 f i db.obj
 0001:000379d0       ?what@exception@detail@json_abi_v3_11_3@nlohmann@@UBEPBDXZ 100389d0 f i db.obj
 0001:00037a10       ?name@exception@detail@json_abi_v3_11_3@nlohmann@@KA?AV?$basic_string@DU?$char_traits@D@std@@V?$allocator@D@2@@std@@ABV56@H@Z 10038a10 f i db.obj
 0001:00037b50       ??_Gout_of_range@detail@json_abi_v3_11_3@nlohmann@@UAEPAXI@Z 10038b50 f i db.obj
 0001:00037b50       ??_Einvalid_iterator@detail@json_abi_v3_11_3@nlohmann@@UAEPAXI@Z 10038b50 f i * CIL library *:* CIL module *
 0001:00037b50       ??_Gother_error@detail@json_abi_v3_11_3@nlohmann@@UAEPAXI@Z 10038b50 f i db.obj
 0001:00037b50       ??_Gtype_error@detail@json_abi_v3_11_3@nlohmann@@UAEPAXI@Z 10038b50 f i db.obj
 0001:00037b50       ??_Ginvalid_iterator@detail@json_abi_v3_11_3@nlohmann@@UAEPAXI@Z 10038b50 f i db.obj
 0001:00037b50       ??_Eother_error@detail@json_abi_v3_11_3@nlohmann@@UAEPAXI@Z 10038b50 f i * CIL library *:* CIL module *
 0001:00037b50       ??_Gexception@detail@json_abi_v3_11_3@nlohmann@@UAEPAXI@Z 10038b50 f i db.obj
 0001:00037b50       ??_Eexception@detail@json_abi_v3_11_3@nlohmann@@UAEPAXI@Z 10038b50 f i * CIL library *:* CIL module *
 0001:00037b50       ??_Etype_error@detail@json_abi_v3_11_3@nlohmann@@UAEPAXI@Z 10038b50 f i * CIL library *:* CIL module *
 0001:00037b50       ??_Eout_of_range@detail@json_abi_v3_11_3@nlohmann@@UAEPAXI@Z 10038b50 f i * CIL library *:* CIL module *
 0001:00037ba0       ??1parse_error@detail@json_abi_v3_11_3@nlohmann@@UAE@XZ 10038ba0 f i db.obj
 0001:00037ba0       ??1other_error@detail@json_abi_v3_11_3@nlohmann@@UAE@XZ 10038ba0 f i db.obj
 0001:00037ba0       ??1invalid_iterator@detail@json_abi_v3_11_3@nlohmann@@UAE@XZ 10038ba0 f i db.obj
 0001:00037ba0       ??1type_error@detail@json_abi_v3_11_3@nlohmann@@UAE@XZ 10038ba0 f i db.obj
 0001:00037ba0       ??1out_of_range@detail@json_abi_v3_11_3@nlohmann@@UAE@XZ 10038ba0 f i db.obj
 0001:00037ba0       ??1exception@detail@json_abi_v3_11_3@nlohmann@@UAE@XZ 10038ba0 f i db.obj
 0001:00037bd0       ?position_string@parse_error@detail@json_abi_v3_11_3@nlohmann@@CA?AV?$basic_string@DU?$char_traits@D@std@@V?$allocator@D@2@@std@@ABUposition_t@234@@Z 10038bd0 f i db.obj
 0001:00037d60       ??_Eparse_error@detail@json_abi_v3_11_3@nlohmann@@UAEPAXI@Z 10038d60 f i * CIL library *:* CIL module *
 0001:00037d60       ??_Gparse_error@detail@json_abi_v3_11_3@nlohmann@@UAEPAXI@Z 10038d60 f i db.obj
 0001:00037db0       ?now@steady_clock@chrono@std@@SA?AV?$time_point@Usteady_clock@chrono@std@@V?$duration@_JU?$ratio@$00$0DLJKMKAA@@std@@@23@@23@XZ 10038db0 f i db.obj
 0001:00037e30       ?mul@diyfp@dtoa_impl@detail@json_abi_v3_11_3@nlohmann@@SA?AU12345@ABU12345@0@Z 10038e30 f i db.obj
 0001:00037ee0       ?grisu2_round@dtoa_impl@detail@json_abi_v3_11_3@nlohmann@@YAXPADH_K111@Z 10038ee0 f i db.obj
 0001:00037f90       ?grisu2_digit_gen@dtoa_impl@detail@json_abi_v3_11_3@nlohmann@@YAXPADAAH1Udiyfp@1234@22@Z 10038f90 f i db.obj
 0001:00038250       ?format_buffer@dtoa_impl@detail@json_abi_v3_11_3@nlohmann@@YAPADPADHHHH@Z 10039250 f i db.obj
 0001:000383c0       ??1DBKeySpace@@QAE@XZ      100393c0 f i db.obj
 0001:000383c0       ??1?$vector@V?$basic_string@DU?$char_traits@D@std@@V?$allocator@D@2@@std@@V?$allocator@V?$basic_string@DU?$char_traits@D@std@@V?$allocator@D@2@@std@@@2@@std@@QAE@XZ 100393c0 f i db.obj
 0001:000383d0       ?sendData@DBConnector@@QAEXPBDW4KEYSPACEPOLICIES@@@Z 100393d0 f   db.obj
 0001:00038650       ?getData@DBConnector@@QAE_NPBDAAV?$basic_json@Vmap@std@@Vvector@2@V?$basic_string@DU?$char_traits@D@std@@V?$allocator@D@2@@2@_N_J_KNVallocator@2@Uadl_serializer@json_abi_v3_11_3@nlohmann@@V?$vector@EV?$allocator@E@std@@@2@X@json_abi_v3_11_3@nlohmann@@@Z 10039650 f   db.obj
 0001:00038d10       ?dataCallback@DBConnector@@CAIPADIIPAX@Z 10039d10 f   db.obj
 0001:00038d60       ??0?$vector@V?$basic_string@DU?$char_traits@D@std@@V?$allocator@D@2@@std@@V?$allocator@V?$basic_string@DU?$char_traits@D@std@@V?$allocator@D@2@@std@@@2@@std@@QAE@ABV01@@Z 10039d60 f i db.obj
 0001:00038ea0       ?end@?$basic_json@Vmap@std@@Vvector@2@V?$basic_string@DU?$char_traits@D@std@@V?$allocator@D@2@@2@_N_J_KNVallocator@2@Uadl_serializer@json_abi_v3_11_3@nlohmann@@V?$vector@EV?$allocator@E@std@@@2@X@json_abi_v3_11_3@nlohmann@@QAE?AV?$iter_impl@V?$basic_json@Vmap@std@@Vvector@2@V?$basic_string@DU?$char_traits@D@std@@V?$allocator@D@2@@2@_N_J_KNVallocator@2@Uadl_serializer@json_abi_v3_11_3@nlohmann@@V?$vector@EV?$allocator@E@std@@@2@X@json_abi_v3_11_3@nlohmann@@@detail@23@XZ 10039ea0 f i db.obj
 0001:00038f20       ??A?$basic_json@Vmap@std@@Vvector@2@V?$basic_string@DU?$char_traits@D@std@@V?$allocator@D@2@@2@_N_J_KNVallocator@2@Uadl_serializer@json_abi_v3_11_3@nlohmann@@V?$vector@EV?$allocator@E@std@@@2@X@json_abi_v3_11_3@nlohmann@@QAEAAV012@V?$basic_string@DU?$char_traits@D@std@@V?$allocator@D@2@@std@@@Z 10039f20 f i db.obj
 0001:00039060       ??A?$basic_json@Vmap@std@@Vvector@2@V?$basic_string@DU?$char_traits@D@std@@V?$allocator@D@2@@2@_N_J_KNVallocator@2@Uadl_serializer@json_abi_v3_11_3@nlohmann@@V?$vector@EV?$allocator@E@std@@@2@X@json_abi_v3_11_3@nlohmann@@QAEAAV012@I@Z 1003a060 f i db.obj
 0001:00039140       ?dump@?$basic_json@Vmap@std@@Vvector@2@V?$basic_string@DU?$char_traits@D@std@@V?$allocator@D@2@@2@_N_J_KNVallocator@2@Uadl_serializer@json_abi_v3_11_3@nlohmann@@V?$vector@EV?$allocator@E@std@@@2@X@json_abi_v3_11_3@nlohmann@@QBE?AV?$basic_string@DU?$char_traits@D@std@@V?$allocator@D@2@@std@@HD_NW4error_handler_t@detail@23@@Z 1003a140 f i db.obj
 0001:000392a0       ??1?$basic_json@Vmap@std@@Vvector@2@V?$basic_string@DU?$char_traits@D@std@@V?$allocator@D@2@@2@_N_J_KNVallocator@2@Uadl_serializer@json_abi_v3_11_3@nlohmann@@V?$vector@EV?$allocator@E@std@@@2@X@json_abi_v3_11_3@nlohmann@@QAE@XZ 1003a2a0 f i db.obj
 0001:000392f0       ??4?$basic_json@Vmap@std@@Vvector@2@V?$basic_string@DU?$char_traits@D@std@@V?$allocator@D@2@@2@_N_J_KNVallocator@2@Uadl_serializer@json_abi_v3_11_3@nlohmann@@V?$vector@EV?$allocator@E@std@@@2@X@json_abi_v3_11_3@nlohmann@@QAEAAV012@V012@@Z 1003a2f0 f i db.obj
 0001:00039330       ?resize@?$basic_string@DU?$char_traits@D@std@@V?$allocator@D@2@@std@@QAEXID@Z 1003a330 f i db.obj
 0001:000393b0       ??1?$output_adapter@DV?$basic_string@DU?$char_traits@D@std@@V?$allocator@D@2@@std@@@detail@json_abi_v3_11_3@nlohmann@@QAE@XZ 1003a3b0 f i db.obj
 0001:00039420       ??1?$serializer@V?$basic_json@Vmap@std@@Vvector@2@V?$basic_string@DU?$char_traits@D@std@@V?$allocator@D@2@@2@_N_J_KNVallocator@2@Uadl_serializer@json_abi_v3_11_3@nlohmann@@V?$vector@EV?$allocator@E@std@@@2@X@json_abi_v3_11_3@nlohmann@@@detail@json_abi_v3_11_3@nlohmann@@QAE@XZ 1003a420 f i db.obj
 0001:000394e0       ??0type_error@detail@json_abi_v3_11_3@nlohmann@@QAE@ABV0123@@Z 1003a4e0 f i db.obj
 0001:00039500       ??0exception@detail@json_abi_v3_11_3@nlohmann@@QAE@ABV0123@@Z 1003a500 f i db.obj
 0001:00039560       ?_Tidy@?$vector@V?$basic_string@DU?$char_traits@D@std@@V?$allocator@D@2@@std@@V?$allocator@V?$basic_string@DU?$char_traits@D@std@@V?$allocator@D@2@@std@@@2@@std@@AAEXXZ 1003a560 f i db.obj
 0001:000395e0       ??1data@?$basic_json@Vmap@std@@Vvector@2@V?$basic_string@DU?$char_traits@D@std@@V?$allocator@D@2@@2@_N_J_KNVallocator@2@Uadl_serializer@json_abi_v3_11_3@nlohmann@@V?$vector@EV?$allocator@E@std@@@2@X@json_abi_v3_11_3@nlohmann@@QAE@XZ 1003a5e0 f i db.obj
 0001:00039620       ??R<lambda_81347dfc5f0aeeb4f702a2105f3e11fc>@@QBEPAV?$basic_json@Vmap@std@@Vvector@2@V?$basic_string@DU?$char_traits@D@std@@V?$allocator@D@2@@2@_N_J_KNVallocator@2@Uadl_serializer@json_abi_v3_11_3@nlohmann@@V?$vector@EV?$allocator@E@std@@@2@X@json_abi_v3_11_3@nlohmann@@PAV123@I@Z 1003a620 f i db.obj
 0001:00039690       ?dump@?$serializer@V?$basic_json@Vmap@std@@Vvector@2@V?$basic_string@DU?$char_traits@D@std@@V?$allocator@D@2@@2@_N_J_KNVallocator@2@Uadl_serializer@json_abi_v3_11_3@nlohmann@@V?$vector@EV?$allocator@E@std@@@2@X@json_abi_v3_11_3@nlohmann@@@detail@json_abi_v3_11_3@nlohmann@@QAEXABV?$basic_json@Vmap@std@@Vvector@2@V?$basic_string@DU?$char_traits@D@std@@V?$allocator@D@2@@2@_N_J_KNVallocator@2@Uadl_serializer@json_abi_v3_11_3@nlohmann@@V?$vector@EV?$allocator@E@std@@@2@X@34@_N1II@Z 1003a690 f i db.obj
 0001:00039f70       ??0?$serializer@V?$basic_json@Vmap@std@@Vvector@2@V?$basic_string@DU?$char_traits@D@std@@V?$allocator@D@2@@2@_N_J_KNVallocator@2@Uadl_serializer@json_abi_v3_11_3@nlohmann@@V?$vector@EV?$allocator@E@std@@@2@X@json_abi_v3_11_3@nlohmann@@@detail@json_abi_v3_11_3@nlohmann@@QAE@V?$shared_ptr@U?$output_adapter_protocol@D@detail@json_abi_v3_11_3@nlohmann@@@std@@DW4error_handler_t@123@@Z 1003af70 f i db.obj
 0001:0003a190       ??1?$shared_ptr@U?$output_adapter_protocol@D@detail@json_abi_v3_11_3@nlohmann@@@std@@QAE@XZ 1003b190 f i db.obj
 0001:0003a1f0       ?type_name@?$basic_json@Vmap@std@@Vvector@2@V?$basic_string@DU?$char_traits@D@std@@V?$allocator@D@2@@2@_N_J_KNVallocator@2@Uadl_serializer@json_abi_v3_11_3@nlohmann@@V?$vector@EV?$allocator@E@std@@@2@X@json_abi_v3_11_3@nlohmann@@QBEPBDXZ 1003b1f0 f i db.obj
 0001:0003a260       ??0?$basic_json@Vmap@std@@Vvector@2@V?$basic_string@DU?$char_traits@D@std@@V?$allocator@D@2@@2@_N_J_KNVallocator@2@Uadl_serializer@json_abi_v3_11_3@nlohmann@@V?$vector@EV?$allocator@E@std@@@2@X@json_abi_v3_11_3@nlohmann@@QAE@W4value_t@detail@12@@Z 1003b260 f i db.obj
 0001:0003a3b0       ?push_back@?$basic_string@DU?$char_traits@D@std@@V?$allocator@D@2@@std@@QAEXD@Z 1003b3b0 f i db.obj
 0001:0003a500       ??0parse_error@detail@json_abi_v3_11_3@nlohmann@@QAE@ABV0123@@Z 1003b500 f i db.obj
 0001:0003a530       ?write_characters@?$output_stream_adapter@D@detail@json_abi_v3_11_3@nlohmann@@UAEXPBDI@Z 1003b530 f i db.obj
 0001:0003a550       ?write_character@?$output_stream_adapter@D@detail@json_abi_v3_11_3@nlohmann@@UAEXD@Z 1003b550 f i db.obj
 0001:0003a560       ?write_characters@?$output_string_adapter@DV?$basic_string@DU?$char_traits@D@std@@V?$allocator@D@2@@std@@@detail@json_abi_v3_11_3@nlohmann@@UAEXPBDI@Z 1003b560 f i db.obj
 0001:0003a5c0       ?write_character@?$output_string_adapter@DV?$basic_string@DU?$char_traits@D@std@@V?$allocator@D@2@@std@@@detail@json_abi_v3_11_3@nlohmann@@UAEXD@Z 1003b5c0 f i db.obj
 0001:0003a5d0       ?destroy@json_value@?$basic_json@Vmap@std@@Vvector@2@V?$basic_string@DU?$char_traits@D@std@@V?$allocator@D@2@@2@_N_J_KNVallocator@2@Uadl_serializer@json_abi_v3_11_3@nlohmann@@V?$vector@EV?$allocator@E@std@@@2@X@json_abi_v3_11_3@nlohmann@@QAEXW4value_t@detail@34@@Z 1003b5d0 f i db.obj
 0001:0003a9b0       ?lower_bound@?$_Tree@V?$_Tmap_traits@V?$basic_string@DU?$char_traits@D@std@@V?$allocator@D@2@@std@@V?$basic_json@Vmap@std@@Vvector@2@V?$basic_string@DU?$char_traits@D@std@@V?$allocator@D@2@@2@_N_J_KNVallocator@2@Uadl_serializer@json_abi_v3_11_3@nlohmann@@V?$vector@EV?$allocator@E@std@@@2@X@json_abi_v3_11_3@nlohmann@@U?$less@X@2@V?$allocator@U?$pair@$$CBV?$basic_string@DU?$char_traits@D@std@@V?$allocator@D@2@@std@@V?$basic_json@Vmap@std@@Vvector@2@V?$basic_string@DU?$char_traits@D@std@@V?$allocator@D@2@@2@_N_J_KNVallocator@2@Uadl_serializer@json_abi_v3_11_3@nlohmann@@V?$vector@EV?$allocator@E@std@@@2@X@json_abi_v3_11_3@nlohmann@@@std@@@2@$0A@@std@@@std@@QAE?AV?$_Tree_iterator@V?$_Tree_val@U?$_Tree_simple_types@U?$pair@$$CBV?$basic_string@DU?$char_traits@D@std@@V?$allocator@D@2@@std@@V?$basic_json@Vmap@std@@Vvector@2@V?$basic_string@DU?$char_traits@D@std@@V?$allocator@D@2@@2@_N_J_KNVallocator@2@Uadl_serializer@json_abi_v3_11_3@nlohmann@@V?$vector@EV?$allocator@E@std@@@2@X@json_abi_v3_11_3@nlohmann@@@std@@@std@@@std@@@2@ABV?$basic_string@DU?$char_traits@D@std@@V?$allocator@D@2@@2@@Z 1003b9b0 f i db.obj
 0001:0003a9b0       ?lower_bound@?$_Tree@V?$_Tmap_traits@V?$basic_string@DU?$char_traits@D@std@@V?$allocator@D@2@@std@@VSquad@UAlbertaBot@@U?$less@V?$basic_string@DU?$char_traits@D@std@@V?$allocator@D@2@@std@@@2@V?$allocator@U?$pair@$$CBV?$basic_string@DU?$char_traits@D@std@@V?$allocator@D@2@@std@@VSquad@UAlbertaBot@@@std@@@2@$0A@@std@@@std@@QAE?AV?$_Tree_iterator@V?$_Tree_val@U?$_Tree_simple_types@U?$pair@$$CBV?$basic_string@DU?$char_traits@D@std@@V?$allocator@D@2@@std@@VSquad@UAlbertaBot@@@std@@@std@@@std@@@2@ABV?$basic_string@DU?$char_traits@D@std@@V?$allocator@D@2@@2@@Z 1003b9b0 f i SquadData.obj
 0001:0003aa10       ?dump_escaped@?$serializer@V?$basic_json@Vmap@std@@Vvector@2@V?$basic_string@DU?$char_traits@D@std@@V?$allocator@D@2@@2@_N_J_KNVallocator@2@Uadl_serializer@json_abi_v3_11_3@nlohmann@@V?$vector@EV?$allocator@E@std@@@2@X@json_abi_v3_11_3@nlohmann@@@detail@json_abi_v3_11_3@nlohmann@@AAEXABV?$basic_string@DU?$char_traits@D@std@@V?$allocator@D@2@@std@@_N@Z 1003ba10 f i db.obj
 0001:0003aef0       ?clear@?$_Tree@V?$_Tmap_traits@V?$basic_string@DU?$char_traits@D@std@@V?$allocator@D@2@@std@@V?$basic_json@Vmap@std@@Vvector@2@V?$basic_string@DU?$char_traits@D@std@@V?$allocator@D@2@@2@_N_J_KNVallocator@2@Uadl_serializer@json_abi_v3_11_3@nlohmann@@V?$vector@EV?$allocator@E@std@@@2@X@json_abi_v3_11_3@nlohmann@@U?$less@X@2@V?$allocator@U?$pair@$$CBV?$basic_string@DU?$char_traits@D@std@@V?$allocator@D@2@@std@@V?$basic_json@Vmap@std@@Vvector@2@V?$basic_string@DU?$char_traits@D@std@@V?$allocator@D@2@@2@_N_J_KNVallocator@2@Uadl_serializer@json_abi_v3_11_3@nlohmann@@V?$vector@EV?$allocator@E@std@@@2@X@json_abi_v3_11_3@nlohmann@@@std@@@2@$0A@@std@@@std@@QAEXXZ 1003bef0 f i db.obj
 0001:0003af50       ??$emplace_back@V?$basic_json@Vmap@std@@Vvector@2@V?$basic_string@DU?$char_traits@D@std@@V?$allocator@D@2@@2@_N_J_KNVallocator@2@Uadl_serializer@json_abi_v3_11_3@nlohmann@@V?$vector@EV?$allocator@E@std@@@2@X@json_abi_v3_11_3@nlohmann@@@?$vector@V?$basic_json@Vmap@std@@Vvector@2@V?$basic_string@DU?$char_traits@D@std@@V?$allocator@D@2@@2@_N_J_KNVallocator@2@Uadl_serializer@json_abi_v3_11_3@nlohmann@@V?$vector@EV?$allocator@E@std@@@2@X@json_abi_v3_11_3@nlohmann@@V?$allocator@V?$basic_json@Vmap@std@@Vvector@2@V?$basic_string@DU?$char_traits@D@std@@V?$allocator@D@2@@2@_N_J_KNVallocator@2@Uadl_serializer@json_abi_v3_11_3@nlohmann@@V?$vector@EV?$allocator@E@std@@@2@X@json_abi_v3_11_3@nlohmann@@@std@@@std@@QAEAAV?$basic_json@Vmap@std@@Vvector@2@V?$basic_string@DU?$char_traits@D@std@@V?$allocator@D@2@@2@_N_J_KNVallocator@2@Uadl_serializer@json_abi_v3_11_3@nlohmann@@V?$vector@EV?$allocator@E@std@@@2@X@json_abi_v3_11_3@nlohmann@@$$QAV234@@Z 1003bf50 f i db.obj
 0001:0003afb0       ??1?$vector@V?$basic_json@Vmap@std@@Vvector@2@V?$basic_string@DU?$char_traits@D@std@@V?$allocator@D@2@@2@_N_J_KNVallocator@2@Uadl_serializer@json_abi_v3_11_3@nlohmann@@V?$vector@EV?$allocator@E@std@@@2@X@json_abi_v3_11_3@nlohmann@@V?$allocator@V?$basic_json@Vmap@std@@Vvector@2@V?$basic_string@DU?$char_traits@D@std@@V?$allocator@D@2@@2@_N_J_KNVallocator@2@Uadl_serializer@json_abi_v3_11_3@nlohmann@@V?$vector@EV?$allocator@E@std@@@2@X@json_abi_v3_11_3@nlohmann@@@std@@@std@@QAE@XZ 1003bfb0 f i db.obj
 0001:0003afc0       ?hex_bytes@?$serializer@V?$basic_json@Vmap@std@@Vvector@2@V?$basic_string@DU?$char_traits@D@std@@V?$allocator@D@2@@2@_N_J_KNVallocator@2@Uadl_serializer@json_abi_v3_11_3@nlohmann@@V?$vector@EV?$allocator@E@std@@@2@X@json_abi_v3_11_3@nlohmann@@@detail@json_abi_v3_11_3@nlohmann@@CA?AV?$basic_string@DU?$char_traits@D@std@@V?$allocator@D@2@@std@@E@Z 1003bfc0 f i db.obj
 0001:0003b030       ?back@?$basic_string@DU?$char_traits@D@std@@V?$allocator@D@2@@std@@QBEABDXZ 1003c030 f i db.obj
 0001:0003b050       ??0other_error@detail@json_abi_v3_11_3@nlohmann@@QAE@ABV0123@@Z 1003c050 f i db.obj
 0001:0003b070       ?_Erase@?$_Tree@V?$_Tmap_traits@V?$basic_string@DU?$char_traits@D@std@@V?$allocator@D@2@@std@@V?$basic_json@Vmap@std@@Vvector@2@V?$basic_string@DU?$char_traits@D@std@@V?$allocator@D@2@@2@_N_J_KNVallocator@2@Uadl_serializer@json_abi_v3_11_3@nlohmann@@V?$vector@EV?$allocator@E@std@@@2@X@json_abi_v3_11_3@nlohmann@@U?$less@X@2@V?$allocator@U?$pair@$$CBV?$basic_string@DU?$char_traits@D@std@@V?$allocator@D@2@@std@@V?$basic_json@Vmap@std@@Vvector@2@V?$basic_string@DU?$char_traits@D@std@@V?$allocator@D@2@@2@_N_J_KNVallocator@2@Uadl_serializer@json_abi_v3_11_3@nlohmann@@V?$vector@EV?$allocator@E@std@@@2@X@json_abi_v3_11_3@nlohmann@@@std@@@2@$0A@@std@@@std@@IAEXPAU?$_Tree_node@U?$pair@$$CBV?$basic_string@DU?$char_traits@D@std@@V?$allocator@D@2@@std@@V?$basic_json@Vmap@std@@Vvector@2@V?$basic_string@DU?$char_traits@D@std@@V?$allocator@D@2@@2@_N_J_KNVallocator@2@Uadl_serializer@json_abi_v3_11_3@nlohmann@@V?$vector@EV?$allocator@E@std@@@2@X@json_abi_v3_11_3@nlohmann@@@std@@PAX@2@@Z 1003c070 f i db.obj
 0001:0003b0c0       ?_Tidy@?$vector@V?$basic_json@Vmap@std@@Vvector@2@V?$basic_string@DU?$char_traits@D@std@@V?$allocator@D@2@@2@_N_J_KNVallocator@2@Uadl_serializer@json_abi_v3_11_3@nlohmann@@V?$vector@EV?$allocator@E@std@@@2@X@json_abi_v3_11_3@nlohmann@@V?$allocator@V?$basic_json@Vmap@std@@Vvector@2@V?$basic_string@DU?$char_traits@D@std@@V?$allocator@D@2@@2@_N_J_KNVallocator@2@Uadl_serializer@json_abi_v3_11_3@nlohmann@@V?$vector@EV?$allocator@E@std@@@2@X@json_abi_v3_11_3@nlohmann@@@std@@@std@@AAEXXZ 1003c0c0 f i db.obj
 0001:0003b130       ?_Destroy@?$vector@V?$basic_json@Vmap@std@@Vvector@2@V?$basic_string@DU?$char_traits@D@std@@V?$allocator@D@2@@2@_N_J_KNVallocator@2@Uadl_serializer@json_abi_v3_11_3@nlohmann@@V?$vector@EV?$allocator@E@std@@@2@X@json_abi_v3_11_3@nlohmann@@V?$allocator@V?$basic_json@Vmap@std@@Vvector@2@V?$basic_string@DU?$char_traits@D@std@@V?$allocator@D@2@@2@_N_J_KNVallocator@2@Uadl_serializer@json_abi_v3_11_3@nlohmann@@V?$vector@EV?$allocator@E@std@@@2@X@json_abi_v3_11_3@nlohmann@@@std@@@std@@AAEXPAV?$basic_json@Vmap@std@@Vvector@2@V?$basic_string@DU?$char_traits@D@std@@V?$allocator@D@2@@2@_N_J_KNVallocator@2@Uadl_serializer@json_abi_v3_11_3@nlohmann@@V?$vector@EV?$allocator@E@std@@@2@X@json_abi_v3_11_3@nlohmann@@0@Z 1003c130 f i db.obj
 0001:0003b160       ?_Reallocate_exactly@?$vector@V?$basic_json@Vmap@std@@Vvector@2@V?$basic_string@DU?$char_traits@D@std@@V?$allocator@D@2@@2@_N_J_KNVallocator@2@Uadl_serializer@json_abi_v3_11_3@nlohmann@@V?$vector@EV?$allocator@E@std@@@2@X@json_abi_v3_11_3@nlohmann@@V?$allocator@V?$basic_json@Vmap@std@@Vvector@2@V?$basic_string@DU?$char_traits@D@std@@V?$allocator@D@2@@2@_N_J_KNVallocator@2@Uadl_serializer@json_abi_v3_11_3@nlohmann@@V?$vector@EV?$allocator@E@std@@@2@X@json_abi_v3_11_3@nlohmann@@@std@@@std@@AAEXI@Z 1003c160 f i db.obj
 0001:0003b230       ?_Change_array@?$vector@V?$basic_json@Vmap@std@@Vvector@2@V?$basic_string@DU?$char_traits@D@std@@V?$allocator@D@2@@2@_N_J_KNVallocator@2@Uadl_serializer@json_abi_v3_11_3@nlohmann@@V?$vector@EV?$allocator@E@std@@@2@X@json_abi_v3_11_3@nlohmann@@V?$allocator@V?$basic_json@Vmap@std@@Vvector@2@V?$basic_string@DU?$char_traits@D@std@@V?$allocator@D@2@@2@_N_J_KNVallocator@2@Uadl_serializer@json_abi_v3_11_3@nlohmann@@V?$vector@EV?$allocator@E@std@@@2@X@json_abi_v3_11_3@nlohmann@@@std@@@std@@AAEXQAV?$basic_json@Vmap@std@@Vvector@2@V?$basic_string@DU?$char_traits@D@std@@V?$allocator@D@2@@2@_N_J_KNVallocator@2@Uadl_serializer@json_abi_v3_11_3@nlohmann@@V?$vector@EV?$allocator@E@std@@@2@X@json_abi_v3_11_3@nlohmann@@II@Z 1003c230 f i db.obj
 0001:0003b2b0       ?_Umove_if_noexcept@?$vector@V?$basic_json@Vmap@std@@Vvector@2@V?$basic_string@DU?$char_traits@D@std@@V?$allocator@D@2@@2@_N_J_KNVallocator@2@Uadl_serializer@json_abi_v3_11_3@nlohmann@@V?$vector@EV?$allocator@E@std@@@2@X@json_abi_v3_11_3@nlohmann@@V?$allocator@V?$basic_json@Vmap@std@@Vvector@2@V?$basic_string@DU?$char_traits@D@std@@V?$allocator@D@2@@2@_N_J_KNVallocator@2@Uadl_serializer@json_abi_v3_11_3@nlohmann@@V?$vector@EV?$allocator@E@std@@@2@X@json_abi_v3_11_3@nlohmann@@@std@@@std@@AAEXPAV?$basic_json@Vmap@std@@Vvector@2@V?$basic_string@DU?$char_traits@D@std@@V?$allocator@D@2@@2@_N_J_KNVallocator@2@Uadl_serializer@json_abi_v3_11_3@nlohmann@@V?$vector@EV?$allocator@E@std@@@2@X@json_abi_v3_11_3@nlohmann@@00@Z 1003c2b0 f i db.obj
 0001:0003b300       ?deallocate@?$allocator@V?$basic_json@Vmap@std@@Vvector@2@V?$basic_string@DU?$char_traits@D@std@@V?$allocator@D@2@@2@_N_J_KNVallocator@2@Uadl_serializer@json_abi_v3_11_3@nlohmann@@V?$vector@EV?$allocator@E@std@@@2@X@json_abi_v3_11_3@nlohmann@@@std@@QAEXQAV?$basic_json@Vmap@std@@Vvector@2@V?$basic_string@DU?$char_traits@D@std@@V?$allocator@D@2@@2@_N_J_KNVallocator@2@Uadl_serializer@json_abi_v3_11_3@nlohmann@@V?$vector@EV?$allocator@E@std@@@2@X@json_abi_v3_11_3@nlohmann@@I@Z 1003c300 f i db.obj
 0001:0003b340       ??$?8V?$iter_impl@V?$basic_json@Vmap@std@@Vvector@2@V?$basic_string@DU?$char_traits@D@std@@V?$allocator@D@2@@2@_N_J_KNVallocator@2@Uadl_serializer@json_abi_v3_11_3@nlohmann@@V?$vector@EV?$allocator@E@std@@@2@X@json_abi_v3_11_3@nlohmann@@@detail@json_abi_v3_11_3@nlohmann@@$0A@@?$iter_impl@V?$basic_json@Vmap@std@@Vvector@2@V?$basic_string@DU?$char_traits@D@std@@V?$allocator@D@2@@2@_N_J_KNVallocator@2@Uadl_serializer@json_abi_v3_11_3@nlohmann@@V?$vector@EV?$allocator@E@std@@@2@X@json_abi_v3_11_3@nlohmann@@@detail@json_abi_v3_11_3@nlohmann@@QBE_NABV0123@@Z 1003c340 f i db.obj
 0001:0003b3f0       ??$?GUsteady_clock@chrono@std@@V?$duration@_JU?$ratio@$00$0DLJKMKAA@@std@@@12@V312@@chrono@std@@YA?AV?$duration@_JU?$ratio@$00$0DLJKMKAA@@std@@@01@ABV?$time_point@Usteady_clock@chrono@std@@V?$duration@_JU?$ratio@$00$0DLJKMKAA@@std@@@23@@01@0@Z 1003c3f0 f i db.obj
 0001:0003b420       ??$?0_JU?$ratio@$00$0DLJKMKAA@@std@@X@?$duration@NU?$ratio@$00$00@std@@@chrono@std@@QAE@ABV?$duration@_JU?$ratio@$00$0DLJKMKAA@@std@@@12@@Z 1003c420 f i db.obj
 0001:0003b450       ??$endl@DU?$char_traits@D@std@@@std@@YAAAV?$basic_ostream@DU?$char_traits@D@std@@@0@AAV10@@Z 1003c450 f i db.obj
 0001:0003b480       ??$parse@V?$basic_string@DU?$char_traits@D@std@@V?$allocator@D@2@@std@@@?$basic_json@Vmap@std@@Vvector@2@V?$basic_string@DU?$char_traits@D@std@@V?$allocator@D@2@@2@_N_J_KNVallocator@2@Uadl_serializer@json_abi_v3_11_3@nlohmann@@V?$vector@EV?$allocator@E@std@@@2@X@json_abi_v3_11_3@nlohmann@@SA?AV012@$$QAV?$basic_string@DU?$char_traits@D@std@@V?$allocator@D@2@@std@@V?$function@$$A6A_NHW4parse_event_t@detail@json_abi_v3_11_3@nlohmann@@AAV?$basic_json@Vmap@std@@Vvector@2@V?$basic_string@DU?$char_traits@D@std@@V?$allocator@D@2@@2@_N_J_KNVallocator@2@Uadl_serializer@json_abi_v3_11_3@nlohmann@@V?$vector@EV?$allocator@E@std@@@2@X@34@@Z@4@_N2@Z 1003c480 f i db.obj
 0001:0003b5f0       ??$create@V?$map@V?$basic_string@DU?$char_traits@D@std@@V?$allocator@D@2@@std@@V?$basic_json@Vmap@std@@Vvector@2@V?$basic_string@DU?$char_traits@D@std@@V?$allocator@D@2@@2@_N_J_KNVallocator@2@Uadl_serializer@json_abi_v3_11_3@nlohmann@@V?$vector@EV?$allocator@E@std@@@2@X@json_abi_v3_11_3@nlohmann@@U?$less@X@2@V?$allocator@U?$pair@$$CBV?$basic_string@DU?$char_traits@D@std@@V?$allocator@D@2@@std@@V?$basic_json@Vmap@std@@Vvector@2@V?$basic_string@DU?$char_traits@D@std@@V?$allocator@D@2@@2@_N_J_KNVallocator@2@Uadl_serializer@json_abi_v3_11_3@nlohmann@@V?$vector@EV?$allocator@E@std@@@2@X@json_abi_v3_11_3@nlohmann@@@std@@@2@@std@@$$V@?$basic_json@Vmap@std@@Vvector@2@V?$basic_string@DU?$char_traits@D@std@@V?$allocator@D@2@@2@_N_J_KNVallocator@2@Uadl_serializer@json_abi_v3_11_3@nlohmann@@V?$vector@EV?$allocator@E@std@@@2@X@json_abi_v3_11_3@nlohmann@@CAPAV?$map@V?$basic_string@DU?$char_traits@D@std@@V?$allocator@D@2@@std@@V?$basic_json@Vmap@std@@Vvector@2@V?$basic_string@DU?$char_traits@D@std@@V?$allocator@D@2@@2@_N_J_KNVallocator@2@Uadl_serializer@json_abi_v3_11_3@nlohmann@@V?$vector@EV?$allocator@E@std@@@2@X@json_abi_v3_11_3@nlohmann@@U?$less@X@2@V?$allocator@U?$pair@$$CBV?$basic_string@DU?$char_traits@D@std@@V?$allocator@D@2@@std@@V?$basic_json@Vmap@std@@Vvector@2@V?$basic_string@DU?$char_traits@D@std@@V?$allocator@D@2@@2@_N_J_KNVallocator@2@Uadl_serializer@json_abi_v3_11_3@nlohmann@@V?$vector@EV?$allocator@E@std@@@2@X@json_abi_v3_11_3@nlohmann@@@std@@@2@@std@@XZ 1003c5f0 f i db.obj
 0001:0003b660       ??$concat@V?$basic_string@DU?$char_traits@D@std@@V?$allocator@D@2@@std@@AAY0DD@$$CBDPBD@detail@json_abi_v3_11_3@nlohmann@@YA?AV?$basic_string@DU?$char_traits@D@std@@V?$allocator@D@2@@std@@AAY0DD@$$CBD$$QAPBD@Z 1003c660 f i db.obj
 0001:0003b700       ??$create@PAV?$basic_json@Vmap@std@@Vvector@2@V?$basic_string@DU?$char_traits@D@std@@V?$allocator@D@2@@2@_N_J_KNVallocator@2@Uadl_serializer@json_abi_v3_11_3@nlohmann@@V?$vector@EV?$allocator@E@std@@@2@X@json_abi_v3_11_3@nlohmann@@$0A@@type_error@detail@json_abi_v3_11_3@nlohmann@@SA?AV0123@HABV?$basic_string@DU?$char_traits@D@std@@V?$allocator@D@2@@std@@PAV?$basic_json@Vmap@std@@Vvector@2@V?$basic_string@DU?$char_traits@D@std@@V?$allocator@D@2@@2@_N_J_KNVallocator@2@Uadl_serializer@json_abi_v3_11_3@nlohmann@@V?$vector@EV?$allocator@E@std@@@2@X@23@@Z 1003c700 f i db.obj
 0001:0003b700       ??$create@PBV?$basic_json@Vmap@std@@Vvector@2@V?$basic_string@DU?$char_traits@D@std@@V?$allocator@D@2@@2@_N_J_KNVallocator@2@Uadl_serializer@json_abi_v3_11_3@nlohmann@@V?$vector@EV?$allocator@E@std@@@2@X@json_abi_v3_11_3@nlohmann@@$0A@@type_error@detail@json_abi_v3_11_3@nlohmann@@SA?AV0123@HABV?$basic_string@DU?$char_traits@D@std@@V?$allocator@D@2@@std@@PBV?$basic_json@Vmap@std@@Vvector@2@V?$basic_string@DU?$char_traits@D@std@@V?$allocator@D@2@@2@_N_J_KNVallocator@2@Uadl_serializer@json_abi_v3_11_3@nlohmann@@V?$vector@EV?$allocator@E@std@@@2@X@23@@Z 1003c700 f i NEATCommander.obj
 0001:0003b900       ??$create@V?$vector@V?$basic_json@Vmap@std@@Vvector@2@V?$basic_string@DU?$char_traits@D@std@@V?$allocator@D@2@@2@_N_J_KNVallocator@2@Uadl_serializer@json_abi_v3_11_3@nlohmann@@V?$vector@EV?$allocator@E@std@@@2@X@json_abi_v3_11_3@nlohmann@@V?$allocator@V?$basic_json@Vmap@std@@Vvector@2@V?$basic_string@DU?$char_traits@D@std@@V?$allocator@D@2@@2@_N_J_KNVallocator@2@Uadl_serializer@json_abi_v3_11_3@nlohmann@@V?$vector@EV?$allocator@E@std@@@2@X@json_abi_v3_11_3@nlohmann@@@std@@@std@@$$V@?$basic_json@Vmap@std@@Vvector@2@V?$basic_string@DU?$char_traits@D@std@@V?$allocator@D@2@@2@_N_J_KNVallocator@2@Uadl_serializer@json_abi_v3_11_3@nlohmann@@V?$vector@EV?$allocator@E@std@@@2@X@json_abi_v3_11_3@nlohmann@@CAPAV?$vector@V?$basic_json@Vmap@std@@Vvector@2@V?$basic_string@DU?$char_traits@D@std@@V?$allocator@D@2@@2@_N_J_KNVallocator@2@Uadl_serializer@json_abi_v3_11_3@nlohmann@@V?$vector@EV?$allocator@E@std@@@2@X@json_abi_v3_11_3@nlohmann@@V?$allocator@V?$basic_json@Vmap@std@@Vvector@2@V?$basic_string@DU?$char_traits@D@std@@V?$allocator@D@2@@2@_N_J_KNVallocator@2@Uadl_serializer@json_abi_v3_11_3@nlohmann@@V?$vector@EV?$allocator@E@std@@@2@X@json_abi_v3_11_3@nlohmann@@@std@@@std@@XZ 1003c900 f i db.obj
 0001:0003b920       ??$concat@V?$basic_string@DU?$char_traits@D@std@@V?$allocator@D@2@@std@@AAY0DE@$$CBDPBD@detail@json_abi_v3_11_3@nlohmann@@YA?AV?$basic_string@DU?$char_traits@D@std@@V?$allocator@D@2@@std@@AAY0DE@$$CBD$$QAPBD@Z 1003c920 f i db.obj
 0001:0003b9c0       ??$_Traits_compare@U?$char_traits@D@std@@@std@@YAHQBDI0I@Z 1003c9c0 f i db.obj
 0001:0003ba40       ??$_Resize@V<lambda_81347dfc5f0aeeb4f702a2105f3e11fc>@@@?$vector@V?$basic_json@Vmap@std@@Vvector@2@V?$basic_string@DU?$char_traits@D@std@@V?$allocator@D@2@@2@_N_J_KNVallocator@2@Uadl_serializer@json_abi_v3_11_3@nlohmann@@V?$vector@EV?$allocator@E@std@@@2@X@json_abi_v3_11_3@nlohmann@@V?$allocator@V?$basic_json@Vmap@std@@Vvector@2@V?$basic_string@DU?$char_traits@D@std@@V?$allocator@D@2@@2@_N_J_KNVallocator@2@Uadl_serializer@json_abi_v3_11_3@nlohmann@@V?$vector@EV?$allocator@E@std@@@2@X@json_abi_v3_11_3@nlohmann@@@std@@@std@@AAEXIV<lambda_81347dfc5f0aeeb4f702a2105f3e11fc>@@@Z 1003ca40 f i db.obj
 0001:0003bb70       ??$dump_integer@E$0A@@?$serializer@V?$basic_json@Vmap@std@@Vvector@2@V?$basic_string@DU?$char_traits@D@std@@V?$allocator@D@2@@2@_N_J_KNVallocator@2@Uadl_serializer@json_abi_v3_11_3@nlohmann@@V?$vector@EV?$allocator@E@std@@@2@X@json_abi_v3_11_3@nlohmann@@@detail@json_abi_v3_11_3@nlohmann@@AAEXE@Z 1003cb70 f i db.obj
 0001:0003bc40       ??$dump_integer@_K$0A@@?$serializer@V?$basic_json@Vmap@std@@Vvector@2@V?$basic_string@DU?$char_traits@D@std@@V?$allocator@D@2@@2@_N_J_KNVallocator@2@Uadl_serializer@json_abi_v3_11_3@nlohmann@@V?$vector@EV?$allocator@E@std@@@2@X@json_abi_v3_11_3@nlohmann@@@detail@json_abi_v3_11_3@nlohmann@@AAEX_K@Z 1003cc40 f i db.obj
 0001:0003bd10       ??$_Reallocate_grow_by@V<lambda_c1b8c41cb4019640539cfd828748c4d4>@@ID@?$basic_string@DU?$char_traits@D@std@@V?$allocator@D@2@@std@@QAEAAV01@IV<lambda_c1b8c41cb4019640539cfd828748c4d4>@@ID@Z 1003cd10 f i db.obj
 0001:0003be60       ??$_Destroy_range@V?$allocator@V?$basic_string@DU?$char_traits@D@std@@V?$allocator@D@2@@std@@@std@@@std@@YAXPAV?$basic_string@DU?$char_traits@D@std@@V?$allocator@D@2@@0@0AAV?$allocator@V?$basic_string@DU?$char_traits@D@std@@V?$allocator@D@2@@std@@@0@@Z 1003ce60 f i db.obj
 0001:0003bed0       ??$move@V?$_Vector_iterator@V?$_Vector_val@U?$_Simple_types@V?$basic_json@Vmap@std@@Vvector@2@V?$basic_string@DU?$char_traits@D@std@@V?$allocator@D@2@@2@_N_J_KNVallocator@2@Uadl_serializer@json_abi_v3_11_3@nlohmann@@V?$vector@EV?$allocator@E@std@@@2@X@json_abi_v3_11_3@nlohmann@@@std@@@std@@@std@@V?$back_insert_iterator@V?$vector@V?$basic_json@Vmap@std@@Vvector@2@V?$basic_string@DU?$char_traits@D@std@@V?$allocator@D@2@@2@_N_J_KNVallocator@2@Uadl_serializer@json_abi_v3_11_3@nlohmann@@V?$vector@EV?$allocator@E@std@@@2@X@json_abi_v3_11_3@nlohmann@@V?$allocator@V?$basic_json@Vmap@std@@Vvector@2@V?$basic_string@DU?$char_traits@D@std@@V?$allocator@D@2@@2@_N_J_KNVallocator@2@Uadl_serializer@json_abi_v3_11_3@nlohmann@@V?$vector@EV?$allocator@E@std@@@2@X@json_abi_v3_11_3@nlohmann@@@std@@@std@@@2@@std@@YA?AV?$back_insert_iterator@V?$vector@V?$basic_json@Vmap@std@@Vvector@2@V?$basic_string@DU?$char_traits@D@std@@V?$allocator@D@2@@2@_N_J_KNVallocator@2@Uadl_serializer@json_abi_v3_11_3@nlohmann@@V?$vector@EV?$allocator@E@std@@@2@X@json_abi_v3_11_3@nlohmann@@V?$allocator@V?$basic_json@Vmap@std@@Vvector@2@V?$basic_string@DU?$char_traits@D@std@@V?$allocator@D@2@@2@_N_J_KNVallocator@2@Uadl_serializer@json_abi_v3_11_3@nlohmann@@V?$vector@EV?$allocator@E@std@@@2@X@json_abi_v3_11_3@nlohmann@@@std@@@std@@@0@V?$_Vector_iterator@V?$_Vector_val@U?$_Simple_types@V?$basic_json@Vmap@std@@Vvector@2@V?$basic_string@DU?$char_traits@D@std@@V?$allocator@D@2@@2@_N_J_KNVallocator@2@Uadl_serializer@json_abi_v3_11_3@nlohmann@@V?$vector@EV?$allocator@E@std@@@2@X@json_abi_v3_11_3@nlohmann@@@std@@@std@@@0@0V10@@Z 1003ced0 f i db.obj
 0001:0003bf40       ??$isfinite@N@@YA_NN@Z     1003cf40 f i db.obj
 0001:0003bf70       ??$concat@V?$basic_string@DU?$char_traits@D@std@@V?$allocator@D@2@@std@@AAY0BN@$$CBDV12@AAY04$$CBDV12@@detail@json_abi_v3_11_3@nlohmann@@YA?AV?$basic_string@DU?$char_traits@D@std@@V?$allocator@D@2@@std@@AAY0BN@$$CBD$$QAV34@AAY04$$CBD1@Z 1003cf70 f i db.obj
 0001:0003c020       ??$create@$$T$0A@@type_error@detail@json_abi_v3_11_3@nlohmann@@SA?AV0123@HABV?$basic_string@DU?$char_traits@D@std@@V?$allocator@D@2@@std@@$$T@Z 1003d020 f i db.obj
 0001:0003c230       ??$concat@V?$basic_string@DU?$char_traits@D@std@@V?$allocator@D@2@@std@@AAY0CH@$$CBDV12@@detail@json_abi_v3_11_3@nlohmann@@YA?AV?$basic_string@DU?$char_traits@D@std@@V?$allocator@D@2@@std@@AAY0CH@$$CBD$$QAV34@@Z 1003d230 f i db.obj
 0001:0003c2c0       ??$create@V?$basic_string@DU?$char_traits@D@std@@V?$allocator@D@2@@std@@AAY00$$CBD@?$basic_json@Vmap@std@@Vvector@2@V?$basic_string@DU?$char_traits@D@std@@V?$allocator@D@2@@2@_N_J_KNVallocator@2@Uadl_serializer@json_abi_v3_11_3@nlohmann@@V?$vector@EV?$allocator@E@std@@@2@X@json_abi_v3_11_3@nlohmann@@CAPAV?$basic_string@DU?$char_traits@D@std@@V?$allocator@D@2@@std@@AAY00$$CBD@Z 1003d2c0 f i db.obj
 0001:0003c350       ??$create@$$T$0A@@other_error@detail@json_abi_v3_11_3@nlohmann@@SA?AV0123@HABV?$basic_string@DU?$char_traits@D@std@@V?$allocator@D@2@@std@@$$T@Z 1003d350 f i db.obj
 0001:0003c560       ??$_Emplace_reallocate@V?$basic_json@Vmap@std@@Vvector@2@V?$basic_string@DU?$char_traits@D@std@@V?$allocator@D@2@@2@_N_J_KNVallocator@2@Uadl_serializer@json_abi_v3_11_3@nlohmann@@V?$vector@EV?$allocator@E@std@@@2@X@json_abi_v3_11_3@nlohmann@@@?$vector@V?$basic_json@Vmap@std@@Vvector@2@V?$basic_string@DU?$char_traits@D@std@@V?$allocator@D@2@@2@_N_J_KNVallocator@2@Uadl_serializer@json_abi_v3_11_3@nlohmann@@V?$vector@EV?$allocator@E@std@@@2@X@json_abi_v3_11_3@nlohmann@@V?$allocator@V?$basic_json@Vmap@std@@Vvector@2@V?$basic_string@DU?$char_traits@D@std@@V?$allocator@D@2@@2@_N_J_KNVallocator@2@Uadl_serializer@json_abi_v3_11_3@nlohmann@@V?$vector@EV?$allocator@E@std@@@2@X@json_abi_v3_11_3@nlohmann@@@std@@@std@@QAEPAV?$basic_json@Vmap@std@@Vvector@2@V?$basic_string@DU?$char_traits@D@std@@V?$allocator@D@2@@2@_N_J_KNVallocator@2@Uadl_serializer@json_abi_v3_11_3@nlohmann@@V?$vector@EV?$allocator@E@std@@@2@X@json_abi_v3_11_3@nlohmann@@QAV234@$$QAV234@@Z 1003d560 f i db.obj
 0001:0003c700       ??0invalid_iterator@detail@json_abi_v3_11_3@nlohmann@@QAE@ABV0123@@Z 1003d700 f i db.obj
 0001:0003c720       ??1?$parser@V?$basic_json@Vmap@std@@Vvector@2@V?$basic_string@DU?$char_traits@D@std@@V?$allocator@D@2@@2@_N_J_KNVallocator@2@Uadl_serializer@json_abi_v3_11_3@nlohmann@@V?$vector@EV?$allocator@E@std@@@2@X@json_abi_v3_11_3@nlohmann@@V?$iterator_input_adapter@V?$_String_const_iterator@V?$_String_val@U?$_Simple_types@D@std@@@std@@@std@@@detail@23@@detail@json_abi_v3_11_3@nlohmann@@QAE@XZ 1003d720 f i db.obj
 0001:0003c780       ??1?$lexer@V?$basic_json@Vmap@std@@Vvector@2@V?$basic_string@DU?$char_traits@D@std@@V?$allocator@D@2@@2@_N_J_KNVallocator@2@Uadl_serializer@json_abi_v3_11_3@nlohmann@@V?$vector@EV?$allocator@E@std@@@2@X@json_abi_v3_11_3@nlohmann@@V?$iterator_input_adapter@V?$_String_const_iterator@V?$_String_val@U?$_Simple_types@D@std@@@std@@@std@@@detail@23@@detail@json_abi_v3_11_3@nlohmann@@QAE@XZ 1003d780 f i db.obj
 0001:0003c820       ??1?$pair@$$CBV?$basic_string@DU?$char_traits@D@std@@V?$allocator@D@2@@std@@V?$basic_json@Vmap@std@@Vvector@2@V?$basic_string@DU?$char_traits@D@std@@V?$allocator@D@2@@2@_N_J_KNVallocator@2@Uadl_serializer@json_abi_v3_11_3@nlohmann@@V?$vector@EV?$allocator@E@std@@@2@X@json_abi_v3_11_3@nlohmann@@@std@@QAE@XZ 1003d820 f i db.obj
 0001:0003c880       ??1?$unique_ptr@V?$basic_string@DU?$char_traits@D@std@@V?$allocator@D@2@@std@@V<lambda_2fa6a6c9437423a28ab8583e1625b3ef>@@@std@@QAE@XZ 1003d880 f i db.obj
 0001:0003c880       ??1?$unique_ptr@V?$basic_string@DU?$char_traits@D@std@@V?$allocator@D@2@@std@@V<lambda_fb2f920fc4b1c1037a4db1965a212736>@@@std@@QAE@XZ 1003d880 f i db.obj
 0001:0003c880       ??1?$unique_ptr@V?$basic_string@DU?$char_traits@D@std@@V?$allocator@D@2@@std@@V<lambda_1befeb6ff64cdd70b6ac26fd02f1404f>@@@std@@QAE@XZ 1003d880 f i db.obj
 0001:0003c8a0       ?_Delete_this@?$_Ref_count_obj@V?$output_string_adapter@DV?$basic_string@DU?$char_traits@D@std@@V?$allocator@D@2@@std@@@detail@json_abi_v3_11_3@nlohmann@@@std@@EAEXXZ 1003d8a0 f i db.obj
 0001:0003c8a0       ?_Delete_this@?$_Ref_count_obj@V?$output_stream_adapter@D@detail@json_abi_v3_11_3@nlohmann@@@std@@EAEXXZ 1003d8a0 f i db.obj
 0001:0003c8b0       ?_Destroy@?$_Ref_count_obj@V?$output_string_adapter@DV?$basic_string@DU?$char_traits@D@std@@V?$allocator@D@2@@std@@@detail@json_abi_v3_11_3@nlohmann@@@std@@EAEXXZ 1003d8b0 f i db.obj
 0001:0003c8b0       ?_Destroy@?$_Ref_count_obj@V?$output_stream_adapter@D@detail@json_abi_v3_11_3@nlohmann@@@std@@EAEXXZ 1003d8b0 f i db.obj
 0001:0003c8c0       ??1?$unique_ptr@V?$map@V?$basic_string@DU?$char_traits@D@std@@V?$allocator@D@2@@std@@V?$basic_json@Vmap@std@@Vvector@2@V?$basic_string@DU?$char_traits@D@std@@V?$allocator@D@2@@2@_N_J_KNVallocator@2@Uadl_serializer@json_abi_v3_11_3@nlohmann@@V?$vector@EV?$allocator@E@std@@@2@X@json_abi_v3_11_3@nlohmann@@U?$less@X@2@V?$allocator@U?$pair@$$CBV?$basic_string@DU?$char_traits@D@std@@V?$allocator@D@2@@std@@V?$basic_json@Vmap@std@@Vvector@2@V?$basic_string@DU?$char_traits@D@std@@V?$allocator@D@2@@2@_N_J_KNVallocator@2@Uadl_serializer@json_abi_v3_11_3@nlohmann@@V?$vector@EV?$allocator@E@std@@@2@X@json_abi_v3_11_3@nlohmann@@@std@@@2@@std@@V<lambda_60d71ae31789394e6531e00e68811e59>@@@std@@QAE@XZ 1003d8c0 f i db.obj
 0001:0003c8c0       ??1?$unique_ptr@V?$map@V?$basic_string@DU?$char_traits@D@std@@V?$allocator@D@2@@std@@V?$basic_json@Vmap@std@@Vvector@2@V?$basic_string@DU?$char_traits@D@std@@V?$allocator@D@2@@2@_N_J_KNVallocator@2@Uadl_serializer@json_abi_v3_11_3@nlohmann@@V?$vector@EV?$allocator@E@std@@@2@X@json_abi_v3_11_3@nlohmann@@U?$less@X@2@V?$allocator@U?$pair@$$CBV?$basic_string@DU?$char_traits@D@std@@V?$allocator@D@2@@std@@V?$basic_json@Vmap@std@@Vvector@2@V?$basic_string@DU?$char_traits@D@std@@V?$allocator@D@2@@2@_N_J_KNVallocator@2@Uadl_serializer@json_abi_v3_11_3@nlohmann@@V?$vector@EV?$allocator@E@std@@@2@X@json_abi_v3_11_3@nlohmann@@@std@@@2@@std@@V<lambda_994a9c29b409d138058bde2cec2ae658>@@@std@@QAE@XZ 1003d8c0 f i db.obj
 0001:0003c8e0       ?parse@?$parser@V?$basic_json@Vmap@std@@Vvector@2@V?$basic_string@DU?$char_traits@D@std@@V?$allocator@D@2@@2@_N_J_KNVallocator@2@Uadl_serializer@json_abi_v3_11_3@nlohmann@@V?$vector@EV?$allocator@E@std@@@2@X@json_abi_v3_11_3@nlohmann@@V?$iterator_input_adapter@V?$_String_const_iterator@V?$_String_val@U?$_Simple_types@D@std@@@std@@@std@@@detail@23@@detail@json_abi_v3_11_3@nlohmann@@QAEX_NAAV?$basic_json@Vmap@std@@Vvector@2@V?$basic_string@DU?$char_traits@D@std@@V?$allocator@D@2@@2@_N_J_KNVallocator@2@Uadl_serializer@json_abi_v3_11_3@nlohmann@@V?$vector@EV?$allocator@E@std@@@2@X@34@@Z 1003d8e0 f i db.obj
 0001:0003cf90       ??1?$vector@DV?$allocator@D@std@@@std@@QAE@XZ 1003df90 f i db.obj
 0001:0003cfe0       ?count_digits@?$serializer@V?$basic_json@Vmap@std@@Vvector@2@V?$basic_string@DU?$char_traits@D@std@@V?$allocator@D@2@@2@_N_J_KNVallocator@2@Uadl_serializer@json_abi_v3_11_3@nlohmann@@V?$vector@EV?$allocator@E@std@@@2@X@json_abi_v3_11_3@nlohmann@@@detail@json_abi_v3_11_3@nlohmann@@AAEI_K@Z 1003dfe0 f i db.obj
 0001:0003d060       ??8json_abi_v3_11_3@nlohmann@@YA_NABV?$basic_json@Vmap@std@@Vvector@2@V?$basic_string@DU?$char_traits@D@std@@V?$allocator@D@2@@2@_N_J_KNVallocator@2@Uadl_serializer@json_abi_v3_11_3@nlohmann@@V?$vector@EV?$allocator@E@std@@@2@X@01@0@Z 1003e060 f i db.obj
 0001:0003d3e0       ??1?$json_sax_dom_callback_parser@V?$basic_json@Vmap@std@@Vvector@2@V?$basic_string@DU?$char_traits@D@std@@V?$allocator@D@2@@2@_N_J_KNVallocator@2@Uadl_serializer@json_abi_v3_11_3@nlohmann@@V?$vector@EV?$allocator@E@std@@@2@X@json_abi_v3_11_3@nlohmann@@@detail@json_abi_v3_11_3@nlohmann@@QAE@XZ 1003e3e0 f i db.obj
 0001:0003d4b0       ??1?$json_sax_dom_parser@V?$basic_json@Vmap@std@@Vvector@2@V?$basic_string@DU?$char_traits@D@std@@V?$allocator@D@2@@2@_N_J_KNVallocator@2@Uadl_serializer@json_abi_v3_11_3@nlohmann@@V?$vector@EV?$allocator@E@std@@@2@X@json_abi_v3_11_3@nlohmann@@@detail@json_abi_v3_11_3@nlohmann@@QAE@XZ 1003e4b0 f i db.obj
 0001:0003d510       ?get_token_string@?$lexer@V?$basic_json@Vmap@std@@Vvector@2@V?$basic_string@DU?$char_traits@D@std@@V?$allocator@D@2@@2@_N_J_KNVallocator@2@Uadl_serializer@json_abi_v3_11_3@nlohmann@@V?$vector@EV?$allocator@E@std@@@2@X@json_abi_v3_11_3@nlohmann@@V?$iterator_input_adapter@V?$_String_const_iterator@V?$_String_val@U?$_Simple_types@D@std@@@std@@@std@@@detail@23@@detail@json_abi_v3_11_3@nlohmann@@QBE?AV?$basic_string@DU?$char_traits@D@std@@V?$allocator@D@2@@std@@XZ 1003e510 f i db.obj
 0001:0003d5f0       ?exception_message@?$parser@V?$basic_json@Vmap@std@@Vvector@2@V?$basic_string@DU?$char_traits@D@std@@V?$allocator@D@2@@2@_N_J_KNVallocator@2@Uadl_serializer@json_abi_v3_11_3@nlohmann@@V?$vector@EV?$allocator@E@std@@@2@X@json_abi_v3_11_3@nlohmann@@V?$iterator_input_adapter@V?$_String_const_iterator@V?$_String_val@U?$_Simple_types@D@std@@@std@@@std@@@detail@23@@detail@json_abi_v3_11_3@nlohmann@@AAE?AV?$basic_string@DU?$char_traits@D@std@@V?$allocator@D@2@@std@@W4token_type@?$lexer_base@V?$basic_json@Vmap@std@@Vvector@2@V?$basic_string@DU?$char_traits@D@std@@V?$allocator@D@2@@2@_N_J_KNVallocator@2@Uadl_serializer@json_abi_v3_11_3@nlohmann@@V?$vector@EV?$allocator@E@std@@@2@X@json_abi_v3_11_3@nlohmann@@@234@ABV56@@Z 1003e5f0 f i db.obj
 0001:0003d9a0       ?get_token@?$parser@V?$basic_json@Vmap@std@@Vvector@2@V?$basic_string@DU?$char_traits@D@std@@V?$allocator@D@2@@2@_N_J_KNVallocator@2@Uadl_serializer@json_abi_v3_11_3@nlohmann@@V?$vector@EV?$allocator@E@std@@@2@X@json_abi_v3_11_3@nlohmann@@V?$iterator_input_adapter@V?$_String_const_iterator@V?$_String_val@U?$_Simple_types@D@std@@@std@@@std@@@detail@23@@detail@json_abi_v3_11_3@nlohmann@@AAE?AW4token_type@?$lexer_base@V?$basic_json@Vmap@std@@Vvector@2@V?$basic_string@DU?$char_traits@D@std@@V?$allocator@D@2@@2@_N_J_KNVallocator@2@Uadl_serializer@json_abi_v3_11_3@nlohmann@@V?$vector@EV?$allocator@E@std@@@2@X@json_abi_v3_11_3@nlohmann@@@234@XZ 1003e9a0 f i db.obj
 0001:0003d9b0       ??1?$_Tree_comp_alloc@V?$_Tmap_traits@V?$basic_string@DU?$char_traits@D@std@@V?$allocator@D@2@@std@@V?$basic_json@Vmap@std@@Vvector@2@V?$basic_string@DU?$char_traits@D@std@@V?$allocator@D@2@@2@_N_J_KNVallocator@2@Uadl_serializer@json_abi_v3_11_3@nlohmann@@V?$vector@EV?$allocator@E@std@@@2@X@json_abi_v3_11_3@nlohmann@@U?$less@X@2@V?$allocator@U?$pair@$$CBV?$basic_string@DU?$char_traits@D@std@@V?$allocator@D@2@@std@@V?$basic_json@Vmap@std@@Vvector@2@V?$basic_string@DU?$char_traits@D@std@@V?$allocator@D@2@@2@_N_J_KNVallocator@2@Uadl_serializer@json_abi_v3_11_3@nlohmann@@V?$vector@EV?$allocator@E@std@@@2@X@json_abi_v3_11_3@nlohmann@@@std@@@2@$0A@@std@@@std@@QAE@XZ 1003e9b0 f i db.obj
 0001:0003d9c0       ?_Tidy@?$_Tree@V?$_Tmap_traits@V?$basic_string@DU?$char_traits@D@std@@V?$allocator@D@2@@std@@V?$basic_json@Vmap@std@@Vvector@2@V?$basic_string@DU?$char_traits@D@std@@V?$allocator@D@2@@2@_N_J_KNVallocator@2@Uadl_serializer@json_abi_v3_11_3@nlohmann@@V?$vector@EV?$allocator@E@std@@@2@X@json_abi_v3_11_3@nlohmann@@U?$less@X@2@V?$allocator@U?$pair@$$CBV?$basic_string@DU?$char_traits@D@std@@V?$allocator@D@2@@std@@V?$basic_json@Vmap@std@@Vvector@2@V?$basic_string@DU?$char_traits@D@std@@V?$allocator@D@2@@2@_N_J_KNVallocator@2@Uadl_serializer@json_abi_v3_11_3@nlohmann@@V?$vector@EV?$allocator@E@std@@@2@X@json_abi_v3_11_3@nlohmann@@@std@@@2@$0A@@std@@@std@@IAEXXZ 1003e9c0 f i db.obj
 0001:0003da20       ?insert@?$basic_string@DU?$char_traits@D@std@@V?$allocator@D@2@@std@@QAEAAV12@IQBDI@Z 1003ea20 f i db.obj
 0001:0003dad0       ?scan@?$lexer@V?$basic_json@Vmap@std@@Vvector@2@V?$basic_string@DU?$char_traits@D@std@@V?$allocator@D@2@@2@_N_J_KNVallocator@2@Uadl_serializer@json_abi_v3_11_3@nlohmann@@V?$vector@EV?$allocator@E@std@@@2@X@json_abi_v3_11_3@nlohmann@@V?$iterator_input_adapter@V?$_String_const_iterator@V?$_String_val@U?$_Simple_types@D@std@@@std@@@std@@@detail@23@@detail@json_abi_v3_11_3@nlohmann@@QAE?AW4token_type@?$lexer_base@V?$basic_json@Vmap@std@@Vvector@2@V?$basic_string@DU?$char_traits@D@std@@V?$allocator@D@2@@2@_N_J_KNVallocator@2@Uadl_serializer@json_abi_v3_11_3@nlohmann@@V?$vector@EV?$allocator@E@std@@@2@X@json_abi_v3_11_3@nlohmann@@@234@XZ 1003ead0 f i db.obj
 0001:0003de70       ?token_type_name@?$lexer_base@V?$basic_json@Vmap@std@@Vvector@2@V?$basic_string@DU?$char_traits@D@std@@V?$allocator@D@2@@2@_N_J_KNVallocator@2@Uadl_serializer@json_abi_v3_11_3@nlohmann@@V?$vector@EV?$allocator@E@std@@@2@X@json_abi_v3_11_3@nlohmann@@@detail@json_abi_v3_11_3@nlohmann@@SAPBDW4token_type@1234@@Z 1003ee70 f i db.obj
 0001:0003df20       ?push_back@?$vector@_NV?$allocator@_N@std@@@std@@QAEXAB_N@Z 1003ef20 f i db.obj
 0001:0003df70       ?skip_whitespace@?$lexer@V?$basic_json@Vmap@std@@Vvector@2@V?$basic_string@DU?$char_traits@D@std@@V?$allocator@D@2@@2@_N_J_KNVallocator@2@Uadl_serializer@json_abi_v3_11_3@nlohmann@@V?$vector@EV?$allocator@E@std@@@2@X@json_abi_v3_11_3@nlohmann@@V?$iterator_input_adapter@V?$_String_const_iterator@V?$_String_val@U?$_Simple_types@D@std@@@std@@@std@@@detail@23@@detail@json_abi_v3_11_3@nlohmann@@QAEXXZ 1003ef70 f i db.obj
 0001:0003e000       ?scan_literal@?$lexer@V?$basic_json@Vmap@std@@Vvector@2@V?$basic_string@DU?$char_traits@D@std@@V?$allocator@D@2@@2@_N_J_KNVallocator@2@Uadl_serializer@json_abi_v3_11_3@nlohmann@@V?$vector@EV?$allocator@E@std@@@2@X@json_abi_v3_11_3@nlohmann@@V?$iterator_input_adapter@V?$_String_const_iterator@V?$_String_val@U?$_Simple_types@D@std@@@std@@@std@@@detail@23@@detail@json_abi_v3_11_3@nlohmann@@AAE?AW4token_type@?$lexer_base@V?$basic_json@Vmap@std@@Vvector@2@V?$basic_string@DU?$char_traits@D@std@@V?$allocator@D@2@@2@_N_J_KNVallocator@2@Uadl_serializer@json_abi_v3_11_3@nlohmann@@V?$vector@EV?$allocator@E@std@@@2@X@json_abi_v3_11_3@nlohmann@@@234@PBDIW456234@@Z 1003f000 f i db.obj
 0001:0003e0b0       ?scan_number@?$lexer@V?$basic_json@Vmap@std@@Vvector@2@V?$basic_string@DU?$char_traits@D@std@@V?$allocator@D@2@@2@_N_J_KNVallocator@2@Uadl_serializer@json_abi_v3_11_3@nlohmann@@V?$vector@EV?$allocator@E@std@@@2@X@json_abi_v3_11_3@nlohmann@@V?$iterator_input_adapter@V?$_String_const_iterator@V?$_String_val@U?$_Simple_types@D@std@@@std@@@std@@@detail@23@@detail@json_abi_v3_11_3@nlohmann@@AAE?AW4token_type@?$lexer_base@V?$basic_json@Vmap@std@@Vvector@2@V?$basic_string@DU?$char_traits@D@std@@V?$allocator@D@2@@2@_N_J_KNVallocator@2@Uadl_serializer@json_abi_v3_11_3@nlohmann@@V?$vector@EV?$allocator@E@std@@@2@X@json_abi_v3_11_3@nlohmann@@@234@XZ 1003f0b0 f i db.obj
 0001:0003e510       ?scan_string@?$lexer@V?$basic_json@Vmap@std@@Vvector@2@V?$basic_string@DU?$char_traits@D@std@@V?$allocator@D@2@@2@_N_J_KNVallocator@2@Uadl_serializer@json_abi_v3_11_3@nlohmann@@V?$vector@EV?$allocator@E@std@@@2@X@json_abi_v3_11_3@nlohmann@@V?$iterator_input_adapter@V?$_String_const_iterator@V?$_String_val@U?$_Simple_types@D@std@@@std@@@std@@@detail@23@@detail@json_abi_v3_11_3@nlohmann@@AAE?AW4token_type@?$lexer_base@V?$basic_json@Vmap@std@@Vvector@2@V?$basic_string@DU?$char_traits@D@std@@V?$allocator@D@2@@2@_N_J_KNVallocator@2@Uadl_serializer@json_abi_v3_11_3@nlohmann@@V?$vector@EV?$allocator@E@std@@@2@X@json_abi_v3_11_3@nlohmann@@@234@XZ 1003f510 f i db.obj
 0001:0003ec60       ?end@?$vector@_NV?$allocator@_N@std@@@std@@QAE?AV?$_Vb_iterator@U?$_Wrap_alloc@V?$allocator@I@std@@@std@@@2@XZ 1003fc60 f i db.obj
 0001:0003ecb0       ?get@?$lexer@V?$basic_json@Vmap@std@@Vvector@2@V?$basic_string@DU?$char_traits@D@std@@V?$allocator@D@2@@2@_N_J_KNVallocator@2@Uadl_serializer@json_abi_v3_11_3@nlohmann@@V?$vector@EV?$allocator@E@std@@@2@X@json_abi_v3_11_3@nlohmann@@V?$iterator_input_adapter@V?$_String_const_iterator@V?$_String_val@U?$_Simple_types@D@std@@@std@@@std@@@detail@23@@detail@json_abi_v3_11_3@nlohmann@@AAEHXZ 1003fcb0 f i db.obj
 0001:0003ed20       ?next_byte_in_range@?$lexer@V?$basic_json@Vmap@std@@Vvector@2@V?$basic_string@DU?$char_traits@D@std@@V?$allocator@D@2@@2@_N_J_KNVallocator@2@Uadl_serializer@json_abi_v3_11_3@nlohmann@@V?$vector@EV?$allocator@E@std@@@2@X@json_abi_v3_11_3@nlohmann@@V?$iterator_input_adapter@V?$_String_const_iterator@V?$_String_val@U?$_Simple_types@D@std@@@std@@@std@@@detail@23@@detail@json_abi_v3_11_3@nlohmann@@AAE_NV?$initializer_list@H@std@@@Z 1003fd20 f i db.obj
 0001:0003ede0       ?get_codepoint@?$lexer@V?$basic_json@Vmap@std@@Vvector@2@V?$basic_string@DU?$char_traits@D@std@@V?$allocator@D@2@@2@_N_J_KNVallocator@2@Uadl_serializer@json_abi_v3_11_3@nlohmann@@V?$vector@EV?$allocator@E@std@@@2@X@json_abi_v3_11_3@nlohmann@@V?$iterator_input_adapter@V?$_String_const_iterator@V?$_String_val@U?$_Simple_types@D@std@@@std@@@std@@@detail@23@@detail@json_abi_v3_11_3@nlohmann@@AAEHXZ 1003fde0 f i db.obj
 0001:0003eef0       ?_Extract@?$_Tree_val@U?$_Tree_simple_types@U?$pair@$$CBV?$basic_string@DU?$char_traits@D@std@@V?$allocator@D@2@@std@@V?$basic_json@Vmap@std@@Vvector@2@V?$basic_string@DU?$char_traits@D@std@@V?$allocator@D@2@@2@_N_J_KNVallocator@2@Uadl_serializer@json_abi_v3_11_3@nlohmann@@V?$vector@EV?$allocator@E@std@@@2@X@json_abi_v3_11_3@nlohmann@@@std@@@std@@@std@@QAEPAU?$_Tree_node@U?$pair@$$CBV?$basic_string@DU?$char_traits@D@std@@V?$allocator@D@2@@std@@V?$basic_json@Vmap@std@@Vvector@2@V?$basic_string@DU?$char_traits@D@std@@V?$allocator@D@2@@2@_N_J_KNVallocator@2@Uadl_serializer@json_abi_v3_11_3@nlohmann@@V?$vector@EV?$allocator@E@std@@@2@X@json_abi_v3_11_3@nlohmann@@@std@@PAX@2@V?$_Tree_const_iterator@V?$_Tree_val@U?$_Tree_simple_types@U?$pair@$$CBV?$basic_string@DU?$char_traits@D@std@@V?$allocator@D@2@@std@@V?$basic_json@Vmap@std@@Vvector@2@V?$basic_string@DU?$char_traits@D@std@@V?$allocator@D@2@@2@_N_J_KNVallocator@2@Uadl_serializer@json_abi_v3_11_3@nlohmann@@V?$vector@EV?$allocator@E@std@@@2@X@json_abi_v3_11_3@nlohmann@@@std@@@std@@@std@@@2@@Z 1003fef0 f i db.obj
 0001:0003f140       ??H?$_Vb_iterator@U?$_Wrap_alloc@V?$allocator@I@std@@@std@@@std@@QBE?AV01@H@Z 10040140 f i db.obj
 0001:0003f1a0       ?_Insert_n@?$vector@_NV?$allocator@_N@std@@@std@@QAE?AV?$_Vb_iterator@U?$_Wrap_alloc@V?$allocator@I@std@@@std@@@2@V?$_Vb_const_iterator@U?$_Wrap_alloc@V?$allocator@I@std@@@std@@@2@IAB_N@Z 100401a0 f i db.obj
 0001:0003f340       ??$create@$$T$0A@@parse_error@detail@json_abi_v3_11_3@nlohmann@@SA?AV0123@HABUposition_t@123@ABV?$basic_string@DU?$char_traits@D@std@@V?$allocator@D@2@@std@@$$T@Z 10040340 f i db.obj
 0001:0003f5d0       ??$create@PAV?$basic_json@Vmap@std@@Vvector@2@V?$basic_string@DU?$char_traits@D@std@@V?$allocator@D@2@@2@_N_J_KNVallocator@2@Uadl_serializer@json_abi_v3_11_3@nlohmann@@V?$vector@EV?$allocator@E@std@@@2@X@json_abi_v3_11_3@nlohmann@@$0A@@invalid_iterator@detail@json_abi_v3_11_3@nlohmann@@SA?AV0123@HABV?$basic_string@DU?$char_traits@D@std@@V?$allocator@D@2@@std@@PAV?$basic_json@Vmap@std@@Vvector@2@V?$basic_string@DU?$char_traits@D@std@@V?$allocator@D@2@@2@_N_J_KNVallocator@2@Uadl_serializer@json_abi_v3_11_3@nlohmann@@V?$vector@EV?$allocator@E@std@@@2@X@23@@Z 100405d0 f i db.obj
 0001:0003f5d0       ??$create@PBV?$basic_json@Vmap@std@@Vvector@2@V?$basic_string@DU?$char_traits@D@std@@V?$allocator@D@2@@2@_N_J_KNVallocator@2@Uadl_serializer@json_abi_v3_11_3@nlohmann@@V?$vector@EV?$allocator@E@std@@@2@X@json_abi_v3_11_3@nlohmann@@$0A@@invalid_iterator@detail@json_abi_v3_11_3@nlohmann@@SA?AV0123@HABV?$basic_string@DU?$char_traits@D@std@@V?$allocator@D@2@@std@@PBV?$basic_json@Vmap@std@@Vvector@2@V?$basic_string@DU?$char_traits@D@std@@V?$allocator@D@2@@2@_N_J_KNVallocator@2@Uadl_serializer@json_abi_v3_11_3@nlohmann@@V?$vector@EV?$allocator@E@std@@@2@X@23@@Z 100405d0 f i NodeEval.obj
 0001:0003f7d0       ??$parser@V?$iterator_input_adapter@V?$_String_const_iterator@V?$_String_val@U?$_Simple_types@D@std@@@std@@@std@@@detail@json_abi_v3_11_3@nlohmann@@@?$basic_json@Vmap@std@@Vvector@2@V?$basic_string@DU?$char_traits@D@std@@V?$allocator@D@2@@2@_N_J_KNVallocator@2@Uadl_serializer@json_abi_v3_11_3@nlohmann@@V?$vector@EV?$allocator@E@std@@@2@X@json_abi_v3_11_3@nlohmann@@CA?AV?$parser@V?$basic_json@Vmap@std@@Vvector@2@V?$basic_string@DU?$char_traits@D@std@@V?$allocator@D@2@@2@_N_J_KNVallocator@2@Uadl_serializer@json_abi_v3_11_3@nlohmann@@V?$vector@EV?$allocator@E@std@@@2@X@json_abi_v3_11_3@nlohmann@@V?$iterator_input_adapter@V?$_String_const_iterator@V?$_String_val@U?$_Simple_types@D@std@@@std@@@std@@@detail@23@@detail@12@V?$iterator_input_adapter@V?$_String_const_iterator@V?$_String_val@U?$_Simple_types@D@std@@@std@@@std@@@412@V?$function@$$A6A_NHW4parse_event_t@detail@json_abi_v3_11_3@nlohmann@@AAV?$basic_json@Vmap@std@@Vvector@2@V?$basic_string@DU?$char_traits@D@std@@V?$allocator@D@2@@2@_N_J_KNVallocator@2@Uadl_serializer@json_abi_v3_11_3@nlohmann@@V?$vector@EV?$allocator@E@std@@@2@X@34@@Z@std@@_N2@Z 100407d0 f i db.obj
 0001:0003f9a0       ??$_Buynode@V?$basic_string@DU?$char_traits@D@std@@V?$allocator@D@2@@std@@$$T@?$_Tree_comp_alloc@V?$_Tmap_traits@V?$basic_string@DU?$char_traits@D@std@@V?$allocator@D@2@@std@@V?$basic_json@Vmap@std@@Vvector@2@V?$basic_string@DU?$char_traits@D@std@@V?$allocator@D@2@@2@_N_J_KNVallocator@2@Uadl_serializer@json_abi_v3_11_3@nlohmann@@V?$vector@EV?$allocator@E@std@@@2@X@json_abi_v3_11_3@nlohmann@@U?$less@X@2@V?$allocator@U?$pair@$$CBV?$basic_string@DU?$char_traits@D@std@@V?$allocator@D@2@@std@@V?$basic_json@Vmap@std@@Vvector@2@V?$basic_string@DU?$char_traits@D@std@@V?$allocator@D@2@@2@_N_J_KNVallocator@2@Uadl_serializer@json_abi_v3_11_3@nlohmann@@V?$vector@EV?$allocator@E@std@@@2@X@json_abi_v3_11_3@nlohmann@@@std@@@2@$0A@@std@@@std@@QAEPAU?$_Tree_node@U?$pair@$$CBV?$basic_string@DU?$char_traits@D@std@@V?$allocator@D@2@@std@@V?$basic_json@Vmap@std@@Vvector@2@V?$basic_string@DU?$char_traits@D@std@@V?$allocator@D@2@@2@_N_J_KNVallocator@2@Uadl_serializer@json_abi_v3_11_3@nlohmann@@V?$vector@EV?$allocator@E@std@@@2@X@json_abi_v3_11_3@nlohmann@@@std@@PAX@1@$$QAV?$basic_string@DU?$char_traits@D@std@@V?$allocator@D@2@@1@$$QA$$T@Z 100409a0 f i db.obj
 0001:0003fa50       ??$_Insert_nohint@AAU?$pair@$$CBV?$basic_string@DU?$char_traits@D@std@@V?$allocator@D@2@@std@@V?$basic_json@Vmap@std@@Vvector@2@V?$basic_string@DU?$char_traits@D@std@@V?$allocator@D@2@@2@_N_J_KNVallocator@2@Uadl_serializer@json_abi_v3_11_3@nlohmann@@V?$vector@EV?$allocator@E@std@@@2@X@json_abi_v3_11_3@nlohmann@@@std@@PAU?$_Tree_node@U?$pair@$$CBV?$basic_string@DU?$char_traits@D@std@@V?$allocator@D@2@@std@@V?$basic_json@Vmap@std@@Vvector@2@V?$basic_string@DU?$char_traits@D@std@@V?$allocator@D@2@@2@_N_J_KNVallocator@2@Uadl_serializer@json_abi_v3_11_3@nlohmann@@V?$vector@EV?$allocator@E@std@@@2@X@json_abi_v3_11_3@nlohmann@@@std@@PAX@2@@?$_Tree@V?$_Tmap_traits@V?$basic_string@DU?$char_traits@D@std@@V?$allocator@D@2@@std@@V?$basic_json@Vmap@std@@Vvector@2@V?$basic_string@DU?$char_traits@D@std@@V?$allocator@D@2@@2@_N_J_KNVallocator@2@Uadl_serializer@json_abi_v3_11_3@nlohmann@@V?$vector@EV?$allocator@E@std@@@2@X@json_abi_v3_11_3@nlohmann@@U?$less@X@2@V?$allocator@U?$pair@$$CBV?$basic_string@DU?$char_traits@D@std@@V?$allocator@D@2@@std@@V?$basic_json@Vmap@std@@Vvector@2@V?$basic_string@DU?$char_traits@D@std@@V?$allocator@D@2@@2@_N_J_KNVallocator@2@Uadl_serializer@json_abi_v3_11_3@nlohmann@@V?$vector@EV?$allocator@E@std@@@2@X@json_abi_v3_11_3@nlohmann@@@std@@@2@$0A@@std@@@std@@IAE?AU?$pair@V?$_Tree_iterator@V?$_Tree_val@U?$_Tree_simple_types@U?$pair@$$CBV?$basic_string@DU?$char_traits@D@std@@V?$allocator@D@2@@std@@V?$basic_json@Vmap@std@@Vvector@2@V?$basic_string@DU?$char_traits@D@std@@V?$allocator@D@2@@2@_N_J_KNVallocator@2@Uadl_serializer@json_abi_v3_11_3@nlohmann@@V?$vector@EV?$allocator@E@std@@@2@X@json_abi_v3_11_3@nlohmann@@@std@@@std@@@std@@@std@@_N@1@_NAAU?$pair@$$CBV?$basic_string@DU?$char_traits@D@std@@V?$allocator@D@2@@std@@V?$basic_json@Vmap@std@@Vvector@2@V?$basic_string@DU?$char_traits@D@std@@V?$allocator@D@2@@2@_N_J_KNVallocator@2@Uadl_serializer@json_abi_v3_11_3@nlohmann@@V?$vector@EV?$allocator@E@std@@@2@X@json_abi_v3_11_3@nlohmann@@@1@PAU?$_Tree_node@U?$pair@$$CBV?$basic_string@DU?$char_traits@D@std@@V?$allocator@D@2@@std@@V?$basic_json@Vmap@std@@Vvector@2@V?$basic_string@DU?$char_traits@D@std@@V?$allocator@D@2@@2@_N_J_KNVallocator@2@Uadl_serializer@json_abi_v3_11_3@nlohmann@@V?$vector@EV?$allocator@E@std@@@2@X@json_abi_v3_11_3@nlohmann@@@std@@PAX@1@@Z 10040a50 f i db.obj
 0001:0003fc00       ??$concat@V?$basic_string@DU?$char_traits@D@std@@V?$allocator@D@2@@std@@V12@V12@ABV12@@detail@json_abi_v3_11_3@nlohmann@@YA?AV?$basic_string@DU?$char_traits@D@std@@V?$allocator@D@2@@std@@$$QAV34@0ABV34@@Z 10040c00 f i db.obj
 0001:0003fca0       ??$concat@V?$basic_string@DU?$char_traits@D@std@@V?$allocator@D@2@@std@@V12@AAY0M@$$CBDV12@AAY02$$CBDV12@ABV12@@detail@json_abi_v3_11_3@nlohmann@@YA?AV?$basic_string@DU?$char_traits@D@std@@V?$allocator@D@2@@std@@$$QAV34@AAY0M@$$CBD0AAY02$$CBD0ABV34@@Z 10040ca0 f i db.obj
 0001:0003fd70       ??$grisu2@N@dtoa_impl@detail@json_abi_v3_11_3@nlohmann@@YAXPADAAH1N@Z 10040d70 f i db.obj
 0001:00040020       ??$sax_parse_internal@V?$json_sax_dom_callback_parser@V?$basic_json@Vmap@std@@Vvector@2@V?$basic_string@DU?$char_traits@D@std@@V?$allocator@D@2@@2@_N_J_KNVallocator@2@Uadl_serializer@json_abi_v3_11_3@nlohmann@@V?$vector@EV?$allocator@E@std@@@2@X@json_abi_v3_11_3@nlohmann@@@detail@json_abi_v3_11_3@nlohmann@@@?$parser@V?$basic_json@Vmap@std@@Vvector@2@V?$basic_string@DU?$char_traits@D@std@@V?$allocator@D@2@@2@_N_J_KNVallocator@2@Uadl_serializer@json_abi_v3_11_3@nlohmann@@V?$vector@EV?$allocator@E@std@@@2@X@json_abi_v3_11_3@nlohmann@@V?$iterator_input_adapter@V?$_String_const_iterator@V?$_String_val@U?$_Simple_types@D@std@@@std@@@std@@@detail@23@@detail@json_abi_v3_11_3@nlohmann@@AAE_NPAV?$json_sax_dom_callback_parser@V?$basic_json@Vmap@std@@Vvector@2@V?$basic_string@DU?$char_traits@D@std@@V?$allocator@D@2@@2@_N_J_KNVallocator@2@Uadl_serializer@json_abi_v3_11_3@nlohmann@@V?$vector@EV?$allocator@E@std@@@2@X@json_abi_v3_11_3@nlohmann@@@123@@Z 10041020 f i db.obj
 0001:00040e50       ??$parse_error@V0detail@json_abi_v3_11_3@nlohmann@@@?$json_sax_dom_callback_parser@V?$basic_json@Vmap@std@@Vvector@2@V?$basic_string@DU?$char_traits@D@std@@V?$allocator@D@2@@2@_N_J_KNVallocator@2@Uadl_serializer@json_abi_v3_11_3@nlohmann@@V?$vector@EV?$allocator@E@std@@@2@X@json_abi_v3_11_3@nlohmann@@@detail@json_abi_v3_11_3@nlohmann@@QAE_NIABV?$basic_string@DU?$char_traits@D@std@@V?$allocator@D@2@@std@@ABVparse_error@123@@Z 10041e50 f i db.obj
 0001:00040e90       ??$sax_parse_internal@V?$json_sax_dom_parser@V?$basic_json@Vmap@std@@Vvector@2@V?$basic_string@DU?$char_traits@D@std@@V?$allocator@D@2@@2@_N_J_KNVallocator@2@Uadl_serializer@json_abi_v3_11_3@nlohmann@@V?$vector@EV?$allocator@E@std@@@2@X@json_abi_v3_11_3@nlohmann@@@detail@json_abi_v3_11_3@nlohmann@@@?$parser@V?$basic_json@Vmap@std@@Vvector@2@V?$basic_string@DU?$char_traits@D@std@@V?$allocator@D@2@@2@_N_J_KNVallocator@2@Uadl_serializer@json_abi_v3_11_3@nlohmann@@V?$vector@EV?$allocator@E@std@@@2@X@json_abi_v3_11_3@nlohmann@@V?$iterator_input_adapter@V?$_String_const_iterator@V?$_String_val@U?$_Simple_types@D@std@@@std@@@std@@@detail@23@@detail@json_abi_v3_11_3@nlohmann@@AAE_NPAV?$json_sax_dom_parser@V?$basic_json@Vmap@std@@Vvector@2@V?$basic_string@DU?$char_traits@D@std@@V?$allocator@D@2@@2@_N_J_KNVallocator@2@Uadl_serializer@json_abi_v3_11_3@nlohmann@@V?$vector@EV?$allocator@E@std@@@2@X@json_abi_v3_11_3@nlohmann@@@123@@Z 10041e90 f i db.obj
 0001:00042000       ??$parse_error@V0detail@json_abi_v3_11_3@nlohmann@@@?$json_sax_dom_parser@V?$basic_json@Vmap@std@@Vvector@2@V?$basic_string@DU?$char_traits@D@std@@V?$allocator@D@2@@2@_N_J_KNVallocator@2@Uadl_serializer@json_abi_v3_11_3@nlohmann@@V?$vector@EV?$allocator@E@std@@@2@X@json_abi_v3_11_3@nlohmann@@@detail@json_abi_v3_11_3@nlohmann@@QAE_NIABV?$basic_string@DU?$char_traits@D@std@@V?$allocator@D@2@@std@@ABVparse_error@123@@Z 10043000 f i db.obj
 0001:00042040       ??$_Reallocate_grow_by@V<lambda_4d79bb85f269e6e8002a4599002d832c>@@IPBDI@?$basic_string@DU?$char_traits@D@std@@V?$allocator@D@2@@std@@QAEAAV01@IV<lambda_4d79bb85f269e6e8002a4599002d832c>@@IPBDI@Z 10043040 f i db.obj
 0001:00042180       ??$_Emplace_reallocate@D@?$vector@DV?$allocator@D@std@@@std@@QAEPADQAD$$QAD@Z 10043180 f i db.obj
 0001:000422a0       ??$_Resize@V<lambda_ac46504d121956be4d19caa267422eef>@@@?$vector@IV?$allocator@I@std@@@std@@AAEXIV<lambda_ac46504d121956be4d19caa267422eef>@@@Z 100432a0 f i db.obj
 0001:00042420       ??_G?$_Ref_count_obj@V?$output_string_adapter@DV?$basic_string@DU?$char_traits@D@std@@V?$allocator@D@2@@std@@@detail@json_abi_v3_11_3@nlohmann@@@std@@UAEPAXI@Z 10043420 f i db.obj
 0001:00042420       ??_E?$_Ref_count_obj@V?$output_string_adapter@DV?$basic_string@DU?$char_traits@D@std@@V?$allocator@D@2@@std@@@detail@json_abi_v3_11_3@nlohmann@@@std@@UAEPAXI@Z 10043420 f i * CIL library *:* CIL module *
 0001:00042420       ??_G?$_Ref_count_obj@V?$output_stream_adapter@D@detail@json_abi_v3_11_3@nlohmann@@@std@@UAEPAXI@Z 10043420 f i db.obj
 0001:00042420       ??_E?$_Ref_count_obj@V?$output_stream_adapter@D@detail@json_abi_v3_11_3@nlohmann@@@std@@UAEPAXI@Z 10043420 f i * CIL library *:* CIL module *
 0001:00042440       ??1?$_Uninitialized_backout_al@PAV?$basic_json@Vmap@std@@Vvector@2@V?$basic_string@DU?$char_traits@D@std@@V?$allocator@D@2@@2@_N_J_KNVallocator@2@Uadl_serializer@json_abi_v3_11_3@nlohmann@@V?$vector@EV?$allocator@E@std@@@2@X@json_abi_v3_11_3@nlohmann@@V?$allocator@V?$basic_json@Vmap@std@@Vvector@2@V?$basic_string@DU?$char_traits@D@std@@V?$allocator@D@2@@2@_N_J_KNVallocator@2@Uadl_serializer@json_abi_v3_11_3@nlohmann@@V?$vector@EV?$allocator@E@std@@@2@X@json_abi_v3_11_3@nlohmann@@@std@@@std@@QAE@XZ 10043440 f i db.obj
 0001:00042470       ?end_array@?$json_sax_dom_callback_parser@V?$basic_json@Vmap@std@@Vvector@2@V?$basic_string@DU?$char_traits@D@std@@V?$allocator@D@2@@2@_N_J_KNVallocator@2@Uadl_serializer@json_abi_v3_11_3@nlohmann@@V?$vector@EV?$allocator@E@std@@@2@X@json_abi_v3_11_3@nlohmann@@@detail@json_abi_v3_11_3@nlohmann@@QAE_NXZ 10043470 f i db.obj
 0001:00042540       ?end_object@?$json_sax_dom_callback_parser@V?$basic_json@Vmap@std@@Vvector@2@V?$basic_string@DU?$char_traits@D@std@@V?$allocator@D@2@@2@_N_J_KNVallocator@2@Uadl_serializer@json_abi_v3_11_3@nlohmann@@V?$vector@EV?$allocator@E@std@@@2@X@json_abi_v3_11_3@nlohmann@@@detail@json_abi_v3_11_3@nlohmann@@QAE_NXZ 10043540 f i db.obj
 0001:00042730       ?key@?$json_sax_dom_callback_parser@V?$basic_json@Vmap@std@@Vvector@2@V?$basic_string@DU?$char_traits@D@std@@V?$allocator@D@2@@2@_N_J_KNVallocator@2@Uadl_serializer@json_abi_v3_11_3@nlohmann@@V?$vector@EV?$allocator@E@std@@@2@X@json_abi_v3_11_3@nlohmann@@@detail@json_abi_v3_11_3@nlohmann@@QAE_NAAV?$basic_string@DU?$char_traits@D@std@@V?$allocator@D@2@@std@@@Z 10043730 f i db.obj
 0001:00042860       ?string@?$json_sax_dom_callback_parser@V?$basic_json@Vmap@std@@Vvector@2@V?$basic_string@DU?$char_traits@D@std@@V?$allocator@D@2@@2@_N_J_KNVallocator@2@Uadl_serializer@json_abi_v3_11_3@nlohmann@@V?$vector@EV?$allocator@E@std@@@2@X@json_abi_v3_11_3@nlohmann@@@detail@json_abi_v3_11_3@nlohmann@@QAE_NAAV?$basic_string@DU?$char_traits@D@std@@V?$allocator@D@2@@std@@@Z 10043860 f i db.obj
 0001:00042880       ?number_float@?$json_sax_dom_callback_parser@V?$basic_json@Vmap@std@@Vvector@2@V?$basic_string@DU?$char_traits@D@std@@V?$allocator@D@2@@2@_N_J_KNVallocator@2@Uadl_serializer@json_abi_v3_11_3@nlohmann@@V?$vector@EV?$allocator@E@std@@@2@X@json_abi_v3_11_3@nlohmann@@@detail@json_abi_v3_11_3@nlohmann@@QAE_NNABV?$basic_string@DU?$char_traits@D@std@@V?$allocator@D@2@@std@@@Z 10043880 f i db.obj
 0001:000428b0       ?number_unsigned@?$json_sax_dom_callback_parser@V?$basic_json@Vmap@std@@Vvector@2@V?$basic_string@DU?$char_traits@D@std@@V?$allocator@D@2@@2@_N_J_KNVallocator@2@Uadl_serializer@json_abi_v3_11_3@nlohmann@@V?$vector@EV?$allocator@E@std@@@2@X@json_abi_v3_11_3@nlohmann@@@detail@json_abi_v3_11_3@nlohmann@@QAE_N_K@Z 100438b0 f i db.obj
 0001:000428d0       ?number_integer@?$json_sax_dom_callback_parser@V?$basic_json@Vmap@std@@Vvector@2@V?$basic_string@DU?$char_traits@D@std@@V?$allocator@D@2@@2@_N_J_KNVallocator@2@Uadl_serializer@json_abi_v3_11_3@nlohmann@@V?$vector@EV?$allocator@E@std@@@2@X@json_abi_v3_11_3@nlohmann@@@detail@json_abi_v3_11_3@nlohmann@@QAE_N_J@Z 100438d0 f i db.obj
 0001:000428f0       ?boolean@?$json_sax_dom_callback_parser@V?$basic_json@Vmap@std@@Vvector@2@V?$basic_string@DU?$char_traits@D@std@@V?$allocator@D@2@@2@_N_J_KNVallocator@2@Uadl_serializer@json_abi_v3_11_3@nlohmann@@V?$vector@EV?$allocator@E@std@@@2@X@json_abi_v3_11_3@nlohmann@@@detail@json_abi_v3_11_3@nlohmann@@QAE_N_N@Z 100438f0 f i db.obj
 0001:00042910       ?null@?$json_sax_dom_callback_parser@V?$basic_json@Vmap@std@@Vvector@2@V?$basic_string@DU?$char_traits@D@std@@V?$allocator@D@2@@2@_N_J_KNVallocator@2@Uadl_serializer@json_abi_v3_11_3@nlohmann@@V?$vector@EV?$allocator@E@std@@@2@X@json_abi_v3_11_3@nlohmann@@@detail@json_abi_v3_11_3@nlohmann@@QAE_NXZ 10043910 f i db.obj
 0001:00042930       ?_Change_array@?$vector@DV?$allocator@D@std@@@std@@AAEXQADII@Z 10043930 f i db.obj
 0001:00042990       ?_Freenode0@?$_Tree_comp_alloc@V?$_Tmap_traits@V?$basic_string@DU?$char_traits@D@std@@V?$allocator@D@2@@std@@V?$basic_json@Vmap@std@@Vvector@2@V?$basic_string@DU?$char_traits@D@std@@V?$allocator@D@2@@2@_N_J_KNVallocator@2@Uadl_serializer@json_abi_v3_11_3@nlohmann@@V?$vector@EV?$allocator@E@std@@@2@X@json_abi_v3_11_3@nlohmann@@U?$less@X@2@V?$allocator@U?$pair@$$CBV?$basic_string@DU?$char_traits@D@std@@V?$allocator@D@2@@std@@V?$basic_json@Vmap@std@@Vvector@2@V?$basic_string@DU?$char_traits@D@std@@V?$allocator@D@2@@2@_N_J_KNVallocator@2@Uadl_serializer@json_abi_v3_11_3@nlohmann@@V?$vector@EV?$allocator@E@std@@@2@X@json_abi_v3_11_3@nlohmann@@@std@@@2@$0A@@std@@@std@@QAEXPAU?$_Tree_node@U?$pair@$$CBV?$basic_string@DU?$char_traits@D@std@@V?$allocator@D@2@@std@@V?$basic_json@Vmap@std@@Vvector@2@V?$basic_string@DU?$char_traits@D@std@@V?$allocator@D@2@@2@_N_J_KNVallocator@2@Uadl_serializer@json_abi_v3_11_3@nlohmann@@V?$vector@EV?$allocator@E@std@@@2@X@json_abi_v3_11_3@nlohmann@@@std@@PAX@2@@Z 10043990 f i db.obj
 0001:000429b0       ?_Buynode0@?$_Tree_comp_alloc@V?$_Tmap_traits@V?$basic_string@DU?$char_traits@D@std@@V?$allocator@D@2@@std@@V?$basic_json@Vmap@std@@Vvector@2@V?$basic_string@DU?$char_traits@D@std@@V?$allocator@D@2@@2@_N_J_KNVallocator@2@Uadl_serializer@json_abi_v3_11_3@nlohmann@@V?$vector@EV?$allocator@E@std@@@2@X@json_abi_v3_11_3@nlohmann@@U?$less@X@2@V?$allocator@U?$pair@$$CBV?$basic_string@DU?$char_traits@D@std@@V?$allocator@D@2@@std@@V?$basic_json@Vmap@std@@Vvector@2@V?$basic_string@DU?$char_traits@D@std@@V?$allocator@D@2@@2@_N_J_KNVallocator@2@Uadl_serializer@json_abi_v3_11_3@nlohmann@@V?$vector@EV?$allocator@E@std@@@2@X@json_abi_v3_11_3@nlohmann@@@std@@@2@$0A@@std@@@std@@QAEPAU?$_Tree_node@U?$pair@$$CBV?$basic_string@DU?$char_traits@D@std@@V?$allocator@D@2@@std@@V?$basic_json@Vmap@std@@Vvector@2@V?$basic_string@DU?$char_traits@D@std@@V?$allocator@D@2@@2@_N_J_KNVallocator@2@Uadl_serializer@json_abi_v3_11_3@nlohmann@@V?$vector@EV?$allocator@E@std@@@2@X@json_abi_v3_11_3@nlohmann@@@std@@PAX@2@XZ 100439b0 f i db.obj
 0001:000429d0       ?_Destroy_if_node@?$_Tree@V?$_Tmap_traits@V?$basic_string@DU?$char_traits@D@std@@V?$allocator@D@2@@std@@V?$basic_json@Vmap@std@@Vvector@2@V?$basic_string@DU?$char_traits@D@std@@V?$allocator@D@2@@2@_N_J_KNVallocator@2@Uadl_serializer@json_abi_v3_11_3@nlohmann@@V?$vector@EV?$allocator@E@std@@@2@X@json_abi_v3_11_3@nlohmann@@U?$less@X@2@V?$allocator@U?$pair@$$CBV?$basic_string@DU?$char_traits@D@std@@V?$allocator@D@2@@std@@V?$basic_json@Vmap@std@@Vvector@2@V?$basic_string@DU?$char_traits@D@std@@V?$allocator@D@2@@2@_N_J_KNVallocator@2@Uadl_serializer@json_abi_v3_11_3@nlohmann@@V?$vector@EV?$allocator@E@std@@@2@X@json_abi_v3_11_3@nlohmann@@@std@@@2@$0A@@std@@@std@@IAEXPAU?$_Tree_node@U?$pair@$$CBV?$basic_string@DU?$char_traits@D@std@@V?$allocator@D@2@@std@@V?$basic_json@Vmap@std@@Vvector@2@V?$basic_string@DU?$char_traits@D@std@@V?$allocator@D@2@@2@_N_J_KNVallocator@2@Uadl_serializer@json_abi_v3_11_3@nlohmann@@V?$vector@EV?$allocator@E@std@@@2@X@json_abi_v3_11_3@nlohmann@@@std@@PAX@2@@Z 100439d0 f i db.obj
 0001:000429f0       ?key@?$json_sax_dom_parser@V?$basic_json@Vmap@std@@Vvector@2@V?$basic_string@DU?$char_traits@D@std@@V?$allocator@D@2@@2@_N_J_KNVallocator@2@Uadl_serializer@json_abi_v3_11_3@nlohmann@@V?$vector@EV?$allocator@E@std@@@2@X@json_abi_v3_11_3@nlohmann@@@detail@json_abi_v3_11_3@nlohmann@@QAE_NAAV?$basic_string@DU?$char_traits@D@std@@V?$allocator@D@2@@std@@@Z 100439f0 f i db.obj
 0001:00042a20       ?pop_back@?$vector@_NV?$allocator@_N@std@@@std@@QAEXXZ 10043a20 f i db.obj
 0001:00042aa0       ?back@?$vector@_NV?$allocator@_N@std@@@std@@QAE?AV?$_Vb_reference@U?$_Wrap_alloc@V?$allocator@I@std@@@std@@@2@XZ 10043aa0 f i db.obj
 0001:00042b20       ??0out_of_range@detail@json_abi_v3_11_3@nlohmann@@QAE@ABV0123@@Z 10043b20 f i db.obj
 0001:00042b40       ??_G?$output_stream_adapter@D@detail@json_abi_v3_11_3@nlohmann@@UAEPAXI@Z 10043b40 f i db.obj
 0001:00042b40       ??_G?$output_string_adapter@DV?$basic_string@DU?$char_traits@D@std@@V?$allocator@D@2@@std@@@detail@json_abi_v3_11_3@nlohmann@@UAEPAXI@Z 10043b40 f i db.obj
 0001:00042b40       ??_E?$output_string_adapter@DV?$basic_string@DU?$char_traits@D@std@@V?$allocator@D@2@@std@@@detail@json_abi_v3_11_3@nlohmann@@UAEPAXI@Z 10043b40 f i * CIL library *:* CIL module *
 0001:00042b40       ??_E?$output_stream_adapter@D@detail@json_abi_v3_11_3@nlohmann@@UAEPAXI@Z 10043b40 f i * CIL library *:* CIL module *
 0001:00042b60       ??A?$map@V?$basic_string@DU?$char_traits@D@std@@V?$allocator@D@2@@std@@V?$basic_json@Vmap@std@@Vvector@2@V?$basic_string@DU?$char_traits@D@std@@V?$allocator@D@2@@2@_N_J_KNVallocator@2@Uadl_serializer@json_abi_v3_11_3@nlohmann@@V?$vector@EV?$allocator@E@std@@@2@X@json_abi_v3_11_3@nlohmann@@U?$less@X@2@V?$allocator@U?$pair@$$CBV?$basic_string@DU?$char_traits@D@std@@V?$allocator@D@2@@std@@V?$basic_json@Vmap@std@@Vvector@2@V?$basic_string@DU?$char_traits@D@std@@V?$allocator@D@2@@2@_N_J_KNVallocator@2@Uadl_serializer@json_abi_v3_11_3@nlohmann@@V?$vector@EV?$allocator@E@std@@@2@X@json_abi_v3_11_3@nlohmann@@@std@@@2@@std@@QAEAAV?$basic_json@Vmap@std@@Vvector@2@V?$basic_string@DU?$char_traits@D@std@@V?$allocator@D@2@@2@_N_J_KNVallocator@2@Uadl_serializer@json_abi_v3_11_3@nlohmann@@V?$vector@EV?$allocator@E@std@@@2@X@json_abi_v3_11_3@nlohmann@@ABV?$basic_string@DU?$char_traits@D@std@@V?$allocator@D@2@@1@@Z 10043b60 f i db.obj
 0001:00042bf0       ?erase@?$vector@_NV?$allocator@_N@std@@@std@@QAE?AV?$_Vb_iterator@U?$_Wrap_alloc@V?$allocator@I@std@@@std@@@2@V?$_Vb_const_iterator@U?$_Wrap_alloc@V?$allocator@I@std@@@std@@@2@@Z 10043bf0 f i db.obj
 0001:00042da0       ?begin@?$basic_json@Vmap@std@@Vvector@2@V?$basic_string@DU?$char_traits@D@std@@V?$allocator@D@2@@2@_N_J_KNVallocator@2@Uadl_serializer@json_abi_v3_11_3@nlohmann@@V?$vector@EV?$allocator@E@std@@@2@X@json_abi_v3_11_3@nlohmann@@QAE?AV?$iter_impl@V?$basic_json@Vmap@std@@Vvector@2@V?$basic_string@DU?$char_traits@D@std@@V?$allocator@D@2@@2@_N_J_KNVallocator@2@Uadl_serializer@json_abi_v3_11_3@nlohmann@@V?$vector@EV?$allocator@E@std@@@2@X@json_abi_v3_11_3@nlohmann@@@detail@23@XZ 10043da0 f i db.obj
 0001:00042e30       ??0?$basic_json@Vmap@std@@Vvector@2@V?$basic_string@DU?$char_traits@D@std@@V?$allocator@D@2@@2@_N_J_KNVallocator@2@Uadl_serializer@json_abi_v3_11_3@nlohmann@@V?$vector@EV?$allocator@E@std@@@2@X@json_abi_v3_11_3@nlohmann@@QAE@ABV012@@Z 10043e30 f i db.obj
 0001:00042f90       ??0json_value@?$basic_json@Vmap@std@@Vvector@2@V?$basic_string@DU?$char_traits@D@std@@V?$allocator@D@2@@2@_N_J_KNVallocator@2@Uadl_serializer@json_abi_v3_11_3@nlohmann@@V?$vector@EV?$allocator@E@std@@@2@X@json_abi_v3_11_3@nlohmann@@QAE@ABV?$basic_string@DU?$char_traits@D@std@@V?$allocator@D@2@@std@@@Z 10043f90 f i db.obj
 0001:00043000       ?_Buyheadnode@?$_Tree_comp_alloc@V?$_Tmap_traits@V?$basic_string@DU?$char_traits@D@std@@V?$allocator@D@2@@std@@V?$basic_json@Vmap@std@@Vvector@2@V?$basic_string@DU?$char_traits@D@std@@V?$allocator@D@2@@2@_N_J_KNVallocator@2@Uadl_serializer@json_abi_v3_11_3@nlohmann@@V?$vector@EV?$allocator@E@std@@@2@X@json_abi_v3_11_3@nlohmann@@U?$less@X@2@V?$allocator@U?$pair@$$CBV?$basic_string@DU?$char_traits@D@std@@V?$allocator@D@2@@std@@V?$basic_json@Vmap@std@@Vvector@2@V?$basic_string@DU?$char_traits@D@std@@V?$allocator@D@2@@2@_N_J_KNVallocator@2@Uadl_serializer@json_abi_v3_11_3@nlohmann@@V?$vector@EV?$allocator@E@std@@@2@X@json_abi_v3_11_3@nlohmann@@@std@@@2@$0A@@std@@@std@@QAEPAU?$_Tree_node@U?$pair@$$CBV?$basic_string@DU?$char_traits@D@std@@V?$allocator@D@2@@std@@V?$basic_json@Vmap@std@@Vvector@2@V?$basic_string@DU?$char_traits@D@std@@V?$allocator@D@2@@2@_N_J_KNVallocator@2@Uadl_serializer@json_abi_v3_11_3@nlohmann@@V?$vector@EV?$allocator@E@std@@@2@X@json_abi_v3_11_3@nlohmann@@@std@@PAX@2@XZ 10044000 f i db.obj
 0001:00043020       ??$_Insert_at@AAU?$pair@$$CBV?$basic_string@DU?$char_traits@D@std@@V?$allocator@D@2@@std@@V?$basic_json@Vmap@std@@Vvector@2@V?$basic_string@DU?$char_traits@D@std@@V?$allocator@D@2@@2@_N_J_KNVallocator@2@Uadl_serializer@json_abi_v3_11_3@nlohmann@@V?$vector@EV?$allocator@E@std@@@2@X@json_abi_v3_11_3@nlohmann@@@std@@PAU?$_Tree_node@U?$pair@$$CBV?$basic_string@DU?$char_traits@D@std@@V?$allocator@D@2@@std@@V?$basic_json@Vmap@std@@Vvector@2@V?$basic_string@DU?$char_traits@D@std@@V?$allocator@D@2@@2@_N_J_KNVallocator@2@Uadl_serializer@json_abi_v3_11_3@nlohmann@@V?$vector@EV?$allocator@E@std@@@2@X@json_abi_v3_11_3@nlohmann@@@std@@PAX@2@@?$_Tree@V?$_Tmap_traits@V?$basic_string@DU?$char_traits@D@std@@V?$allocator@D@2@@std@@V?$basic_json@Vmap@std@@Vvector@2@V?$basic_string@DU?$char_traits@D@std@@V?$allocator@D@2@@2@_N_J_KNVallocator@2@Uadl_serializer@json_abi_v3_11_3@nlohmann@@V?$vector@EV?$allocator@E@std@@@2@X@json_abi_v3_11_3@nlohmann@@U?$less@X@2@V?$allocator@U?$pair@$$CBV?$basic_string@DU?$char_traits@D@std@@V?$allocator@D@2@@std@@V?$basic_json@Vmap@std@@Vvector@2@V?$basic_string@DU?$char_traits@D@std@@V?$allocator@D@2@@2@_N_J_KNVallocator@2@Uadl_serializer@json_abi_v3_11_3@nlohmann@@V?$vector@EV?$allocator@E@std@@@2@X@json_abi_v3_11_3@nlohmann@@@std@@@2@$0A@@std@@@std@@IAE?AV?$_Tree_iterator@V?$_Tree_val@U?$_Tree_simple_types@U?$pair@$$CBV?$basic_string@DU?$char_traits@D@std@@V?$allocator@D@2@@std@@V?$basic_json@Vmap@std@@Vvector@2@V?$basic_string@DU?$char_traits@D@std@@V?$allocator@D@2@@2@_N_J_KNVallocator@2@Uadl_serializer@json_abi_v3_11_3@nlohmann@@V?$vector@EV?$allocator@E@std@@@2@X@json_abi_v3_11_3@nlohmann@@@std@@@std@@@std@@@1@_NPAU?$_Tree_node@U?$pair@$$CBV?$basic_string@DU?$char_traits@D@std@@V?$allocator@D@2@@std@@V?$basic_json@Vmap@std@@Vvector@2@V?$basic_string@DU?$char_traits@D@std@@V?$allocator@D@2@@2@_N_J_KNVallocator@2@Uadl_serializer@json_abi_v3_11_3@nlohmann@@V?$vector@EV?$allocator@E@std@@@2@X@json_abi_v3_11_3@nlohmann@@@std@@PAX@1@AAU?$pair@$$CBV?$basic_string@DU?$char_traits@D@std@@V?$allocator@D@2@@std@@V?$basic_json@Vmap@std@@Vvector@2@V?$basic_string@DU?$char_traits@D@std@@V?$allocator@D@2@@2@_N_J_KNVallocator@2@Uadl_serializer@json_abi_v3_11_3@nlohmann@@V?$vector@EV?$allocator@E@std@@@2@X@json_abi_v3_11_3@nlohmann@@@1@1@Z 10044020 f i db.obj
 0001:00043180       ??$concat@V?$basic_string@DU?$char_traits@D@std@@V?$allocator@D@2@@std@@AAY0BK@$$CBDV12@D@detail@json_abi_v3_11_3@nlohmann@@YA?AV?$basic_string@DU?$char_traits@D@std@@V?$allocator@D@2@@std@@AAY0BK@$$CBD$$QAV34@$$QAD@Z 10044180 f i db.obj
 0001:00043220       ??$create@$$T$0A@@out_of_range@detail@json_abi_v3_11_3@nlohmann@@SA?AV0123@HABV?$basic_string@DU?$char_traits@D@std@@V?$allocator@D@2@@std@@$$T@Z 10044220 f i db.obj
 0001:00043430       ??$handle_value@W4value_t@detail@json_abi_v3_11_3@nlohmann@@@?$json_sax_dom_callback_parser@V?$basic_json@Vmap@std@@Vvector@2@V?$basic_string@DU?$char_traits@D@std@@V?$allocator@D@2@@2@_N_J_KNVallocator@2@Uadl_serializer@json_abi_v3_11_3@nlohmann@@V?$vector@EV?$allocator@E@std@@@2@X@json_abi_v3_11_3@nlohmann@@@detail@json_abi_v3_11_3@nlohmann@@AAE?AU?$pair@_NPAV?$basic_json@Vmap@std@@Vvector@2@V?$basic_string@DU?$char_traits@D@std@@V?$allocator@D@2@@2@_N_J_KNVallocator@2@Uadl_serializer@json_abi_v3_11_3@nlohmann@@V?$vector@EV?$allocator@E@std@@@2@X@json_abi_v3_11_3@nlohmann@@@std@@$$QAW4value_t@123@_N@Z 10044430 f i db.obj
 0001:000435c0       ??$erase@V?$iter_impl@V?$basic_json@Vmap@std@@Vvector@2@V?$basic_string@DU?$char_traits@D@std@@V?$allocator@D@2@@2@_N_J_KNVallocator@2@Uadl_serializer@json_abi_v3_11_3@nlohmann@@V?$vector@EV?$allocator@E@std@@@2@X@json_abi_v3_11_3@nlohmann@@@detail@json_abi_v3_11_3@nlohmann@@$0A@@?$basic_json@Vmap@std@@Vvector@2@V?$basic_string@DU?$char_traits@D@std@@V?$allocator@D@2@@2@_N_J_KNVallocator@2@Uadl_serializer@json_abi_v3_11_3@nlohmann@@V?$vector@EV?$allocator@E@std@@@2@X@json_abi_v3_11_3@nlohmann@@QAE?AV?$iter_impl@V?$basic_json@Vmap@std@@Vvector@2@V?$basic_string@DU?$char_traits@D@std@@V?$allocator@D@2@@2@_N_J_KNVallocator@2@Uadl_serializer@json_abi_v3_11_3@nlohmann@@V?$vector@EV?$allocator@E@std@@@2@X@json_abi_v3_11_3@nlohmann@@@detail@12@V3412@@Z 100445c0 f i db.obj
 0001:000438d0       ??$handle_value@AAV?$basic_string@DU?$char_traits@D@std@@V?$allocator@D@2@@std@@@?$json_sax_dom_callback_parser@V?$basic_json@Vmap@std@@Vvector@2@V?$basic_string@DU?$char_traits@D@std@@V?$allocator@D@2@@2@_N_J_KNVallocator@2@Uadl_serializer@json_abi_v3_11_3@nlohmann@@V?$vector@EV?$allocator@E@std@@@2@X@json_abi_v3_11_3@nlohmann@@@detail@json_abi_v3_11_3@nlohmann@@AAE?AU?$pair@_NPAV?$basic_json@Vmap@std@@Vvector@2@V?$basic_string@DU?$char_traits@D@std@@V?$allocator@D@2@@2@_N_J_KNVallocator@2@Uadl_serializer@json_abi_v3_11_3@nlohmann@@V?$vector@EV?$allocator@E@std@@@2@X@json_abi_v3_11_3@nlohmann@@@std@@AAV?$basic_string@DU?$char_traits@D@std@@V?$allocator@D@2@@5@_N@Z 100448d0 f i db.obj
 0001:00043ab0       ??$handle_value@AAN@?$json_sax_dom_callback_parser@V?$basic_json@Vmap@std@@Vvector@2@V?$basic_string@DU?$char_traits@D@std@@V?$allocator@D@2@@2@_N_J_KNVallocator@2@Uadl_serializer@json_abi_v3_11_3@nlohmann@@V?$vector@EV?$allocator@E@std@@@2@X@json_abi_v3_11_3@nlohmann@@@detail@json_abi_v3_11_3@nlohmann@@AAE?AU?$pair@_NPAV?$basic_json@Vmap@std@@Vvector@2@V?$basic_string@DU?$char_traits@D@std@@V?$allocator@D@2@@2@_N_J_KNVallocator@2@Uadl_serializer@json_abi_v3_11_3@nlohmann@@V?$vector@EV?$allocator@E@std@@@2@X@json_abi_v3_11_3@nlohmann@@@std@@AAN_N@Z 10044ab0 f i db.obj
 0001:00043c90       ??$handle_value@AA_K@?$json_sax_dom_callback_parser@V?$basic_json@Vmap@std@@Vvector@2@V?$basic_string@DU?$char_traits@D@std@@V?$allocator@D@2@@2@_N_J_KNVallocator@2@Uadl_serializer@json_abi_v3_11_3@nlohmann@@V?$vector@EV?$allocator@E@std@@@2@X@json_abi_v3_11_3@nlohmann@@@detail@json_abi_v3_11_3@nlohmann@@AAE?AU?$pair@_NPAV?$basic_json@Vmap@std@@Vvector@2@V?$basic_string@DU?$char_traits@D@std@@V?$allocator@D@2@@2@_N_J_KNVallocator@2@Uadl_serializer@json_abi_v3_11_3@nlohmann@@V?$vector@EV?$allocator@E@std@@@2@X@json_abi_v3_11_3@nlohmann@@@std@@AA_K_N@Z 10044c90 f i db.obj
 0001:00043e70       ??$handle_value@AA_J@?$json_sax_dom_callback_parser@V?$basic_json@Vmap@std@@Vvector@2@V?$basic_string@DU?$char_traits@D@std@@V?$allocator@D@2@@2@_N_J_KNVallocator@2@Uadl_serializer@json_abi_v3_11_3@nlohmann@@V?$vector@EV?$allocator@E@std@@@2@X@json_abi_v3_11_3@nlohmann@@@detail@json_abi_v3_11_3@nlohmann@@AAE?AU?$pair@_NPAV?$basic_json@Vmap@std@@Vvector@2@V?$basic_string@DU?$char_traits@D@std@@V?$allocator@D@2@@2@_N_J_KNVallocator@2@Uadl_serializer@json_abi_v3_11_3@nlohmann@@V?$vector@EV?$allocator@E@std@@@2@X@json_abi_v3_11_3@nlohmann@@@std@@AA_J_N@Z 10044e70 f i db.obj
 0001:00044050       ??$handle_value@AA_N@?$json_sax_dom_callback_parser@V?$basic_json@Vmap@std@@Vvector@2@V?$basic_string@DU?$char_traits@D@std@@V?$allocator@D@2@@2@_N_J_KNVallocator@2@Uadl_serializer@json_abi_v3_11_3@nlohmann@@V?$vector@EV?$allocator@E@std@@@2@X@json_abi_v3_11_3@nlohmann@@@detail@json_abi_v3_11_3@nlohmann@@AAE?AU?$pair@_NPAV?$basic_json@Vmap@std@@Vvector@2@V?$basic_string@DU?$char_traits@D@std@@V?$allocator@D@2@@2@_N_J_KNVallocator@2@Uadl_serializer@json_abi_v3_11_3@nlohmann@@V?$vector@EV?$allocator@E@std@@@2@X@json_abi_v3_11_3@nlohmann@@@std@@AA_N_N@Z 10045050 f i db.obj
 0001:00044250       ??$handle_value@$$T@?$json_sax_dom_callback_parser@V?$basic_json@Vmap@std@@Vvector@2@V?$basic_string@DU?$char_traits@D@std@@V?$allocator@D@2@@2@_N_J_KNVallocator@2@Uadl_serializer@json_abi_v3_11_3@nlohmann@@V?$vector@EV?$allocator@E@std@@@2@X@json_abi_v3_11_3@nlohmann@@@detail@json_abi_v3_11_3@nlohmann@@AAE?AU?$pair@_NPAV?$basic_json@Vmap@std@@Vvector@2@V?$basic_string@DU?$char_traits@D@std@@V?$allocator@D@2@@2@_N_J_KNVallocator@2@Uadl_serializer@json_abi_v3_11_3@nlohmann@@V?$vector@EV?$allocator@E@std@@@2@X@json_abi_v3_11_3@nlohmann@@@std@@$$QA$$T_N@Z 10045250 f i db.obj
 0001:00044420       ??$handle_value@W4value_t@detail@json_abi_v3_11_3@nlohmann@@@?$json_sax_dom_parser@V?$basic_json@Vmap@std@@Vvector@2@V?$basic_string@DU?$char_traits@D@std@@V?$allocator@D@2@@2@_N_J_KNVallocator@2@Uadl_serializer@json_abi_v3_11_3@nlohmann@@V?$vector@EV?$allocator@E@std@@@2@X@json_abi_v3_11_3@nlohmann@@@detail@json_abi_v3_11_3@nlohmann@@AAEPAV?$basic_json@Vmap@std@@Vvector@2@V?$basic_string@DU?$char_traits@D@std@@V?$allocator@D@2@@2@_N_J_KNVallocator@2@Uadl_serializer@json_abi_v3_11_3@nlohmann@@V?$vector@EV?$allocator@E@std@@@2@X@23@$$QAW4value_t@123@@Z 10045420 f i db.obj
 0001:00044520       ??$handle_value@AA_K@?$json_sax_dom_parser@V?$basic_json@Vmap@std@@Vvector@2@V?$basic_string@DU?$char_traits@D@std@@V?$allocator@D@2@@2@_N_J_KNVallocator@2@Uadl_serializer@json_abi_v3_11_3@nlohmann@@V?$vector@EV?$allocator@E@std@@@2@X@json_abi_v3_11_3@nlohmann@@@detail@json_abi_v3_11_3@nlohmann@@AAEPAV?$basic_json@Vmap@std@@Vvector@2@V?$basic_string@DU?$char_traits@D@std@@V?$allocator@D@2@@2@_N_J_KNVallocator@2@Uadl_serializer@json_abi_v3_11_3@nlohmann@@V?$vector@EV?$allocator@E@std@@@2@X@23@AA_K@Z 10045520 f i db.obj
 0001:00044620       ??1?$unique_ptr@V?$vector@V?$basic_json@Vmap@std@@Vvector@2@V?$basic_string@DU?$char_traits@D@std@@V?$allocator@D@2@@2@_N_J_KNVallocator@2@Uadl_serializer@json_abi_v3_11_3@nlohmann@@V?$vector@EV?$allocator@E@std@@@2@X@json_abi_v3_11_3@nlohmann@@V?$allocator@V?$basic_json@Vmap@std@@Vvector@2@V?$basic_string@DU?$char_traits@D@std@@V?$allocator@D@2@@2@_N_J_KNVallocator@2@Uadl_serializer@json_abi_v3_11_3@nlohmann@@V?$vector@EV?$allocator@E@std@@@2@X@json_abi_v3_11_3@nlohmann@@@std@@@std@@V<lambda_d36f07c362b394c2822ec66bb0a1b2f9>@@@std@@QAE@XZ 10045620 f i db.obj
 0001:00044640       ??1?$unique_ptr@V?$byte_container_with_subtype@V?$vector@EV?$allocator@E@std@@@std@@@json_abi_v3_11_3@nlohmann@@V<lambda_7027fe44b360f282ed691d0c45ae2bf9>@@@std@@QAE@XZ 10045640 f i db.obj
 0001:00044660       ??1?$_Uninitialized_backout_al@PAV?$basic_string@DU?$char_traits@D@std@@V?$allocator@D@2@@std@@V?$allocator@V?$basic_string@DU?$char_traits@D@std@@V?$allocator@D@2@@std@@@2@@std@@QAE@XZ 10045660 f i db.obj
 0001:00044670       ??$concat@V?$basic_string@DU?$char_traits@D@std@@V?$allocator@D@2@@std@@AAY0BJ@$$CBDPBD@detail@json_abi_v3_11_3@nlohmann@@YA?AV?$basic_string@DU?$char_traits@D@std@@V?$allocator@D@2@@std@@AAY0BJ@$$CBD$$QAPBD@Z 10045670 f i db.obj
 0001:00044710       ??$_Emplace_reallocate@W4value_t@detail@json_abi_v3_11_3@nlohmann@@@?$vector@V?$basic_json@Vmap@std@@Vvector@2@V?$basic_string@DU?$char_traits@D@std@@V?$allocator@D@2@@2@_N_J_KNVallocator@2@Uadl_serializer@json_abi_v3_11_3@nlohmann@@V?$vector@EV?$allocator@E@std@@@2@X@json_abi_v3_11_3@nlohmann@@V?$allocator@V?$basic_json@Vmap@std@@Vvector@2@V?$basic_string@DU?$char_traits@D@std@@V?$allocator@D@2@@2@_N_J_KNVallocator@2@Uadl_serializer@json_abi_v3_11_3@nlohmann@@V?$vector@EV?$allocator@E@std@@@2@X@json_abi_v3_11_3@nlohmann@@@std@@@std@@QAEPAV?$basic_json@Vmap@std@@Vvector@2@V?$basic_string@DU?$char_traits@D@std@@V?$allocator@D@2@@2@_N_J_KNVallocator@2@Uadl_serializer@json_abi_v3_11_3@nlohmann@@V?$vector@EV?$allocator@E@std@@@2@X@json_abi_v3_11_3@nlohmann@@QAV234@$$QAW4value_t@detail@34@@Z 10045710 f i db.obj
 0001:00044910       ??$_Emplace_reallocate@AAV?$basic_string@DU?$char_traits@D@std@@V?$allocator@D@2@@std@@@?$vector@V?$basic_json@Vmap@std@@Vvector@2@V?$basic_string@DU?$char_traits@D@std@@V?$allocator@D@2@@2@_N_J_KNVallocator@2@Uadl_serializer@json_abi_v3_11_3@nlohmann@@V?$vector@EV?$allocator@E@std@@@2@X@json_abi_v3_11_3@nlohmann@@V?$allocator@V?$basic_json@Vmap@std@@Vvector@2@V?$basic_string@DU?$char_traits@D@std@@V?$allocator@D@2@@2@_N_J_KNVallocator@2@Uadl_serializer@json_abi_v3_11_3@nlohmann@@V?$vector@EV?$allocator@E@std@@@2@X@json_abi_v3_11_3@nlohmann@@@std@@@std@@QAEPAV?$basic_json@Vmap@std@@Vvector@2@V?$basic_string@DU?$char_traits@D@std@@V?$allocator@D@2@@2@_N_J_KNVallocator@2@Uadl_serializer@json_abi_v3_11_3@nlohmann@@V?$vector@EV?$allocator@E@std@@@2@X@json_abi_v3_11_3@nlohmann@@QAV234@AAV?$basic_string@DU?$char_traits@D@std@@V?$allocator@D@2@@1@@Z 10045910 f i db.obj
 0001:00044b20       ??$_Emplace_reallocate@AAN@?$vector@V?$basic_json@Vmap@std@@Vvector@2@V?$basic_string@DU?$char_traits@D@std@@V?$allocator@D@2@@2@_N_J_KNVallocator@2@Uadl_serializer@json_abi_v3_11_3@nlohmann@@V?$vector@EV?$allocator@E@std@@@2@X@json_abi_v3_11_3@nlohmann@@V?$allocator@V?$basic_json@Vmap@std@@Vvector@2@V?$basic_string@DU?$char_traits@D@std@@V?$allocator@D@2@@2@_N_J_KNVallocator@2@Uadl_serializer@json_abi_v3_11_3@nlohmann@@V?$vector@EV?$allocator@E@std@@@2@X@json_abi_v3_11_3@nlohmann@@@std@@@std@@QAEPAV?$basic_json@Vmap@std@@Vvector@2@V?$basic_string@DU?$char_traits@D@std@@V?$allocator@D@2@@2@_N_J_KNVallocator@2@Uadl_serializer@json_abi_v3_11_3@nlohmann@@V?$vector@EV?$allocator@E@std@@@2@X@json_abi_v3_11_3@nlohmann@@QAV234@AAN@Z 10045b20 f i db.obj
 0001:00044cb0       ??$_Emplace_reallocate@AA_K@?$vector@V?$basic_json@Vmap@std@@Vvector@2@V?$basic_string@DU?$char_traits@D@std@@V?$allocator@D@2@@2@_N_J_KNVallocator@2@Uadl_serializer@json_abi_v3_11_3@nlohmann@@V?$vector@EV?$allocator@E@std@@@2@X@json_abi_v3_11_3@nlohmann@@V?$allocator@V?$basic_json@Vmap@std@@Vvector@2@V?$basic_string@DU?$char_traits@D@std@@V?$allocator@D@2@@2@_N_J_KNVallocator@2@Uadl_serializer@json_abi_v3_11_3@nlohmann@@V?$vector@EV?$allocator@E@std@@@2@X@json_abi_v3_11_3@nlohmann@@@std@@@std@@QAEPAV?$basic_json@Vmap@std@@Vvector@2@V?$basic_string@DU?$char_traits@D@std@@V?$allocator@D@2@@2@_N_J_KNVallocator@2@Uadl_serializer@json_abi_v3_11_3@nlohmann@@V?$vector@EV?$allocator@E@std@@@2@X@json_abi_v3_11_3@nlohmann@@QAV234@AA_K@Z 10045cb0 f i db.obj
 0001:00044e40       ??$_Emplace_reallocate@AA_J@?$vector@V?$basic_json@Vmap@std@@Vvector@2@V?$basic_string@DU?$char_traits@D@std@@V?$allocator@D@2@@2@_N_J_KNVallocator@2@Uadl_serializer@json_abi_v3_11_3@nlohmann@@V?$vector@EV?$allocator@E@std@@@2@X@json_abi_v3_11_3@nlohmann@@V?$allocator@V?$basic_json@Vmap@std@@Vvector@2@V?$basic_string@DU?$char_traits@D@std@@V?$allocator@D@2@@2@_N_J_KNVallocator@2@Uadl_serializer@json_abi_v3_11_3@nlohmann@@V?$vector@EV?$allocator@E@std@@@2@X@json_abi_v3_11_3@nlohmann@@@std@@@std@@QAEPAV?$basic_json@Vmap@std@@Vvector@2@V?$basic_string@DU?$char_traits@D@std@@V?$allocator@D@2@@2@_N_J_KNVallocator@2@Uadl_serializer@json_abi_v3_11_3@nlohmann@@V?$vector@EV?$allocator@E@std@@@2@X@json_abi_v3_11_3@nlohmann@@QAV234@AA_J@Z 10045e40 f i db.obj
 0001:00044fd0       ??$_Emplace_reallocate@AA_N@?$vector@V?$basic_json@Vmap@std@@Vvector@2@V?$basic_string@DU?$char_traits@D@std@@V?$allocator@D@2@@2@_N_J_KNVallocator@2@Uadl_serializer@json_abi_v3_11_3@nlohmann@@V?$vector@EV?$allocator@E@std@@@2@X@json_abi_v3_11_3@nlohmann@@V?$allocator@V?$basic_json@Vmap@std@@Vvector@2@V?$basic_string@DU?$char_traits@D@std@@V?$allocator@D@2@@2@_N_J_KNVallocator@2@Uadl_serializer@json_abi_v3_11_3@nlohmann@@V?$vector@EV?$allocator@E@std@@@2@X@json_abi_v3_11_3@nlohmann@@@std@@@std@@QAEPAV?$basic_json@Vmap@std@@Vvector@2@V?$basic_string@DU?$char_traits@D@std@@V?$allocator@D@2@@2@_N_J_KNVallocator@2@Uadl_serializer@json_abi_v3_11_3@nlohmann@@V?$vector@EV?$allocator@E@std@@@2@X@json_abi_v3_11_3@nlohmann@@QAV234@AA_N@Z 10045fd0 f i db.obj
 0001:000451e0       ??$_Emplace_reallocate@$$T@?$vector@V?$basic_json@Vmap@std@@Vvector@2@V?$basic_string@DU?$char_traits@D@std@@V?$allocator@D@2@@2@_N_J_KNVallocator@2@Uadl_serializer@json_abi_v3_11_3@nlohmann@@V?$vector@EV?$allocator@E@std@@@2@X@json_abi_v3_11_3@nlohmann@@V?$allocator@V?$basic_json@Vmap@std@@Vvector@2@V?$basic_string@DU?$char_traits@D@std@@V?$allocator@D@2@@2@_N_J_KNVallocator@2@Uadl_serializer@json_abi_v3_11_3@nlohmann@@V?$vector@EV?$allocator@E@std@@@2@X@json_abi_v3_11_3@nlohmann@@@std@@@std@@QAEPAV?$basic_json@Vmap@std@@Vvector@2@V?$basic_string@DU?$char_traits@D@std@@V?$allocator@D@2@@2@_N_J_KNVallocator@2@Uadl_serializer@json_abi_v3_11_3@nlohmann@@V?$vector@EV?$allocator@E@std@@@2@X@json_abi_v3_11_3@nlohmann@@QAV234@$$QA$$T@Z 100461e0 f i db.obj
 0001:000453b0       ??0?$vector@V?$basic_json@Vmap@std@@Vvector@2@V?$basic_string@DU?$char_traits@D@std@@V?$allocator@D@2@@2@_N_J_KNVallocator@2@Uadl_serializer@json_abi_v3_11_3@nlohmann@@V?$vector@EV?$allocator@E@std@@@2@X@json_abi_v3_11_3@nlohmann@@V?$allocator@V?$basic_json@Vmap@std@@Vvector@2@V?$basic_string@DU?$char_traits@D@std@@V?$allocator@D@2@@2@_N_J_KNVallocator@2@Uadl_serializer@json_abi_v3_11_3@nlohmann@@V?$vector@EV?$allocator@E@std@@@2@X@json_abi_v3_11_3@nlohmann@@@std@@@std@@QAE@ABV01@@Z 100463b0 f i db.obj
 0001:000454d0       ??0?$vector@EV?$allocator@E@std@@@std@@QAE@ABV01@@Z 100464d0 f i db.obj
 0001:00045580       ??$?0V?$allocator@U?$_Tree_node@U?$pair@$$CBV?$basic_string@DU?$char_traits@D@std@@V?$allocator@D@2@@std@@V?$basic_json@Vmap@std@@Vvector@2@V?$basic_string@DU?$char_traits@D@std@@V?$allocator@D@2@@2@_N_J_KNVallocator@2@Uadl_serializer@json_abi_v3_11_3@nlohmann@@V?$vector@EV?$allocator@E@std@@@2@X@json_abi_v3_11_3@nlohmann@@@std@@PAX@std@@@std@@@?$_Tree@V?$_Tmap_traits@V?$basic_string@DU?$char_traits@D@std@@V?$allocator@D@2@@std@@V?$basic_json@Vmap@std@@Vvector@2@V?$basic_string@DU?$char_traits@D@std@@V?$allocator@D@2@@2@_N_J_KNVallocator@2@Uadl_serializer@json_abi_v3_11_3@nlohmann@@V?$vector@EV?$allocator@E@std@@@2@X@json_abi_v3_11_3@nlohmann@@U?$less@X@2@V?$allocator@U?$pair@$$CBV?$basic_string@DU?$char_traits@D@std@@V?$allocator@D@2@@std@@V?$basic_json@Vmap@std@@Vvector@2@V?$basic_string@DU?$char_traits@D@std@@V?$allocator@D@2@@2@_N_J_KNVallocator@2@Uadl_serializer@json_abi_v3_11_3@nlohmann@@V?$vector@EV?$allocator@E@std@@@2@X@json_abi_v3_11_3@nlohmann@@@std@@@2@$0A@@std@@@std@@QAE@ABV01@$$QAV?$allocator@U?$_Tree_node@U?$pair@$$CBV?$basic_string@DU?$char_traits@D@std@@V?$allocator@D@2@@std@@V?$basic_json@Vmap@std@@Vvector@2@V?$basic_string@DU?$char_traits@D@std@@V?$allocator@D@2@@2@_N_J_KNVallocator@2@Uadl_serializer@json_abi_v3_11_3@nlohmann@@V?$vector@EV?$allocator@E@std@@@2@X@json_abi_v3_11_3@nlohmann@@@std@@PAX@std@@@1@@Z 10046580 f i db.obj
 0001:00045660       ??$?RV?$basic_json@Vmap@std@@Vvector@2@V?$basic_string@DU?$char_traits@D@std@@V?$allocator@D@2@@2@_N_J_KNVallocator@2@Uadl_serializer@json_abi_v3_11_3@nlohmann@@V?$vector@EV?$allocator@E@std@@@2@X@json_abi_v3_11_3@nlohmann@@AAN@to_json_fn@detail@json_abi_v3_11_3@nlohmann@@QBEXAAV?$basic_json@Vmap@std@@Vvector@2@V?$basic_string@DU?$char_traits@D@std@@V?$allocator@D@2@@2@_N_J_KNVallocator@2@Uadl_serializer@json_abi_v3_11_3@nlohmann@@V?$vector@EV?$allocator@E@std@@@2@X@23@AAN@Z 10046660 f i db.obj
 0001:000456d0       ??$?RV?$basic_json@Vmap@std@@Vvector@2@V?$basic_string@DU?$char_traits@D@std@@V?$allocator@D@2@@2@_N_J_KNVallocator@2@Uadl_serializer@json_abi_v3_11_3@nlohmann@@V?$vector@EV?$allocator@E@std@@@2@X@json_abi_v3_11_3@nlohmann@@AA_K@to_json_fn@detail@json_abi_v3_11_3@nlohmann@@QBEXAAV?$basic_json@Vmap@std@@Vvector@2@V?$basic_string@DU?$char_traits@D@std@@V?$allocator@D@2@@2@_N_J_KNVallocator@2@Uadl_serializer@json_abi_v3_11_3@nlohmann@@V?$vector@EV?$allocator@E@std@@@2@X@23@AA_K@Z 100466d0 f i db.obj
 0001:00045740       ??$?RV?$basic_json@Vmap@std@@Vvector@2@V?$basic_string@DU?$char_traits@D@std@@V?$allocator@D@2@@2@_N_J_KNVallocator@2@Uadl_serializer@json_abi_v3_11_3@nlohmann@@V?$vector@EV?$allocator@E@std@@@2@X@json_abi_v3_11_3@nlohmann@@AA_J@to_json_fn@detail@json_abi_v3_11_3@nlohmann@@QBEXAAV?$basic_json@Vmap@std@@Vvector@2@V?$basic_string@DU?$char_traits@D@std@@V?$allocator@D@2@@2@_N_J_KNVallocator@2@Uadl_serializer@json_abi_v3_11_3@nlohmann@@V?$vector@EV?$allocator@E@std@@@2@X@23@AA_J@Z 10046740 f i db.obj
 0001:000457b0       ??$construct@V?$basic_json@Vmap@std@@Vvector@2@V?$basic_string@DU?$char_traits@D@std@@V?$allocator@D@2@@2@_N_J_KNVallocator@2@Uadl_serializer@json_abi_v3_11_3@nlohmann@@V?$vector@EV?$allocator@E@std@@@2@X@json_abi_v3_11_3@nlohmann@@PBD$0A@@?$external_constructor@$02@detail@json_abi_v3_11_3@nlohmann@@SAXAAV?$basic_json@Vmap@std@@Vvector@2@V?$basic_string@DU?$char_traits@D@std@@V?$allocator@D@2@@2@_N_J_KNVallocator@2@Uadl_serializer@json_abi_v3_11_3@nlohmann@@V?$vector@EV?$allocator@E@std@@@2@X@23@ABQBD@Z 100467b0 f i db.obj
 0001:00045850       ??$_Buynode@ABUpiecewise_construct_t@std@@V?$tuple@ABV?$basic_string@DU?$char_traits@D@std@@V?$allocator@D@2@@std@@@2@V?$tuple@$$V@2@@?$_Tree_comp_alloc@V?$_Tmap_traits@V?$basic_string@DU?$char_traits@D@std@@V?$allocator@D@2@@std@@V?$basic_json@Vmap@std@@Vvector@2@V?$basic_string@DU?$char_traits@D@std@@V?$allocator@D@2@@2@_N_J_KNVallocator@2@Uadl_serializer@json_abi_v3_11_3@nlohmann@@V?$vector@EV?$allocator@E@std@@@2@X@json_abi_v3_11_3@nlohmann@@U?$less@X@2@V?$allocator@U?$pair@$$CBV?$basic_string@DU?$char_traits@D@std@@V?$allocator@D@2@@std@@V?$basic_json@Vmap@std@@Vvector@2@V?$basic_string@DU?$char_traits@D@std@@V?$allocator@D@2@@2@_N_J_KNVallocator@2@Uadl_serializer@json_abi_v3_11_3@nlohmann@@V?$vector@EV?$allocator@E@std@@@2@X@json_abi_v3_11_3@nlohmann@@@std@@@2@$0A@@std@@@std@@QAEPAU?$_Tree_node@U?$pair@$$CBV?$basic_string@DU?$char_traits@D@std@@V?$allocator@D@2@@std@@V?$basic_json@Vmap@std@@Vvector@2@V?$basic_string@DU?$char_traits@D@std@@V?$allocator@D@2@@2@_N_J_KNVallocator@2@Uadl_serializer@json_abi_v3_11_3@nlohmann@@V?$vector@EV?$allocator@E@std@@@2@X@json_abi_v3_11_3@nlohmann@@@std@@PAX@1@ABUpiecewise_construct_t@1@$$QAV?$tuple@ABV?$basic_string@DU?$char_traits@D@std@@V?$allocator@D@2@@std@@@1@$$QAV?$tuple@$$V@1@@Z 10046850 f i db.obj
 0001:000458e0       ??$_Insert_hint@AAU?$pair@$$CBV?$basic_string@DU?$char_traits@D@std@@V?$allocator@D@2@@std@@V?$basic_json@Vmap@std@@Vvector@2@V?$basic_string@DU?$char_traits@D@std@@V?$allocator@D@2@@2@_N_J_KNVallocator@2@Uadl_serializer@json_abi_v3_11_3@nlohmann@@V?$vector@EV?$allocator@E@std@@@2@X@json_abi_v3_11_3@nlohmann@@@std@@PAU?$_Tree_node@U?$pair@$$CBV?$basic_string@DU?$char_traits@D@std@@V?$allocator@D@2@@std@@V?$basic_json@Vmap@std@@Vvector@2@V?$basic_string@DU?$char_traits@D@std@@V?$allocator@D@2@@2@_N_J_KNVallocator@2@Uadl_serializer@json_abi_v3_11_3@nlohmann@@V?$vector@EV?$allocator@E@std@@@2@X@json_abi_v3_11_3@nlohmann@@@std@@PAX@2@@?$_Tree@V?$_Tmap_traits@V?$basic_string@DU?$char_traits@D@std@@V?$allocator@D@2@@std@@V?$basic_json@Vmap@std@@Vvector@2@V?$basic_string@DU?$char_traits@D@std@@V?$allocator@D@2@@2@_N_J_KNVallocator@2@Uadl_serializer@json_abi_v3_11_3@nlohmann@@V?$vector@EV?$allocator@E@std@@@2@X@json_abi_v3_11_3@nlohmann@@U?$less@X@2@V?$allocator@U?$pair@$$CBV?$basic_string@DU?$char_traits@D@std@@V?$allocator@D@2@@std@@V?$basic_json@Vmap@std@@Vvector@2@V?$basic_string@DU?$char_traits@D@std@@V?$allocator@D@2@@2@_N_J_KNVallocator@2@Uadl_serializer@json_abi_v3_11_3@nlohmann@@V?$vector@EV?$allocator@E@std@@@2@X@json_abi_v3_11_3@nlohmann@@@std@@@2@$0A@@std@@@std@@IAE?AV?$_Tree_iterator@V?$_Tree_val@U?$_Tree_simple_types@U?$pair@$$CBV?$basic_string@DU?$char_traits@D@std@@V?$allocator@D@2@@std@@V?$basic_json@Vmap@std@@Vvector@2@V?$basic_string@DU?$char_traits@D@std@@V?$allocator@D@2@@2@_N_J_KNVallocator@2@Uadl_serializer@json_abi_v3_11_3@nlohmann@@V?$vector@EV?$allocator@E@std@@@2@X@json_abi_v3_11_3@nlohmann@@@std@@@std@@@std@@@1@V?$_Tree_const_iterator@V?$_Tree_val@U?$_Tree_simple_types@U?$pair@$$CBV?$basic_string@DU?$char_traits@D@std@@V?$allocator@D@2@@std@@V?$basic_json@Vmap@std@@Vvector@2@V?$basic_string@DU?$char_traits@D@std@@V?$allocator@D@2@@2@_N_J_KNVallocator@2@Uadl_serializer@json_abi_v3_11_3@nlohmann@@V?$vector@EV?$allocator@E@std@@@2@X@json_abi_v3_11_3@nlohmann@@@std@@@std@@@std@@@1@AAU?$pair@$$CBV?$basic_string@DU?$char_traits@D@std@@V?$allocator@D@2@@std@@V?$basic_json@Vmap@std@@Vvector@2@V?$basic_string@DU?$char_traits@D@std@@V?$allocator@D@2@@2@_N_J_KNVallocator@2@Uadl_serializer@json_abi_v3_11_3@nlohmann@@V?$vector@EV?$allocator@E@std@@@2@X@json_abi_v3_11_3@nlohmann@@@1@PAU?$_Tree_node@U?$pair@$$CBV?$basic_string@DU?$char_traits@D@std@@V?$allocator@D@2@@std@@V?$basic_json@Vmap@std@@Vvector@2@V?$basic_string@DU?$char_traits@D@std@@V?$allocator@D@2@@2@_N_J_KNVallocator@2@Uadl_serializer@json_abi_v3_11_3@nlohmann@@V?$vector@EV?$allocator@E@std@@@2@X@json_abi_v3_11_3@nlohmann@@@std@@PAX@1@@Z 100468e0 f i db.obj
 0001:00045c30       ??$construct@V?$basic_json@Vmap@std@@Vvector@2@V?$basic_string@DU?$char_traits@D@std@@V?$allocator@D@2@@2@_N_J_KNVallocator@2@Uadl_serializer@json_abi_v3_11_3@nlohmann@@V?$vector@EV?$allocator@E@std@@@2@X@json_abi_v3_11_3@nlohmann@@@?$external_constructor@$02@detail@json_abi_v3_11_3@nlohmann@@SAXAAV?$basic_json@Vmap@std@@Vvector@2@V?$basic_string@DU?$char_traits@D@std@@V?$allocator@D@2@@2@_N_J_KNVallocator@2@Uadl_serializer@json_abi_v3_11_3@nlohmann@@V?$vector@EV?$allocator@E@std@@@2@X@23@ABV?$basic_string@DU?$char_traits@D@std@@V?$allocator@D@2@@std@@@Z 10046c30 f i db.obj
 0001:00045cb0       ??$_Copy_nodes@U_Copy_tag@?$_Tree@V?$_Tmap_traits@V?$basic_string@DU?$char_traits@D@std@@V?$allocator@D@2@@std@@V?$basic_json@Vmap@std@@Vvector@2@V?$basic_string@DU?$char_traits@D@std@@V?$allocator@D@2@@2@_N_J_KNVallocator@2@Uadl_serializer@json_abi_v3_11_3@nlohmann@@V?$vector@EV?$allocator@E@std@@@2@X@json_abi_v3_11_3@nlohmann@@U?$less@X@2@V?$allocator@U?$pair@$$CBV?$basic_string@DU?$char_traits@D@std@@V?$allocator@D@2@@std@@V?$basic_json@Vmap@std@@Vvector@2@V?$basic_string@DU?$char_traits@D@std@@V?$allocator@D@2@@2@_N_J_KNVallocator@2@Uadl_serializer@json_abi_v3_11_3@nlohmann@@V?$vector@EV?$allocator@E@std@@@2@X@json_abi_v3_11_3@nlohmann@@@std@@@2@$0A@@std@@@std@@@?$_Tree@V?$_Tmap_traits@V?$basic_string@DU?$char_traits@D@std@@V?$allocator@D@2@@std@@V?$basic_json@Vmap@std@@Vvector@2@V?$basic_string@DU?$char_traits@D@std@@V?$allocator@D@2@@2@_N_J_KNVallocator@2@Uadl_serializer@json_abi_v3_11_3@nlohmann@@V?$vector@EV?$allocator@E@std@@@2@X@json_abi_v3_11_3@nlohmann@@U?$less@X@2@V?$allocator@U?$pair@$$CBV?$basic_string@DU?$char_traits@D@std@@V?$allocator@D@2@@std@@V?$basic_json@Vmap@std@@Vvector@2@V?$basic_string@DU?$char_traits@D@std@@V?$allocator@D@2@@2@_N_J_KNVallocator@2@Uadl_serializer@json_abi_v3_11_3@nlohmann@@V?$vector@EV?$allocator@E@std@@@2@X@json_abi_v3_11_3@nlohmann@@@std@@@2@$0A@@std@@@std@@IAEPAU?$_Tree_node@U?$pair@$$CBV?$basic_string@DU?$char_traits@D@std@@V?$allocator@D@2@@std@@V?$basic_json@Vmap@std@@Vvector@2@V?$basic_string@DU?$char_traits@D@std@@V?$allocator@D@2@@2@_N_J_KNVallocator@2@Uadl_serializer@json_abi_v3_11_3@nlohmann@@V?$vector@EV?$allocator@E@std@@@2@X@json_abi_v3_11_3@nlohmann@@@std@@PAX@1@PAU21@0U_Copy_tag@01@@Z 10046cb0 f i db.obj
 0001:00045d70       ??$_Buynode@AAU?$pair@$$CBV?$basic_string@DU?$char_traits@D@std@@V?$allocator@D@2@@std@@V?$basic_json@Vmap@std@@Vvector@2@V?$basic_string@DU?$char_traits@D@std@@V?$allocator@D@2@@2@_N_J_KNVallocator@2@Uadl_serializer@json_abi_v3_11_3@nlohmann@@V?$vector@EV?$allocator@E@std@@@2@X@json_abi_v3_11_3@nlohmann@@@std@@@?$_Tree_comp_alloc@V?$_Tmap_traits@V?$basic_string@DU?$char_traits@D@std@@V?$allocator@D@2@@std@@V?$basic_json@Vmap@std@@Vvector@2@V?$basic_string@DU?$char_traits@D@std@@V?$allocator@D@2@@2@_N_J_KNVallocator@2@Uadl_serializer@json_abi_v3_11_3@nlohmann@@V?$vector@EV?$allocator@E@std@@@2@X@json_abi_v3_11_3@nlohmann@@U?$less@X@2@V?$allocator@U?$pair@$$CBV?$basic_string@DU?$char_traits@D@std@@V?$allocator@D@2@@std@@V?$basic_json@Vmap@std@@Vvector@2@V?$basic_string@DU?$char_traits@D@std@@V?$allocator@D@2@@2@_N_J_KNVallocator@2@Uadl_serializer@json_abi_v3_11_3@nlohmann@@V?$vector@EV?$allocator@E@std@@@2@X@json_abi_v3_11_3@nlohmann@@@std@@@2@$0A@@std@@@std@@QAEPAU?$_Tree_node@U?$pair@$$CBV?$basic_string@DU?$char_traits@D@std@@V?$allocator@D@2@@std@@V?$basic_json@Vmap@std@@Vvector@2@V?$basic_string@DU?$char_traits@D@std@@V?$allocator@D@2@@2@_N_J_KNVallocator@2@Uadl_serializer@json_abi_v3_11_3@nlohmann@@V?$vector@EV?$allocator@E@std@@@2@X@json_abi_v3_11_3@nlohmann@@@std@@PAX@1@AAU?$pair@$$CBV?$basic_string@DU?$char_traits@D@std@@V?$allocator@D@2@@std@@V?$basic_json@Vmap@std@@Vvector@2@V?$basic_string@DU?$char_traits@D@std@@V?$allocator@D@2@@2@_N_J_KNVallocator@2@Uadl_serializer@json_abi_v3_11_3@nlohmann@@V?$vector@EV?$allocator@E@std@@@2@X@json_abi_v3_11_3@nlohmann@@@1@@Z 10046d70 f i db.obj
 0001:00045e00       _gameInit                  10046e00 f   Dll.obj
 0001:00045e10       _DllMain@12                10046e10 f   Dll.obj
 0001:00045e20       _newAIModule               10046e20 f   Dll.obj
 0001:00045e40       ?playerScores@FastAPproximation@UAlbertaBot@@QBE?AU?$pair@HH@std@@XZ 10046e40 f   FAP.obj
 0001:00045ed0       ?dealDamage@FastAPproximation@UAlbertaBot@@ABEXABUFAPUnit@12@HVDamageType@BWAPI@@@Z 10046ed0 f   FAP.obj
 0001:00045f60       ?unitsim@FastAPproximation@UAlbertaBot@@AAEXABUFAPUnit@12@AAV?$vector@UFAPUnit@FastAPproximation@UAlbertaBot@@V?$allocator@UFAPUnit@FastAPproximation@UAlbertaBot@@@std@@@std@@@Z 10046f60 f   FAP.obj
 0001:000461e0       ?medicsim@FastAPproximation@UAlbertaBot@@AAEXABUFAPUnit@12@AAV?$vector@UFAPUnit@FastAPproximation@UAlbertaBot@@V?$allocator@UFAPUnit@FastAPproximation@UAlbertaBot@@@std@@@std@@@Z 100471e0 f   FAP.obj
 0001:000462a0       ?suicideSim@FastAPproximation@UAlbertaBot@@AAE_NABUFAPUnit@12@AAV?$vector@UFAPUnit@FastAPproximation@UAlbertaBot@@V?$allocator@UFAPUnit@FastAPproximation@UAlbertaBot@@@std@@@std@@@Z 100472a0 f   FAP.obj
 0001:00046450       ?isimulate@FastAPproximation@UAlbertaBot@@AAEX_N@Z 10047450 f   FAP.obj
 0001:00046650       ?unitDeath@FastAPproximation@UAlbertaBot@@AAEXABUFAPUnit@12@AAV?$vector@UFAPUnit@FastAPproximation@UAlbertaBot@@V?$allocator@UFAPUnit@FastAPproximation@UAlbertaBot@@@std@@@std@@@Z 10047650 f   FAP.obj
 0001:00046710       ??0FAPUnit@FastAPproximation@UAlbertaBot@@QAE@ABUUnitInfo@2@@Z 10047710 f   FAP.obj
 0001:00046cf0       ??4FAPUnit@FastAPproximation@UAlbertaBot@@QBEABU012@ABU012@@Z 10047cf0 f   FAP.obj
 0001:00046db0       ??$_Emplace_reallocate@ABUFAPUnit@FastAPproximation@UAlbertaBot@@@?$vector@UFAPUnit@FastAPproximation@UAlbertaBot@@V?$allocator@UFAPUnit@FastAPproximation@UAlbertaBot@@@std@@@std@@QAEPAUFAPUnit@FastAPproximation@UAlbertaBot@@QAU234@ABU234@@Z 10047db0 f i FAP.obj
 0001:00046f60       ??1TimerManager@UAlbertaBot@@QAE@XZ 10047f60 f i GameCommander.obj
 0001:00046f80       ?update@GameCommander@UAlbertaBot@@QAEXXZ 10047f80 f   GameCommander.obj
 0001:00047740       ?setCombatUnits@GameCommander@UAlbertaBot@@QAEXXZ 10048740 f   GameCommander.obj
 0001:000478b0       ?surrenderMonkey@GameCommander@UAlbertaBot@@AAE_NXZ 100488b0 f   GameCommander.obj
 0001:00047a40       ?Instance@GameCommander@UAlbertaBot@@SAAAV12@XZ 10048a40 f   GameCommander.obj
 0001:00047c60       ??1?$vector@VTimer@BOSS@@V?$allocator@VTimer@BOSS@@@std@@@std@@QAE@XZ 10048c60 f i GameCommander.obj
 0001:00047c70       ?getName@?$Type@VTechType@BWAPI@@$0CO@@BWAPI@@QBEABV?$basic_string@DU?$char_traits@D@std@@V?$allocator@D@2@@std@@XZ 10048c70 f i GameCommander.obj
 0001:00047c90       ??4?$basic_string@DU?$char_traits@D@std@@V?$allocator@D@2@@std@@QAEAAV01@ABV01@@Z 10048c90 f i GameCommander.obj
 0001:00047cc0       ??0UnitType@BWAPI@@QAE@H@Z 10048cc0 f i GameRecord.obj
 0001:00047ce0       ?getID@?$Type@VTechType@BWAPI@@$0CO@@BWAPI@@QBEHXZ 10048ce0 f i BOSS:ActionTypeData.obj
 0001:00047ce0       ?getID@?$Type@VUnitType@BWAPI@@$0OJ@@BWAPI@@QBEHXZ 10048ce0 f i GameRecord.obj
 0001:00047cf0       ??$?6DU?$char_traits@D@std@@V?$allocator@D@1@@std@@YAAAV?$basic_ostream@DU?$char_traits@D@std@@@0@AAV10@ABV?$basic_string@DU?$char_traits@D@std@@V?$allocator@D@2@@0@@Z 10048cf0 f i GameRecord.obj
 0001:00047d10       ??$?0V?$allocator@U?$_Tree_node@U?$pair@$$CBVUnitType@BWAPI@@H@std@@PAX@std@@@std@@@?$_Tree@V?$_Tmap_traits@VUnitType@BWAPI@@HU?$less@VUnitType@BWAPI@@@std@@V?$allocator@U?$pair@$$CBVUnitType@BWAPI@@H@std@@@4@$0A@@std@@@std@@QAE@ABV01@$$QAV?$allocator@U?$_Tree_node@U?$pair@$$CBVUnitType@BWAPI@@H@std@@PAX@std@@@1@@Z 10048d10 f i GameRecord.obj
 0001:00047da0       ??1sentry@?$basic_istream@DU?$char_traits@D@std@@@std@@QAE@XZ 10048da0 f i GameRecord.obj
 0001:00047df0       ?_Change_array@?$vector@V?$basic_string@DU?$char_traits@D@std@@V?$allocator@D@2@@std@@V?$allocator@V?$basic_string@DU?$char_traits@D@std@@V?$allocator@D@2@@std@@@2@@std@@AAEXQAV?$basic_string@DU?$char_traits@D@std@@V?$allocator@D@2@@2@II@Z 10048df0 f i GameRecord.obj
 0001:00047e80       ??$_Insert_string@DU?$char_traits@D@std@@I@std@@YAAAV?$basic_ostream@DU?$char_traits@D@std@@@0@AAV10@QBDI@Z 10048e80 f i GameRecord.obj
 0001:00048090       ??$_Uninitialized_move@PAV?$basic_string@DU?$char_traits@D@std@@V?$allocator@D@2@@std@@PAV12@V?$allocator@V?$basic_string@DU?$char_traits@D@std@@V?$allocator@D@2@@std@@@2@@std@@YAPAV?$basic_string@DU?$char_traits@D@std@@V?$allocator@D@2@@0@QAV10@0PAV10@AAV?$allocator@V?$basic_string@DU?$char_traits@D@std@@V?$allocator@D@2@@std@@@0@@Z 10049090 f i GameRecord.obj
 0001:000480f0       ?get@Grid@UAlbertaBot@@IBEHHH@Z 100490f0 f   Grid.obj
 0001:00048270       ?at@Grid@UAlbertaBot@@UBEHHH@Z 10049270 f   Grid.obj
 0001:00048270       ?at@GridWalk@UAlbertaBot@@UBEHHH@Z 10049270 f   GridWalk.obj
 0001:00048280       ?at@GridWalk@UAlbertaBot@@UBEHABV?$Point@H$07@BWAPI@@@Z 10049280 f   GridWalk.obj
 0001:00048280       ?at@Grid@UAlbertaBot@@UBEHABV?$Point@H$0CA@@BWAPI@@@Z 10049280 f   Grid.obj
 0001:000482a0       ?at@Grid@UAlbertaBot@@UBEHABV?$Point@H$07@BWAPI@@@Z 100492a0 f   Grid.obj
 0001:000482e0       ?at@Grid@UAlbertaBot@@UBEHABV?$Point@H$00@BWAPI@@@Z 100492e0 f   Grid.obj
 0001:00048320       ?at@Grid@UAlbertaBot@@UBEHPAVUnitInterface@BWAPI@@@Z 10049320 f   Grid.obj
 0001:00048350       ?selfTest@Grid@UAlbertaBot@@UBEXABV?$basic_string@DU?$char_traits@D@std@@V?$allocator@D@2@@std@@@Z 10049350 f   Grid.obj
 0001:00048470       ?draw@Grid@UAlbertaBot@@UBEXXZ 10049470 f   Grid.obj
 0001:00048500       ??A?$vector@V?$vector@FV?$allocator@F@std@@@std@@V?$allocator@V?$vector@FV?$allocator@F@std@@@std@@@2@@std@@QAEAAV?$vector@FV?$allocator@F@std@@@1@I@Z 10049500 f i GridAttacks.obj
 0001:00048500       ??A?$vector@V?$vector@FV?$allocator@F@std@@@std@@V?$allocator@V?$vector@FV?$allocator@F@std@@@std@@@2@@std@@QBEABV?$vector@FV?$allocator@F@std@@@1@I@Z 10049500 f i Grid.obj
 0001:00048520       ?size@?$vector@V?$vector@FV?$allocator@F@std@@@std@@V?$allocator@V?$vector@FV?$allocator@F@std@@@std@@@2@@std@@QBEIXZ 10049520 f i Grid.obj
 0001:00048540       ??0?$vector@V?$vector@FV?$allocator@F@std@@@std@@V?$allocator@V?$vector@FV?$allocator@F@std@@@std@@@2@@std@@QAE@IABV?$vector@FV?$allocator@F@std@@@1@ABV?$allocator@V?$vector@FV?$allocator@F@std@@@std@@@1@@Z 10049540 f i Grid.obj
 0001:000485f0       ?size@?$vector@FV?$allocator@F@std@@@std@@QBEIXZ 100495f0 f i Grid.obj
 0001:00048600       ??0?$vector@GV?$allocator@G@std@@@std@@QAE@IABGABV?$allocator@G@1@@Z 10049600 f i MapPartitions.obj
 0001:00048600       ??0?$vector@FV?$allocator@F@std@@@std@@QAE@IABFABV?$allocator@F@1@@Z 10049600 f i Grid.obj
 0001:00048650       ?_Buy@?$vector@V?$vector@FV?$allocator@F@std@@@std@@V?$allocator@V?$vector@FV?$allocator@F@std@@@std@@@2@@std@@AAE_NI@Z 10049650 f i Grid.obj
 0001:00048710       ?_Buy@?$vector@GV?$allocator@G@std@@@std@@AAE_NI@Z 10049710 f i MapPartitions.obj
 0001:00048710       ?_Buy@?$vector@FV?$allocator@F@std@@@std@@AAE_NI@Z 10049710 f i Grid.obj
 0001:000487d0       ??1?$_Uninitialized_backout_al@PAV?$vector@GV?$allocator@G@std@@@std@@V?$allocator@V?$vector@GV?$allocator@G@std@@@std@@@2@@std@@QAE@XZ 100497d0 f i MapPartitions.obj
 0001:000487d0       ??1?$_Uninitialized_backout_al@PAV?$vector@FV?$allocator@F@std@@@std@@V?$allocator@V?$vector@FV?$allocator@F@std@@@std@@@2@@std@@QAE@XZ 100497d0 f i Grid.obj
 0001:00048800       ??0?$vector@FV?$allocator@F@std@@@std@@QAE@ABV01@@Z 10049800 f i Grid.obj
 0001:00048800       ??0?$vector@GV?$allocator@G@std@@@std@@QAE@ABV01@@Z 10049800 f i MapPartitions.obj
 0001:00048860       ?addTilesInRange@GridAttacks@UAlbertaBot@@AAEXABV?$Point@H$00@BWAPI@@H@Z 10049860 f   GridAttacks.obj
 0001:000489b0       ??0GridAttacks@UAlbertaBot@@QAE@_N@Z 100499b0 f   GridAttacks.obj
 0001:00048a60       ?update@GridAttacks@UAlbertaBot@@QAEXXZ 10049a60 f   GridAttacks.obj
 0001:00048d10       ?inRange@GridAttacks@UAlbertaBot@@QBE_NABV?$Point@H$0CA@@BWAPI@@0@Z 10049d10 f   GridAttacks.obj
 0001:00048df0       ?inRange@GridAttacks@UAlbertaBot@@QBE_NVUnitType@BWAPI@@ABV?$Point@H$0CA@@4@@Z 10049df0 f   GridAttacks.obj
 0001:00048e60       ?inRange@GridAttacks@UAlbertaBot@@QBE_NPAVUnitInterface@BWAPI@@@Z 10049e60 f   GridAttacks.obj
 0001:00048f90       ?compute@GridBuildable@UAlbertaBot@@QAEXXZ 10049f90 f   GridBuildable.obj
 0001:00049190       ??0GridDistances@UAlbertaBot@@QAE@ABV?$Point@H$0CA@@BWAPI@@_N@Z 1004a190 f   GridDistances.obj
 0001:00049270       ??0GridDistances@UAlbertaBot@@QAE@ABV?$Point@H$0CA@@BWAPI@@H_N@Z 1004a270 f   GridDistances.obj
 0001:00049350       ?compute@GridDistances@UAlbertaBot@@AAEXABV?$Point@H$0CA@@BWAPI@@H_N@Z 1004a350 f   GridDistances.obj
 0001:00049680       ?_Reallocate_exactly@?$vector@V?$Point@H$07@BWAPI@@V?$allocator@V?$Point@H$07@BWAPI@@@std@@@std@@AAEXI@Z 1004a680 f i GridInset.obj
 0001:00049680       ?_Reallocate_exactly@?$vector@V?$Point@H$0CA@@BWAPI@@V?$allocator@V?$Point@H$0CA@@BWAPI@@@std@@@std@@AAEXI@Z 1004a680 f i GridDistances.obj
 0001:00049730       ?_Change_array@?$vector@V?$Point@H$0CA@@BWAPI@@V?$allocator@V?$Point@H$0CA@@BWAPI@@@std@@@std@@AAEXQAV?$Point@H$0CA@@BWAPI@@II@Z 1004a730 f i GridDistances.obj
 0001:00049730       ?_Change_array@?$vector@V?$Point@H$07@BWAPI@@V?$allocator@V?$Point@H$07@BWAPI@@@std@@@std@@AAEXQAV?$Point@H$07@BWAPI@@II@Z 1004a730 f i GridInset.obj
 0001:00049790       ??$_Emplace_reallocate@V?$Point@H$0CA@@BWAPI@@@?$vector@V?$Point@H$0CA@@BWAPI@@V?$allocator@V?$Point@H$0CA@@BWAPI@@@std@@@std@@QAEPAV?$Point@H$0CA@@BWAPI@@QAV23@$$QAV23@@Z 1004a790 f i MicroOverlords.obj
 0001:00049790       ??$_Emplace_reallocate@V?$Point@H$07@BWAPI@@@?$vector@V?$Point@H$07@BWAPI@@V?$allocator@V?$Point@H$07@BWAPI@@@std@@@std@@QAEPAV?$Point@H$07@BWAPI@@QAV23@$$QAV23@@Z 1004a790 f i GridInset.obj
 0001:00049790       ??$_Emplace_reallocate@ABV?$Point@H$0CA@@BWAPI@@@?$vector@V?$Point@H$0CA@@BWAPI@@V?$allocator@V?$Point@H$0CA@@BWAPI@@@std@@@std@@QAEPAV?$Point@H$0CA@@BWAPI@@QAV23@ABV23@@Z 1004a790 f i GridDistances.obj
 0001:00049790       ??$_Emplace_reallocate@ABV?$Point@H$07@BWAPI@@@?$vector@V?$Point@H$07@BWAPI@@V?$allocator@V?$Point@H$07@BWAPI@@@std@@@std@@QAEPAV?$Point@H$07@BWAPI@@QAV23@ABV23@@Z 1004a790 f i GridInset.obj
 0001:000498f0       ?initialize@GridInset@UAlbertaBot@@QAEXXZ 1004a8f0 f   GridInset.obj
 0001:0004a380       ?draw@GridInset@UAlbertaBot@@UBEXXZ 1004b380 f   GridInset.obj
 0001:0004a4a0       ?initialize@GridRoom@UAlbertaBot@@QAEXXZ 1004b4a0 f   GridRoom.obj
 0001:0004a9a0       ?draw@GridRoom@UAlbertaBot@@UBEXXZ 1004b9a0 f   GridRoom.obj
 0001:0004aac0       ?initialize@GridTileRoom@UAlbertaBot@@QAEXXZ 1004bac0 f   GridTileRoom.obj
 0001:0004aca0       ?draw@GridTileRoom@UAlbertaBot@@UBEXXZ 1004bca0 f   GridTileRoom.obj
 0001:0004ad40       ?at@GridWalk@UAlbertaBot@@UBEHABV?$Point@H$0CA@@BWAPI@@@Z 1004bd40 f   GridWalk.obj
 0001:0004ad70       ?at@GridWalk@UAlbertaBot@@UBEHABV?$Point@H$00@BWAPI@@@Z 1004bd70 f   GridWalk.obj
 0001:0004adb0       ?at@GridWalk@UAlbertaBot@@UBEHPAVUnitInterface@BWAPI@@@Z 1004bdb0 f   GridWalk.obj
 0001:0004ade0       ??0Zone@UAlbertaBot@@AAE@H@Z 1004bde0 f   GridZone.obj
 0001:0004ae70       ?mergeInto@Zone@UAlbertaBot@@AAEXPAV12@@Z 1004be70 f   GridZone.obj
 0001:0004b110       ?initialize@GridZone@UAlbertaBot@@QAEXXZ 1004c110 f   GridZone.obj
 0001:0004bb90       ?ptr@GridZone@UAlbertaBot@@QAEPAVZone@2@ABV?$Point@H$0CA@@BWAPI@@@Z 1004cb90 f   GridZone.obj
 0001:0004bbf0       ?clear@?$_Tree@V?$_Tset_traits@PBVZone@UAlbertaBot@@U?$less@PBVZone@UAlbertaBot@@@std@@V?$allocator@PBVZone@UAlbertaBot@@@4@$0A@@std@@@std@@QAEXXZ 1004cbf0 f i InformationManager.obj
 0001:0004bbf0       ?clear@?$_Tree@V?$_Tset_traits@PAVZone@UAlbertaBot@@U?$less@PAVZone@UAlbertaBot@@@std@@V?$allocator@PAVZone@UAlbertaBot@@@4@$0A@@std@@@std@@QAEXXZ 1004cbf0 f i GridZone.obj
 0001:0004bc80       ?_Erase@?$_Tree@V?$_Tset_traits@PAVUnitInterface@BWAPI@@U?$less@PAVUnitInterface@BWAPI@@@std@@V?$allocator@PAVUnitInterface@BWAPI@@@4@$0A@@std@@@std@@IAEXPAU?$_Tree_node@PAVUnitInterface@BWAPI@@PAX@2@@Z 1004cc80 f i WorkerManager.obj
 0001:0004bc80       ?_Erase@?$_Tree@V?$_Tset_traits@PBVZone@UAlbertaBot@@U?$less@PBVZone@UAlbertaBot@@@std@@V?$allocator@PBVZone@UAlbertaBot@@@4@$0A@@std@@@std@@IAEXPAU?$_Tree_node@PBVZone@UAlbertaBot@@PAX@2@@Z 1004cc80 f i InformationManager.obj
 0001:0004bc80       ?_Erase@?$_Tree@V?$_Tset_traits@VUnitType@BWAPI@@U?$less@VUnitType@BWAPI@@@std@@V?$allocator@VUnitType@BWAPI@@@4@$0A@@std@@@std@@IAEXPAU?$_Tree_node@VUnitType@BWAPI@@PAX@2@@Z 1004cc80 f i MacroAct.obj
 0001:0004bc80       ?_Erase@?$_Tree@V?$_Tset_traits@PAVZone@UAlbertaBot@@U?$less@PAVZone@UAlbertaBot@@@std@@V?$allocator@PAVZone@UAlbertaBot@@@4@$0A@@std@@@std@@IAEXPAU?$_Tree_node@PAVZone@UAlbertaBot@@PAX@2@@Z 1004cc80 f i GridZone.obj
 0001:0004bcc0       ?erase@?$_Tree@V?$_Tset_traits@PAVZone@UAlbertaBot@@U?$less@PAVZone@UAlbertaBot@@@std@@V?$allocator@PAVZone@UAlbertaBot@@@4@$0A@@std@@@std@@QAE?AV?$_Tree_const_iterator@V?$_Tree_val@U?$_Tree_simple_types@PAVZone@UAlbertaBot@@@std@@@std@@@2@V32@0@Z 1004ccc0 f i GridZone.obj
 0001:0004bdb0       ?_Buyheadnode@?$_Tree_comp_alloc@V?$_Tset_traits@PAVZone@UAlbertaBot@@U?$less@PAVZone@UAlbertaBot@@@std@@V?$allocator@PAVZone@UAlbertaBot@@@4@$0A@@std@@@std@@QAEPAU?$_Tree_node@PAVZone@UAlbertaBot@@PAX@2@XZ 1004cdb0 f i GridZone.obj
 0001:0004bdb0       ?_Buyheadnode@?$_Tree_comp_alloc@V?$_Tset_traits@PAVUnitInterface@BWAPI@@U?$less@PAVUnitInterface@BWAPI@@@std@@V?$allocator@PAVUnitInterface@BWAPI@@@4@$0A@@std@@@std@@QAEPAU?$_Tree_node@PAVUnitInterface@BWAPI@@PAX@2@XZ 1004cdb0 f i WorkerManager.obj
 0001:0004bdb0       ?_Buyheadnode@?$_Tree_comp_alloc@V?$_Tset_traits@PBVZone@UAlbertaBot@@U?$less@PBVZone@UAlbertaBot@@@std@@V?$allocator@PBVZone@UAlbertaBot@@@4@$0A@@std@@@std@@QAEPAU?$_Tree_node@PBVZone@UAlbertaBot@@PAX@2@XZ 1004cdb0 f i InformationManager.obj
 0001:0004bdb0       ?_Buyheadnode@?$_Tree_comp_alloc@V?$_Tset_traits@VUnitType@BWAPI@@U?$less@VUnitType@BWAPI@@@std@@V?$allocator@VUnitType@BWAPI@@@4@$0A@@std@@@std@@QAEPAU?$_Tree_node@VUnitType@BWAPI@@PAX@2@XZ 1004cdb0 f i MacroAct.obj
 0001:0004bdd0       ??$_Insert_nohint@ABQAVUnitInterface@BWAPI@@U_Not_a_node_tag@std@@@?$_Tree@V?$_Tset_traits@PAVUnitInterface@BWAPI@@U?$less@PAVUnitInterface@BWAPI@@@std@@V?$allocator@PAVUnitInterface@BWAPI@@@4@$0A@@std@@@std@@IAE?AU?$pair@V?$_Tree_const_iterator@V?$_Tree_val@U?$_Tree_simple_types@PAVUnitInterface@BWAPI@@@std@@@std@@@std@@_N@1@_NABQAVUnitInterface@BWAPI@@U_Not_a_node_tag@1@@Z 1004cdd0 f i WorkerData.obj
 0001:0004bdd0       ??$_Insert_nohint@ABQBVZone@UAlbertaBot@@U_Not_a_node_tag@std@@@?$_Tree@V?$_Tset_traits@PBVZone@UAlbertaBot@@U?$less@PBVZone@UAlbertaBot@@@std@@V?$allocator@PBVZone@UAlbertaBot@@@4@$0A@@std@@@std@@IAE?AU?$pair@V?$_Tree_const_iterator@V?$_Tree_val@U?$_Tree_simple_types@PBVZone@UAlbertaBot@@@std@@@std@@@std@@_N@1@_NABQBVZone@UAlbertaBot@@U_Not_a_node_tag@1@@Z 1004cdd0 f i InformationManager.obj
 0001:0004bdd0       ??$_Insert_nohint@ABQAVZone@UAlbertaBot@@U_Not_a_node_tag@std@@@?$_Tree@V?$_Tset_traits@PAVZone@UAlbertaBot@@U?$less@PAVZone@UAlbertaBot@@@std@@V?$allocator@PAVZone@UAlbertaBot@@@4@$0A@@std@@@std@@IAE?AU?$pair@V?$_Tree_const_iterator@V?$_Tree_val@U?$_Tree_simple_types@PAVZone@UAlbertaBot@@@std@@@std@@@std@@_N@1@_NABQAVZone@UAlbertaBot@@U_Not_a_node_tag@1@@Z 1004cdd0 f i GridZone.obj
 0001:0004bf20       ??$_Insert_at@VUnitType@BWAPI@@U_Not_a_node_tag@std@@@?$_Tree@V?$_Tset_traits@VUnitType@BWAPI@@U?$less@VUnitType@BWAPI@@@std@@V?$allocator@VUnitType@BWAPI@@@4@$0A@@std@@@std@@IAE?AV?$_Tree_const_iterator@V?$_Tree_val@U?$_Tree_simple_types@VUnitType@BWAPI@@@std@@@std@@@1@_NPAU?$_Tree_node@VUnitType@BWAPI@@PAX@1@$$QAVUnitType@BWAPI@@U_Not_a_node_tag@1@@Z 1004cf20 f i MacroAct.obj
 0001:0004bf20       ??$_Insert_at@ABQAVZone@UAlbertaBot@@U_Not_a_node_tag@std@@@?$_Tree@V?$_Tset_traits@PAVZone@UAlbertaBot@@U?$less@PAVZone@UAlbertaBot@@@std@@V?$allocator@PAVZone@UAlbertaBot@@@4@$0A@@std@@@std@@IAE?AV?$_Tree_const_iterator@V?$_Tree_val@U?$_Tree_simple_types@PAVZone@UAlbertaBot@@@std@@@std@@@1@_NPAU?$_Tree_node@PAVZone@UAlbertaBot@@PAX@1@ABQAVZone@UAlbertaBot@@U_Not_a_node_tag@1@@Z 1004cf20 f i GridZone.obj
 0001:0004bf20       ??$_Insert_at@ABQBVZone@UAlbertaBot@@U_Not_a_node_tag@std@@@?$_Tree@V?$_Tset_traits@PBVZone@UAlbertaBot@@U?$less@PBVZone@UAlbertaBot@@@std@@V?$allocator@PBVZone@UAlbertaBot@@@4@$0A@@std@@@std@@IAE?AV?$_Tree_const_iterator@V?$_Tree_val@U?$_Tree_simple_types@PBVZone@UAlbertaBot@@@std@@@std@@@1@_NPAU?$_Tree_node@PBVZone@UAlbertaBot@@PAX@1@ABQBVZone@UAlbertaBot@@U_Not_a_node_tag@1@@Z 1004cf20 f i InformationManager.obj
 0001:0004bf20       ??$_Insert_at@ABQAVUnitInterface@BWAPI@@U_Not_a_node_tag@std@@@?$_Tree@V?$_Tset_traits@PAVUnitInterface@BWAPI@@U?$less@PAVUnitInterface@BWAPI@@@std@@V?$allocator@PAVUnitInterface@BWAPI@@@4@$0A@@std@@@std@@IAE?AV?$_Tree_const_iterator@V?$_Tree_val@U?$_Tree_simple_types@PAVUnitInterface@BWAPI@@@std@@@std@@@1@_NPAU?$_Tree_node@PAVUnitInterface@BWAPI@@PAX@1@ABQAVUnitInterface@BWAPI@@U_Not_a_node_tag@1@@Z 1004cf20 f i WorkerData.obj
 0001:0004c150       ??$_Buynode@ABQBVZone@UAlbertaBot@@@?$_Tree_comp_alloc@V?$_Tset_traits@PBVZone@UAlbertaBot@@U?$less@PBVZone@UAlbertaBot@@@std@@V?$allocator@PBVZone@UAlbertaBot@@@4@$0A@@std@@@std@@QAEPAU?$_Tree_node@PBVZone@UAlbertaBot@@PAX@1@ABQBVZone@UAlbertaBot@@@Z 1004d150 f i InformationManager.obj
 0001:0004c150       ??$_Buynode@VUnitType@BWAPI@@@?$_Tree_comp_alloc@V?$_Tset_traits@VUnitType@BWAPI@@U?$less@VUnitType@BWAPI@@@std@@V?$allocator@VUnitType@BWAPI@@@4@$0A@@std@@@std@@QAEPAU?$_Tree_node@VUnitType@BWAPI@@PAX@1@$$QAVUnitType@BWAPI@@@Z 1004d150 f i MacroAct.obj
 0001:0004c150       ??$_Buynode@ABQAVUnitInterface@BWAPI@@@?$_Tree_comp_alloc@V?$_Tset_traits@PAVUnitInterface@BWAPI@@U?$less@PAVUnitInterface@BWAPI@@@std@@V?$allocator@PAVUnitInterface@BWAPI@@@4@$0A@@std@@@std@@QAEPAU?$_Tree_node@PAVUnitInterface@BWAPI@@PAX@1@ABQAVUnitInterface@BWAPI@@@Z 1004d150 f i WorkerData.obj
 0001:0004c150       ??$_Buynode@ABQAVZone@UAlbertaBot@@@?$_Tree_comp_alloc@V?$_Tset_traits@PAVZone@UAlbertaBot@@U?$less@PAVZone@UAlbertaBot@@@std@@V?$allocator@PAVZone@UAlbertaBot@@@4@$0A@@std@@@std@@QAEPAU?$_Tree_node@PAVZone@UAlbertaBot@@PAX@1@ABQAVZone@UAlbertaBot@@@Z 1004d150 f i GridZone.obj
 0001:0004c170       ?_Buynode0@?$_Tree_comp_alloc@V?$_Tset_traits@VUnitType@BWAPI@@U?$less@VUnitType@BWAPI@@@std@@V?$allocator@VUnitType@BWAPI@@@4@$0A@@std@@@std@@QAEPAU?$_Tree_node@VUnitType@BWAPI@@PAX@2@XZ 1004d170 f i MacroAct.obj
 0001:0004c170       ?_Buynode0@?$_Tree_comp_alloc@V?$_Tset_traits@PBVZone@UAlbertaBot@@U?$less@PBVZone@UAlbertaBot@@@std@@V?$allocator@PBVZone@UAlbertaBot@@@4@$0A@@std@@@std@@QAEPAU?$_Tree_node@PBVZone@UAlbertaBot@@PAX@2@XZ 1004d170 f i InformationManager.obj
 0001:0004c170       ?_Buynode0@?$_Tree_comp_alloc@V?$_Tset_traits@PAVUnitInterface@BWAPI@@U?$less@PAVUnitInterface@BWAPI@@@std@@V?$allocator@PAVUnitInterface@BWAPI@@@4@$0A@@std@@@std@@QAEPAU?$_Tree_node@PAVUnitInterface@BWAPI@@PAX@2@XZ 1004d170 f i WorkerData.obj
 0001:0004c170       ?_Buynode0@?$_Tree_comp_alloc@V?$_Tset_traits@PAVZone@UAlbertaBot@@U?$less@PAVZone@UAlbertaBot@@@std@@V?$allocator@PAVZone@UAlbertaBot@@@4@$0A@@std@@@std@@QAEPAU?$_Tree_node@PAVZone@UAlbertaBot@@PAX@2@XZ 1004d170 f i GridZone.obj
 0001:0004c190       ??0InformationManager@UAlbertaBot@@AAE@XZ 1004d190 f   InformationManager.obj
 0001:0004c410       ??1?$map@PAVPlayerInterface@BWAPI@@VUnitData@UAlbertaBot@@U?$less@PAVPlayerInterface@BWAPI@@@std@@V?$allocator@U?$pair@QAVPlayerInterface@BWAPI@@VUnitData@UAlbertaBot@@@std@@@6@@std@@QAE@XZ 1004d410 f i InformationManager.obj
 0001:0004c440       ??1?$map@PAVPlayerInterface@BWAPI@@V?$set@PBVZone@UAlbertaBot@@U?$less@PBVZone@UAlbertaBot@@@std@@V?$allocator@PBVZone@UAlbertaBot@@@4@@std@@U?$less@PAVPlayerInterface@BWAPI@@@4@V?$allocator@U?$pair@QAVPlayerInterface@BWAPI@@V?$set@PBVZone@UAlbertaBot@@U?$less@PBVZone@UAlbertaBot@@@std@@V?$allocator@PBVZone@UAlbertaBot@@@4@@std@@@std@@@4@@std@@QAE@XZ 1004d440 f i InformationManager.obj
 0001:0004c4b0       ??1?$map@PAVUnitInterface@BWAPI@@VUnitset@2@U?$less@PAVUnitInterface@BWAPI@@@std@@V?$allocator@U?$pair@QAVUnitInterface@BWAPI@@VUnitset@2@@std@@@5@@std@@QAE@XZ 1004d4b0 f i InformationManager.obj
 0001:0004c520       ?update@InformationManager@UAlbertaBot@@QAEXXZ 1004d520 f   InformationManager.obj
 0001:0004c770       ?updateUnitInfo@InformationManager@UAlbertaBot@@AAEXXZ 1004d770 f   InformationManager.obj
 0001:0004c980       ?updateBaseLocationInfo@InformationManager@UAlbertaBot@@AAEXXZ 1004d980 f   InformationManager.obj
 0001:0004ccc0       ?updateGoneFromLastPosition@InformationManager@UAlbertaBot@@AAEXXZ 1004dcc0 f   InformationManager.obj
 0001:0004d0b0       ?updateTheirTargets@InformationManager@UAlbertaBot@@AAEXXZ 1004e0b0 f   InformationManager.obj
 0001:0004d220       ?updateResources@InformationManager@UAlbertaBot@@AAEXXZ 1004e220 f   InformationManager.obj
 0001:0004d410       ?getUnitInfo@InformationManager@UAlbertaBot@@QBEABV?$map@PAVUnitInterface@BWAPI@@UUnitInfo@UAlbertaBot@@U?$less@PAVUnitInterface@BWAPI@@@std@@V?$allocator@U?$pair@QAVUnitInterface@BWAPI@@UUnitInfo@UAlbertaBot@@@std@@@6@@std@@PAVPlayerInterface@BWAPI@@@Z 1004e410 f   InformationManager.obj
 0001:0004d410       ?getUnitData@InformationManager@UAlbertaBot@@QBEABVUnitData@2@PAVPlayerInterface@BWAPI@@@Z 1004e410 f   InformationManager.obj
 0001:0004d450       ?onUnitDestroy@InformationManager@UAlbertaBot@@QAEXPAVUnitInterface@BWAPI@@@Z 1004e450 f   InformationManager.obj
 0001:0004d5e0       ?getNearbyForce@InformationManager@UAlbertaBot@@QAEXAAV?$vector@UUnitInfo@UAlbertaBot@@V?$allocator@UUnitInfo@UAlbertaBot@@@std@@@std@@V?$Point@H$00@BWAPI@@PAVPlayerInterface@6@H@Z 1004e5e0 f   InformationManager.obj
 0001:0004d7c0       ?weHaveCombatUnits@InformationManager@UAlbertaBot@@QAE_NXZ 1004e7c0 f   InformationManager.obj
 0001:0004d8a0       ?enemyHasAntiAir@InformationManager@UAlbertaBot@@QAE_NXZ 1004e8a0 f   InformationManager.obj
 0001:0004d990       ?enemyHasMobileDetection@InformationManager@UAlbertaBot@@QAE_NXZ 1004e990 f   InformationManager.obj
 0001:0004da20       ?enemyHasSiegeMode@InformationManager@UAlbertaBot@@QAE_NXZ 1004ea20 f   InformationManager.obj
 0001:0004dab0       ?weHaveCloakTech@InformationManager@UAlbertaBot@@QBE_NXZ 1004eab0 f   InformationManager.obj
 0001:0004db70       ?nearestAirStaticDefense@InformationManager@UAlbertaBot@@QBEPAVUnitInterface@BWAPI@@V?$Point@H$00@4@@Z 1004eb70 f   InformationManager.obj
 0001:0004dc90       ?nearestShieldBattery@InformationManager@UAlbertaBot@@QBEPAVUnitInterface@BWAPI@@V?$Point@H$00@4@@Z 1004ec90 f   InformationManager.obj
 0001:0004dd20       ?Instance@InformationManager@UAlbertaBot@@SAAAV12@XZ 1004ed20 f   InformationManager.obj
 0001:0004ddb0       ??A?$map@PAVPlayerInterface@BWAPI@@V?$set@PBVZone@UAlbertaBot@@U?$less@PBVZone@UAlbertaBot@@@std@@V?$allocator@PBVZone@UAlbertaBot@@@4@@std@@U?$less@PAVPlayerInterface@BWAPI@@@4@V?$allocator@U?$pair@QAVPlayerInterface@BWAPI@@V?$set@PBVZone@UAlbertaBot@@U?$less@PBVZone@UAlbertaBot@@@std@@V?$allocator@PBVZone@UAlbertaBot@@@4@@std@@@std@@@4@@std@@QAEAAV?$set@PBVZone@UAlbertaBot@@U?$less@PBVZone@UAlbertaBot@@@std@@V?$allocator@PBVZone@UAlbertaBot@@@4@@1@ABQAVPlayerInterface@BWAPI@@@Z 1004edb0 f i InformationManager.obj
 0001:0004de20       ??A?$map@PAVPlayerInterface@BWAPI@@VUnitData@UAlbertaBot@@U?$less@PAVPlayerInterface@BWAPI@@@std@@V?$allocator@U?$pair@QAVPlayerInterface@BWAPI@@VUnitData@UAlbertaBot@@@std@@@6@@std@@QAEAAVUnitData@UAlbertaBot@@$$QAPAVPlayerInterface@BWAPI@@@Z 1004ee20 f i InformationManager.obj
 0001:0004de20       ??A?$map@PAVPlayerInterface@BWAPI@@VUnitData@UAlbertaBot@@U?$less@PAVPlayerInterface@BWAPI@@@std@@V?$allocator@U?$pair@QAVPlayerInterface@BWAPI@@VUnitData@UAlbertaBot@@@std@@@6@@std@@QAEAAVUnitData@UAlbertaBot@@ABQAVPlayerInterface@BWAPI@@@Z 1004ee20 f i InformationManager.obj
 0001:0004de90       ?_Erase@?$_Tree@V?$_Tmap_traits@PAVUnitInterface@BWAPI@@VUnitset@2@U?$less@PAVUnitInterface@BWAPI@@@std@@V?$allocator@U?$pair@QAVUnitInterface@BWAPI@@VUnitset@2@@std@@@5@$0A@@std@@@std@@IAEXPAU?$_Tree_node@U?$pair@QAVUnitInterface@BWAPI@@VUnitset@2@@std@@PAX@2@@Z 1004ee90 f i InformationManager.obj
 0001:0004dee0       ?erase@?$_Tree@V?$_Tmap_traits@PAVPlayerInterface@BWAPI@@VUnitData@UAlbertaBot@@U?$less@PAVPlayerInterface@BWAPI@@@std@@V?$allocator@U?$pair@QAVPlayerInterface@BWAPI@@VUnitData@UAlbertaBot@@@std@@@6@$0A@@std@@@std@@QAE?AV?$_Tree_iterator@V?$_Tree_val@U?$_Tree_simple_types@U?$pair@QAVPlayerInterface@BWAPI@@VUnitData@UAlbertaBot@@@std@@@std@@@std@@@2@V?$_Tree_const_iterator@V?$_Tree_val@U?$_Tree_simple_types@U?$pair@QAVPlayerInterface@BWAPI@@VUnitData@UAlbertaBot@@@std@@@std@@@std@@@2@0@Z 1004eee0 f i InformationManager.obj
 0001:0004e060       ?_Buyheadnode@?$_Tree_comp_alloc@V?$_Tmap_traits@PAVUnitInterface@BWAPI@@VResourceInfo@UAlbertaBot@@U?$less@PAVUnitInterface@BWAPI@@@std@@V?$allocator@U?$pair@QAVUnitInterface@BWAPI@@VResourceInfo@UAlbertaBot@@@std@@@6@$0A@@std@@@std@@QAEPAU?$_Tree_node@U?$pair@QAVUnitInterface@BWAPI@@VResourceInfo@UAlbertaBot@@@std@@PAX@2@XZ 1004f060 f i InformationManager.obj
 0001:0004e080       ?_Erase@?$_Tree@V?$_Tmap_traits@PAVUnitInterface@BWAPI@@VResourceInfo@UAlbertaBot@@U?$less@PAVUnitInterface@BWAPI@@@std@@V?$allocator@U?$pair@QAVUnitInterface@BWAPI@@VResourceInfo@UAlbertaBot@@@std@@@6@$0A@@std@@@std@@IAEXPAU?$_Tree_node@U?$pair@QAVUnitInterface@BWAPI@@VResourceInfo@UAlbertaBot@@@std@@PAX@2@@Z 1004f080 f i InformationManager.obj
 0001:0004e0c0       ?_Buyheadnode@?$_Tree_comp_alloc@V?$_Tmap_traits@PAVUnitInterface@BWAPI@@VUnitset@2@U?$less@PAVUnitInterface@BWAPI@@@std@@V?$allocator@U?$pair@QAVUnitInterface@BWAPI@@VUnitset@2@@std@@@5@$0A@@std@@@std@@QAEPAU?$_Tree_node@U?$pair@QAVUnitInterface@BWAPI@@VUnitset@2@@std@@PAX@2@XZ 1004f0c0 f i InformationManager.obj
 0001:0004e0e0       ?_Buyheadnode@?$_Tree_comp_alloc@V?$_Tmap_traits@PAVPlayerInterface@BWAPI@@V?$set@PBVZone@UAlbertaBot@@U?$less@PBVZone@UAlbertaBot@@@std@@V?$allocator@PBVZone@UAlbertaBot@@@4@@std@@U?$less@PAVPlayerInterface@BWAPI@@@4@V?$allocator@U?$pair@QAVPlayerInterface@BWAPI@@V?$set@PBVZone@UAlbertaBot@@U?$less@PBVZone@UAlbertaBot@@@std@@V?$allocator@PBVZone@UAlbertaBot@@@4@@std@@@std@@@4@$0A@@std@@@std@@QAEPAU?$_Tree_node@U?$pair@QAVPlayerInterface@BWAPI@@V?$set@PBVZone@UAlbertaBot@@U?$less@PBVZone@UAlbertaBot@@@std@@V?$allocator@PBVZone@UAlbertaBot@@@4@@std@@@std@@PAX@2@XZ 1004f0e0 f i InformationManager.obj
 0001:0004e0e0       ?_Buyheadnode@?$_Tree_comp_alloc@V?$_Tmap_traits@PAVUnitInterface@BWAPI@@V?$Point@H$0CA@@2@U?$less@PAVUnitInterface@BWAPI@@@std@@V?$allocator@U?$pair@QAVUnitInterface@BWAPI@@V?$Point@H$0CA@@2@@std@@@5@$0A@@std@@@std@@QAEPAU?$_Tree_node@U?$pair@QAVUnitInterface@BWAPI@@V?$Point@H$0CA@@2@@std@@PAX@2@XZ 1004f0e0 f i MicroOverlords.obj
 0001:0004e100       ?_Erase@?$_Tree@V?$_Tmap_traits@PAVPlayerInterface@BWAPI@@V?$set@PBVZone@UAlbertaBot@@U?$less@PBVZone@UAlbertaBot@@@std@@V?$allocator@PBVZone@UAlbertaBot@@@4@@std@@U?$less@PAVPlayerInterface@BWAPI@@@4@V?$allocator@U?$pair@QAVPlayerInterface@BWAPI@@V?$set@PBVZone@UAlbertaBot@@U?$less@PBVZone@UAlbertaBot@@@std@@V?$allocator@PBVZone@UAlbertaBot@@@4@@std@@@std@@@4@$0A@@std@@@std@@IAEXPAU?$_Tree_node@U?$pair@QAVPlayerInterface@BWAPI@@V?$set@PBVZone@UAlbertaBot@@U?$less@PBVZone@UAlbertaBot@@@std@@V?$allocator@PBVZone@UAlbertaBot@@@4@@std@@@std@@PAX@2@@Z 1004f100 f i InformationManager.obj
 0001:0004e160       ?_Buyheadnode@?$_Tree_comp_alloc@V?$_Tmap_traits@PAVPlayerInterface@BWAPI@@VUnitData@UAlbertaBot@@U?$less@PAVPlayerInterface@BWAPI@@@std@@V?$allocator@U?$pair@QAVPlayerInterface@BWAPI@@VUnitData@UAlbertaBot@@@std@@@6@$0A@@std@@@std@@QAEPAU?$_Tree_node@U?$pair@QAVPlayerInterface@BWAPI@@VUnitData@UAlbertaBot@@@std@@PAX@2@XZ 1004f160 f i InformationManager.obj
 0001:0004e160       ?_Buyheadnode@?$_Tree_comp_alloc@V?$_Tmap_traits@V?$Point@H$0CA@@BWAPI@@VGridDistances@UAlbertaBot@@U?$less@V?$Point@H$0CA@@BWAPI@@@std@@V?$allocator@U?$pair@$$CBV?$Point@H$0CA@@BWAPI@@VGridDistances@UAlbertaBot@@@std@@@6@$0A@@std@@@std@@QAEPAU?$_Tree_node@U?$pair@$$CBV?$Point@H$0CA@@BWAPI@@VGridDistances@UAlbertaBot@@@std@@PAX@2@XZ 1004f160 f i MapTools.obj
 0001:0004e160       ?_Buyheadnode@?$_Tree_comp_alloc@V?$_Tmap_traits@W4LurkerTactic@UAlbertaBot@@ULurkerState@2@U?$less@W4LurkerTactic@UAlbertaBot@@@std@@V?$allocator@U?$pair@$$CBW4LurkerTactic@UAlbertaBot@@ULurkerState@2@@std@@@5@$0A@@std@@@std@@QAEPAU?$_Tree_node@U?$pair@$$CBW4LurkerTactic@UAlbertaBot@@ULurkerState@2@@std@@PAX@2@XZ 1004f160 f i TacticsOrders.obj
 0001:0004e180       ?_Erase@?$_Tree@V?$_Tmap_traits@PAVPlayerInterface@BWAPI@@VUnitData@UAlbertaBot@@U?$less@PAVPlayerInterface@BWAPI@@@std@@V?$allocator@U?$pair@QAVPlayerInterface@BWAPI@@VUnitData@UAlbertaBot@@@std@@@6@$0A@@std@@@std@@IAEXPAU?$_Tree_node@U?$pair@QAVPlayerInterface@BWAPI@@VUnitData@UAlbertaBot@@@std@@PAX@2@@Z 1004f180 f i InformationManager.obj
 0001:0004e200       ??$_Emplace_reallocate@ABUUnitInfo@UAlbertaBot@@@?$vector@UUnitInfo@UAlbertaBot@@V?$allocator@UUnitInfo@UAlbertaBot@@@std@@@std@@QAEPAUUnitInfo@UAlbertaBot@@QAU23@ABU23@@Z 1004f200 f i InformationManager.obj
 0001:0004e410       ??1?$map@PAVUnitInterface@BWAPI@@UUnitInfo@UAlbertaBot@@U?$less@PAVUnitInterface@BWAPI@@@std@@V?$allocator@U?$pair@QAVUnitInterface@BWAPI@@UUnitInfo@UAlbertaBot@@@std@@@6@@std@@QAE@XZ 1004f410 f i InformationManager.obj
 0001:0004e440       ?_Copy@?$_Hash@V?$_Uset_traits@PAVBulletInterface@BWAPI@@V?$_Uhash_compare@PAVBulletInterface@BWAPI@@U?$hash@PAX@std@@U?$equal_to@PAVBulletInterface@BWAPI@@@4@@std@@V?$allocator@PAVBulletInterface@BWAPI@@@4@$0A@@std@@@std@@IAEXABV12@@Z 1004f440 f i InformationManager.obj
 0001:0004e560       ?erase@?$_Tree@V?$_Tmap_traits@PAVUnitInterface@BWAPI@@UUnitInfo@UAlbertaBot@@U?$less@PAVUnitInterface@BWAPI@@@std@@V?$allocator@U?$pair@QAVUnitInterface@BWAPI@@UUnitInfo@UAlbertaBot@@@std@@@6@$0A@@std@@@std@@QAE?AV?$_Tree_iterator@V?$_Tree_val@U?$_Tree_simple_types@U?$pair@QAVUnitInterface@BWAPI@@UUnitInfo@UAlbertaBot@@@std@@@std@@@std@@@2@V?$_Tree_const_iterator@V?$_Tree_val@U?$_Tree_simple_types@U?$pair@QAVUnitInterface@BWAPI@@UUnitInfo@UAlbertaBot@@@std@@@std@@@std@@@2@0@Z 1004f560 f i InformationManager.obj
 0001:0004e650       ?_Erase@?$_Tree@V?$_Tmap_traits@PAVUnitInterface@BWAPI@@UUnitInfo@UAlbertaBot@@U?$less@PAVUnitInterface@BWAPI@@@std@@V?$allocator@U?$pair@QAVUnitInterface@BWAPI@@UUnitInfo@UAlbertaBot@@@std@@@6@$0A@@std@@@std@@IAEXPAU?$_Tree_node@U?$pair@QAVUnitInterface@BWAPI@@UUnitInfo@UAlbertaBot@@@std@@PAX@2@@Z 1004f650 f i InformationManager.obj
 0001:0004e690       ??$_Buynode@U?$pair@PAVUnitInterface@BWAPI@@VResourceInfo@UAlbertaBot@@@std@@@?$_Tree_comp_alloc@V?$_Tmap_traits@PAVUnitInterface@BWAPI@@VResourceInfo@UAlbertaBot@@U?$less@PAVUnitInterface@BWAPI@@@std@@V?$allocator@U?$pair@QAVUnitInterface@BWAPI@@VResourceInfo@UAlbertaBot@@@std@@@6@$0A@@std@@@std@@QAEPAU?$_Tree_node@U?$pair@QAVUnitInterface@BWAPI@@VResourceInfo@UAlbertaBot@@@std@@PAX@1@$$QAU?$pair@PAVUnitInterface@BWAPI@@VResourceInfo@UAlbertaBot@@@1@@Z 1004f690 f i InformationManager.obj
 0001:0004e6c0       ??$_Insert_nohint@AAU?$pair@QAVUnitInterface@BWAPI@@VResourceInfo@UAlbertaBot@@@std@@PAU?$_Tree_node@U?$pair@QAVUnitInterface@BWAPI@@VResourceInfo@UAlbertaBot@@@std@@PAX@2@@?$_Tree@V?$_Tmap_traits@PAVUnitInterface@BWAPI@@VResourceInfo@UAlbertaBot@@U?$less@PAVUnitInterface@BWAPI@@@std@@V?$allocator@U?$pair@QAVUnitInterface@BWAPI@@VResourceInfo@UAlbertaBot@@@std@@@6@$0A@@std@@@std@@IAE?AU?$pair@V?$_Tree_iterator@V?$_Tree_val@U?$_Tree_simple_types@U?$pair@QAVUnitInterface@BWAPI@@VResourceInfo@UAlbertaBot@@@std@@@std@@@std@@@std@@_N@1@_NAAU?$pair@QAVUnitInterface@BWAPI@@VResourceInfo@UAlbertaBot@@@1@PAU?$_Tree_node@U?$pair@QAVUnitInterface@BWAPI@@VResourceInfo@UAlbertaBot@@@std@@PAX@1@@Z 1004f6c0 f i InformationManager.obj
 0001:0004e830       ?_Buynode0@?$_Tree_comp_alloc@V?$_Tmap_traits@PAVUnitInterface@BWAPI@@VResourceInfo@UAlbertaBot@@U?$less@PAVUnitInterface@BWAPI@@@std@@V?$allocator@U?$pair@QAVUnitInterface@BWAPI@@VResourceInfo@UAlbertaBot@@@std@@@6@$0A@@std@@@std@@QAEPAU?$_Tree_node@U?$pair@QAVUnitInterface@BWAPI@@VResourceInfo@UAlbertaBot@@@std@@PAX@2@XZ 1004f830 f i InformationManager.obj
 0001:0004e850       ?_Destroy_if_node@?$_Tree@V?$_Tmap_traits@PAVUnitInterface@BWAPI@@VResourceInfo@UAlbertaBot@@U?$less@PAVUnitInterface@BWAPI@@@std@@V?$allocator@U?$pair@QAVUnitInterface@BWAPI@@VResourceInfo@UAlbertaBot@@@std@@@6@$0A@@std@@@std@@IAEXPAU?$_Tree_node@U?$pair@QAVUnitInterface@BWAPI@@VResourceInfo@UAlbertaBot@@@std@@PAX@2@@Z 1004f850 f i InformationManager.obj
 0001:0004e870       ??$_Insert_at@AAU?$pair@QAVUnitInterface@BWAPI@@VResourceInfo@UAlbertaBot@@@std@@PAU?$_Tree_node@U?$pair@QAVUnitInterface@BWAPI@@VResourceInfo@UAlbertaBot@@@std@@PAX@2@@?$_Tree@V?$_Tmap_traits@PAVUnitInterface@BWAPI@@VResourceInfo@UAlbertaBot@@U?$less@PAVUnitInterface@BWAPI@@@std@@V?$allocator@U?$pair@QAVUnitInterface@BWAPI@@VResourceInfo@UAlbertaBot@@@std@@@6@$0A@@std@@@std@@IAE?AV?$_Tree_iterator@V?$_Tree_val@U?$_Tree_simple_types@U?$pair@QAVUnitInterface@BWAPI@@VResourceInfo@UAlbertaBot@@@std@@@std@@@std@@@1@_NPAU?$_Tree_node@U?$pair@QAVUnitInterface@BWAPI@@VResourceInfo@UAlbertaBot@@@std@@PAX@1@AAU?$pair@QAVUnitInterface@BWAPI@@VResourceInfo@UAlbertaBot@@@1@1@Z 1004f870 f i InformationManager.obj
 0001:0004eaa0       ??$_Buynode@ABUpiecewise_construct_t@std@@V?$tuple@ABQAVUnitInterface@BWAPI@@@2@V?$tuple@$$V@2@@?$_Tree_comp_alloc@V?$_Tmap_traits@PAVUnitInterface@BWAPI@@VUnitset@2@U?$less@PAVUnitInterface@BWAPI@@@std@@V?$allocator@U?$pair@QAVUnitInterface@BWAPI@@VUnitset@2@@std@@@5@$0A@@std@@@std@@QAEPAU?$_Tree_node@U?$pair@QAVUnitInterface@BWAPI@@VUnitset@2@@std@@PAX@1@ABUpiecewise_construct_t@1@$$QAV?$tuple@ABQAVUnitInterface@BWAPI@@@1@$$QAV?$tuple@$$V@1@@Z 1004faa0 f i InformationManager.obj
 0001:0004eb70       ??$_Insert_hint@AAU?$pair@QAVUnitInterface@BWAPI@@VUnitset@2@@std@@PAU?$_Tree_node@U?$pair@QAVUnitInterface@BWAPI@@VUnitset@2@@std@@PAX@2@@?$_Tree@V?$_Tmap_traits@PAVUnitInterface@BWAPI@@VUnitset@2@U?$less@PAVUnitInterface@BWAPI@@@std@@V?$allocator@U?$pair@QAVUnitInterface@BWAPI@@VUnitset@2@@std@@@5@$0A@@std@@@std@@IAE?AV?$_Tree_iterator@V?$_Tree_val@U?$_Tree_simple_types@U?$pair@QAVUnitInterface@BWAPI@@VUnitset@2@@std@@@std@@@std@@@1@V?$_Tree_const_iterator@V?$_Tree_val@U?$_Tree_simple_types@U?$pair@QAVUnitInterface@BWAPI@@VUnitset@2@@std@@@std@@@std@@@1@AAU?$pair@QAVUnitInterface@BWAPI@@VUnitset@2@@1@PAU?$_Tree_node@U?$pair@QAVUnitInterface@BWAPI@@VUnitset@2@@std@@PAX@1@@Z 1004fb70 f i InformationManager.obj
 0001:0004ee00       ??$_Buynode@ABUpiecewise_construct_t@std@@V?$tuple@ABQAVPlayerInterface@BWAPI@@@2@V?$tuple@$$V@2@@?$_Tree_comp_alloc@V?$_Tmap_traits@PAVPlayerInterface@BWAPI@@V?$set@PBVZone@UAlbertaBot@@U?$less@PBVZone@UAlbertaBot@@@std@@V?$allocator@PBVZone@UAlbertaBot@@@4@@std@@U?$less@PAVPlayerInterface@BWAPI@@@4@V?$allocator@U?$pair@QAVPlayerInterface@BWAPI@@V?$set@PBVZone@UAlbertaBot@@U?$less@PBVZone@UAlbertaBot@@@std@@V?$allocator@PBVZone@UAlbertaBot@@@4@@std@@@std@@@4@$0A@@std@@@std@@QAEPAU?$_Tree_node@U?$pair@QAVPlayerInterface@BWAPI@@V?$set@PBVZone@UAlbertaBot@@U?$less@PBVZone@UAlbertaBot@@@std@@V?$allocator@PBVZone@UAlbertaBot@@@4@@std@@@std@@PAX@1@ABUpiecewise_construct_t@1@$$QAV?$tuple@ABQAVPlayerInterface@BWAPI@@@1@$$QAV?$tuple@$$V@1@@Z 1004fe00 f i InformationManager.obj
 0001:0004ee90       ??$_Insert_hint@AAU?$pair@QAVPlayerInterface@BWAPI@@V?$set@PBVZone@UAlbertaBot@@U?$less@PBVZone@UAlbertaBot@@@std@@V?$allocator@PBVZone@UAlbertaBot@@@4@@std@@@std@@PAU?$_Tree_node@U?$pair@QAVPlayerInterface@BWAPI@@V?$set@PBVZone@UAlbertaBot@@U?$less@PBVZone@UAlbertaBot@@@std@@V?$allocator@PBVZone@UAlbertaBot@@@4@@std@@@std@@PAX@2@@?$_Tree@V?$_Tmap_traits@PAVPlayerInterface@BWAPI@@V?$set@PBVZone@UAlbertaBot@@U?$less@PBVZone@UAlbertaBot@@@std@@V?$allocator@PBVZone@UAlbertaBot@@@4@@std@@U?$less@PAVPlayerInterface@BWAPI@@@4@V?$allocator@U?$pair@QAVPlayerInterface@BWAPI@@V?$set@PBVZone@UAlbertaBot@@U?$less@PBVZone@UAlbertaBot@@@std@@V?$allocator@PBVZone@UAlbertaBot@@@4@@std@@@std@@@4@$0A@@std@@@std@@IAE?AV?$_Tree_iterator@V?$_Tree_val@U?$_Tree_simple_types@U?$pair@QAVPlayerInterface@BWAPI@@V?$set@PBVZone@UAlbertaBot@@U?$less@PBVZone@UAlbertaBot@@@std@@V?$allocator@PBVZone@UAlbertaBot@@@4@@std@@@std@@@std@@@std@@@1@V?$_Tree_const_iterator@V?$_Tree_val@U?$_Tree_simple_types@U?$pair@QAVPlayerInterface@BWAPI@@V?$set@PBVZone@UAlbertaBot@@U?$less@PBVZone@UAlbertaBot@@@std@@V?$allocator@PBVZone@UAlbertaBot@@@4@@std@@@std@@@std@@@std@@@1@AAU?$pair@QAVPlayerInterface@BWAPI@@V?$set@PBVZone@UAlbertaBot@@U?$less@PBVZone@UAlbertaBot@@@std@@V?$allocator@PBVZone@UAlbertaBot@@@4@@std@@@1@PAU?$_Tree_node@U?$pair@QAVPlayerInterface@BWAPI@@V?$set@PBVZone@UAlbertaBot@@U?$less@PBVZone@UAlbertaBot@@@std@@V?$allocator@PBVZone@UAlbertaBot@@@4@@std@@@std@@PAX@1@@Z 1004fe90 f i InformationManager.obj
 0001:0004f120       ??$_Buynode@ABUpiecewise_construct_t@std@@V?$tuple@$$QAPAVPlayerInterface@BWAPI@@@2@V?$tuple@$$V@2@@?$_Tree_comp_alloc@V?$_Tmap_traits@PAVPlayerInterface@BWAPI@@VUnitData@UAlbertaBot@@U?$less@PAVPlayerInterface@BWAPI@@@std@@V?$allocator@U?$pair@QAVPlayerInterface@BWAPI@@VUnitData@UAlbertaBot@@@std@@@6@$0A@@std@@@std@@QAEPAU?$_Tree_node@U?$pair@QAVPlayerInterface@BWAPI@@VUnitData@UAlbertaBot@@@std@@PAX@1@ABUpiecewise_construct_t@1@$$QAV?$tuple@$$QAPAVPlayerInterface@BWAPI@@@1@$$QAV?$tuple@$$V@1@@Z 10050120 f i InformationManager.obj
 0001:0004f120       ??$_Buynode@ABUpiecewise_construct_t@std@@V?$tuple@ABQAVPlayerInterface@BWAPI@@@2@V?$tuple@$$V@2@@?$_Tree_comp_alloc@V?$_Tmap_traits@PAVPlayerInterface@BWAPI@@VUnitData@UAlbertaBot@@U?$less@PAVPlayerInterface@BWAPI@@@std@@V?$allocator@U?$pair@QAVPlayerInterface@BWAPI@@VUnitData@UAlbertaBot@@@std@@@6@$0A@@std@@@std@@QAEPAU?$_Tree_node@U?$pair@QAVPlayerInterface@BWAPI@@VUnitData@UAlbertaBot@@@std@@PAX@1@ABUpiecewise_construct_t@1@$$QAV?$tuple@ABQAVPlayerInterface@BWAPI@@@1@$$QAV?$tuple@$$V@1@@Z 10050120 f i InformationManager.obj
 0001:0004f1a0       ??$_Insert_hint@AAU?$pair@QAVPlayerInterface@BWAPI@@VUnitData@UAlbertaBot@@@std@@PAU?$_Tree_node@U?$pair@QAVPlayerInterface@BWAPI@@VUnitData@UAlbertaBot@@@std@@PAX@2@@?$_Tree@V?$_Tmap_traits@PAVPlayerInterface@BWAPI@@VUnitData@UAlbertaBot@@U?$less@PAVPlayerInterface@BWAPI@@@std@@V?$allocator@U?$pair@QAVPlayerInterface@BWAPI@@VUnitData@UAlbertaBot@@@std@@@6@$0A@@std@@@std@@IAE?AV?$_Tree_iterator@V?$_Tree_val@U?$_Tree_simple_types@U?$pair@QAVPlayerInterface@BWAPI@@VUnitData@UAlbertaBot@@@std@@@std@@@std@@@1@V?$_Tree_const_iterator@V?$_Tree_val@U?$_Tree_simple_types@U?$pair@QAVPlayerInterface@BWAPI@@VUnitData@UAlbertaBot@@@std@@@std@@@std@@@1@AAU?$pair@QAVPlayerInterface@BWAPI@@VUnitData@UAlbertaBot@@@1@PAU?$_Tree_node@U?$pair@QAVPlayerInterface@BWAPI@@VUnitData@UAlbertaBot@@@std@@PAX@1@@Z 100501a0 f i InformationManager.obj
 0001:0004f430       ?_Freenode0@?$_Tree_comp_alloc@V?$_Tmap_traits@PAVUnitInterface@BWAPI@@VUnitset@2@U?$less@PAVUnitInterface@BWAPI@@@std@@V?$allocator@U?$pair@QAVUnitInterface@BWAPI@@VUnitset@2@@std@@@5@$0A@@std@@@std@@QAEXPAU?$_Tree_node@U?$pair@QAVUnitInterface@BWAPI@@VUnitset@2@@std@@PAX@2@@Z 10050430 f i InformationManager.obj
 0001:0004f450       ?_Buynode0@?$_Tree_comp_alloc@V?$_Tmap_traits@PAVUnitInterface@BWAPI@@VUnitset@2@U?$less@PAVUnitInterface@BWAPI@@@std@@V?$allocator@U?$pair@QAVUnitInterface@BWAPI@@VUnitset@2@@std@@@5@$0A@@std@@@std@@QAEPAU?$_Tree_node@U?$pair@QAVUnitInterface@BWAPI@@VUnitset@2@@std@@PAX@2@XZ 10050450 f i InformationManager.obj
 0001:0004f470       ?_Destroy_if_node@?$_Tree@V?$_Tmap_traits@PAVUnitInterface@BWAPI@@VUnitset@2@U?$less@PAVUnitInterface@BWAPI@@@std@@V?$allocator@U?$pair@QAVUnitInterface@BWAPI@@VUnitset@2@@std@@@5@$0A@@std@@@std@@IAEXPAU?$_Tree_node@U?$pair@QAVUnitInterface@BWAPI@@VUnitset@2@@std@@PAX@2@@Z 10050470 f i InformationManager.obj
 0001:0004f490       ?_Destroy_if_node@?$_Tree@V?$_Tmap_traits@PAVUnitInterface@BWAPI@@V?$Point@H$0CA@@2@U?$less@PAVUnitInterface@BWAPI@@@std@@V?$allocator@U?$pair@QAVUnitInterface@BWAPI@@V?$Point@H$0CA@@2@@std@@@5@$0A@@std@@@std@@IAEXPAU?$_Tree_node@U?$pair@QAVUnitInterface@BWAPI@@V?$Point@H$0CA@@2@@std@@PAX@2@@Z 10050490 f i MicroOverlords.obj
 0001:0004f490       ?_Freenode0@?$_Tree_comp_alloc@V?$_Tmap_traits@PAVPlayerInterface@BWAPI@@V?$set@PBVZone@UAlbertaBot@@U?$less@PBVZone@UAlbertaBot@@@std@@V?$allocator@PBVZone@UAlbertaBot@@@4@@std@@U?$less@PAVPlayerInterface@BWAPI@@@4@V?$allocator@U?$pair@QAVPlayerInterface@BWAPI@@V?$set@PBVZone@UAlbertaBot@@U?$less@PBVZone@UAlbertaBot@@@std@@V?$allocator@PBVZone@UAlbertaBot@@@4@@std@@@std@@@4@$0A@@std@@@std@@QAEXPAU?$_Tree_node@U?$pair@QAVPlayerInterface@BWAPI@@V?$set@PBVZone@UAlbertaBot@@U?$less@PBVZone@UAlbertaBot@@@std@@V?$allocator@PBVZone@UAlbertaBot@@@4@@std@@@std@@PAX@2@@Z 10050490 f i InformationManager.obj
 0001:0004f4b0       ?_Buynode0@?$_Tree_comp_alloc@V?$_Tmap_traits@PAVUnitInterface@BWAPI@@V?$Point@H$0CA@@2@U?$less@PAVUnitInterface@BWAPI@@@std@@V?$allocator@U?$pair@QAVUnitInterface@BWAPI@@V?$Point@H$0CA@@2@@std@@@5@$0A@@std@@@std@@QAEPAU?$_Tree_node@U?$pair@QAVUnitInterface@BWAPI@@V?$Point@H$0CA@@2@@std@@PAX@2@XZ 100504b0 f i MicroOverlords.obj
 0001:0004f4b0       ?_Buynode0@?$_Tree_comp_alloc@V?$_Tmap_traits@PAVPlayerInterface@BWAPI@@V?$set@PBVZone@UAlbertaBot@@U?$less@PBVZone@UAlbertaBot@@@std@@V?$allocator@PBVZone@UAlbertaBot@@@4@@std@@U?$less@PAVPlayerInterface@BWAPI@@@4@V?$allocator@U?$pair@QAVPlayerInterface@BWAPI@@V?$set@PBVZone@UAlbertaBot@@U?$less@PBVZone@UAlbertaBot@@@std@@V?$allocator@PBVZone@UAlbertaBot@@@4@@std@@@std@@@4@$0A@@std@@@std@@QAEPAU?$_Tree_node@U?$pair@QAVPlayerInterface@BWAPI@@V?$set@PBVZone@UAlbertaBot@@U?$less@PBVZone@UAlbertaBot@@@std@@V?$allocator@PBVZone@UAlbertaBot@@@4@@std@@@std@@PAX@2@XZ 100504b0 f i InformationManager.obj
 0001:0004f4d0       ?_Destroy_if_node@?$_Tree@V?$_Tmap_traits@PAVPlayerInterface@BWAPI@@V?$set@PBVZone@UAlbertaBot@@U?$less@PBVZone@UAlbertaBot@@@std@@V?$allocator@PBVZone@UAlbertaBot@@@4@@std@@U?$less@PAVPlayerInterface@BWAPI@@@4@V?$allocator@U?$pair@QAVPlayerInterface@BWAPI@@V?$set@PBVZone@UAlbertaBot@@U?$less@PBVZone@UAlbertaBot@@@std@@V?$allocator@PBVZone@UAlbertaBot@@@4@@std@@@std@@@4@$0A@@std@@@std@@IAEXPAU?$_Tree_node@U?$pair@QAVPlayerInterface@BWAPI@@V?$set@PBVZone@UAlbertaBot@@U?$less@PBVZone@UAlbertaBot@@@std@@V?$allocator@PBVZone@UAlbertaBot@@@4@@std@@@std@@PAX@2@@Z 100504d0 f i InformationManager.obj
 0001:0004f500       ?_Freenode0@?$_Tree_comp_alloc@V?$_Tmap_traits@PAVPlayerInterface@BWAPI@@VUnitData@UAlbertaBot@@U?$less@PAVPlayerInterface@BWAPI@@@std@@V?$allocator@U?$pair@QAVPlayerInterface@BWAPI@@VUnitData@UAlbertaBot@@@std@@@6@$0A@@std@@@std@@QAEXPAU?$_Tree_node@U?$pair@QAVPlayerInterface@BWAPI@@VUnitData@UAlbertaBot@@@std@@PAX@2@@Z 10050500 f i InformationManager.obj
 0001:0004f520       ?_Buynode0@?$_Tree_comp_alloc@V?$_Tmap_traits@V?$Point@H$0CA@@BWAPI@@VGridDistances@UAlbertaBot@@U?$less@V?$Point@H$0CA@@BWAPI@@@std@@V?$allocator@U?$pair@$$CBV?$Point@H$0CA@@BWAPI@@VGridDistances@UAlbertaBot@@@std@@@6@$0A@@std@@@std@@QAEPAU?$_Tree_node@U?$pair@$$CBV?$Point@H$0CA@@BWAPI@@VGridDistances@UAlbertaBot@@@std@@PAX@2@XZ 10050520 f i MapTools.obj
 0001:0004f520       ?_Buynode0@?$_Tree_comp_alloc@V?$_Tmap_traits@PAVPlayerInterface@BWAPI@@VUnitData@UAlbertaBot@@U?$less@PAVPlayerInterface@BWAPI@@@std@@V?$allocator@U?$pair@QAVPlayerInterface@BWAPI@@VUnitData@UAlbertaBot@@@std@@@6@$0A@@std@@@std@@QAEPAU?$_Tree_node@U?$pair@QAVPlayerInterface@BWAPI@@VUnitData@UAlbertaBot@@@std@@PAX@2@XZ 10050520 f i InformationManager.obj
 0001:0004f540       ?_Destroy_if_node@?$_Tree@V?$_Tmap_traits@PAVPlayerInterface@BWAPI@@VUnitData@UAlbertaBot@@U?$less@PAVPlayerInterface@BWAPI@@@std@@V?$allocator@U?$pair@QAVPlayerInterface@BWAPI@@VUnitData@UAlbertaBot@@@std@@@6@$0A@@std@@@std@@IAEXPAU?$_Tree_node@U?$pair@QAVPlayerInterface@BWAPI@@VUnitData@UAlbertaBot@@@std@@PAX@2@@Z 10050540 f i InformationManager.obj
 0001:0004f590       ??$_Insert_at@AAU?$pair@QAVUnitInterface@BWAPI@@VUnitset@2@@std@@PAU?$_Tree_node@U?$pair@QAVUnitInterface@BWAPI@@VUnitset@2@@std@@PAX@2@@?$_Tree@V?$_Tmap_traits@PAVUnitInterface@BWAPI@@VUnitset@2@U?$less@PAVUnitInterface@BWAPI@@@std@@V?$allocator@U?$pair@QAVUnitInterface@BWAPI@@VUnitset@2@@std@@@5@$0A@@std@@@std@@IAE?AV?$_Tree_iterator@V?$_Tree_val@U?$_Tree_simple_types@U?$pair@QAVUnitInterface@BWAPI@@VUnitset@2@@std@@@std@@@std@@@1@_NPAU?$_Tree_node@U?$pair@QAVUnitInterface@BWAPI@@VUnitset@2@@std@@PAX@1@AAU?$pair@QAVUnitInterface@BWAPI@@VUnitset@2@@1@1@Z 10050590 f i InformationManager.obj
 0001:0004f7c0       ??$_Insert_nohint@AAU?$pair@QAVUnitInterface@BWAPI@@VUnitset@2@@std@@PAU?$_Tree_node@U?$pair@QAVUnitInterface@BWAPI@@VUnitset@2@@std@@PAX@2@@?$_Tree@V?$_Tmap_traits@PAVUnitInterface@BWAPI@@VUnitset@2@U?$less@PAVUnitInterface@BWAPI@@@std@@V?$allocator@U?$pair@QAVUnitInterface@BWAPI@@VUnitset@2@@std@@@5@$0A@@std@@@std@@IAE?AU?$pair@V?$_Tree_iterator@V?$_Tree_val@U?$_Tree_simple_types@U?$pair@QAVUnitInterface@BWAPI@@VUnitset@2@@std@@@std@@@std@@@std@@_N@1@_NAAU?$pair@QAVUnitInterface@BWAPI@@VUnitset@2@@1@PAU?$_Tree_node@U?$pair@QAVUnitInterface@BWAPI@@VUnitset@2@@std@@PAX@1@@Z 100507c0 f i InformationManager.obj
 0001:0004f930       ??$_Insert_at@AAU?$pair@QAVPlayerInterface@BWAPI@@V?$set@PBVZone@UAlbertaBot@@U?$less@PBVZone@UAlbertaBot@@@std@@V?$allocator@PBVZone@UAlbertaBot@@@4@@std@@@std@@PAU?$_Tree_node@U?$pair@QAVPlayerInterface@BWAPI@@V?$set@PBVZone@UAlbertaBot@@U?$less@PBVZone@UAlbertaBot@@@std@@V?$allocator@PBVZone@UAlbertaBot@@@4@@std@@@std@@PAX@2@@?$_Tree@V?$_Tmap_traits@PAVPlayerInterface@BWAPI@@V?$set@PBVZone@UAlbertaBot@@U?$less@PBVZone@UAlbertaBot@@@std@@V?$allocator@PBVZone@UAlbertaBot@@@4@@std@@U?$less@PAVPlayerInterface@BWAPI@@@4@V?$allocator@U?$pair@QAVPlayerInterface@BWAPI@@V?$set@PBVZone@UAlbertaBot@@U?$less@PBVZone@UAlbertaBot@@@std@@V?$allocator@PBVZone@UAlbertaBot@@@4@@std@@@std@@@4@$0A@@std@@@std@@IAE?AV?$_Tree_iterator@V?$_Tree_val@U?$_Tree_simple_types@U?$pair@QAVPlayerInterface@BWAPI@@V?$set@PBVZone@UAlbertaBot@@U?$less@PBVZone@UAlbertaBot@@@std@@V?$allocator@PBVZone@UAlbertaBot@@@4@@std@@@std@@@std@@@std@@@1@_NPAU?$_Tree_node@U?$pair@QAVPlayerInterface@BWAPI@@V?$set@PBVZone@UAlbertaBot@@U?$less@PBVZone@UAlbertaBot@@@std@@V?$allocator@PBVZone@UAlbertaBot@@@4@@std@@@std@@PAX@1@AAU?$pair@QAVPlayerInterface@BWAPI@@V?$set@PBVZone@UAlbertaBot@@U?$less@PBVZone@UAlbertaBot@@@std@@V?$allocator@PBVZone@UAlbertaBot@@@4@@std@@@1@1@Z 10050930 f i InformationManager.obj
 0001:0004fb60       ??$_Insert_nohint@AAU?$pair@QAVPlayerInterface@BWAPI@@V?$set@PBVZone@UAlbertaBot@@U?$less@PBVZone@UAlbertaBot@@@std@@V?$allocator@PBVZone@UAlbertaBot@@@4@@std@@@std@@PAU?$_Tree_node@U?$pair@QAVPlayerInterface@BWAPI@@V?$set@PBVZone@UAlbertaBot@@U?$less@PBVZone@UAlbertaBot@@@std@@V?$allocator@PBVZone@UAlbertaBot@@@4@@std@@@std@@PAX@2@@?$_Tree@V?$_Tmap_traits@PAVPlayerInterface@BWAPI@@V?$set@PBVZone@UAlbertaBot@@U?$less@PBVZone@UAlbertaBot@@@std@@V?$allocator@PBVZone@UAlbertaBot@@@4@@std@@U?$less@PAVPlayerInterface@BWAPI@@@4@V?$allocator@U?$pair@QAVPlayerInterface@BWAPI@@V?$set@PBVZone@UAlbertaBot@@U?$less@PBVZone@UAlbertaBot@@@std@@V?$allocator@PBVZone@UAlbertaBot@@@4@@std@@@std@@@4@$0A@@std@@@std@@IAE?AU?$pair@V?$_Tree_iterator@V?$_Tree_val@U?$_Tree_simple_types@U?$pair@QAVPlayerInterface@BWAPI@@V?$set@PBVZone@UAlbertaBot@@U?$less@PBVZone@UAlbertaBot@@@std@@V?$allocator@PBVZone@UAlbertaBot@@@4@@std@@@std@@@std@@@std@@@std@@_N@1@_NAAU?$pair@QAVPlayerInterface@BWAPI@@V?$set@PBVZone@UAlbertaBot@@U?$less@PBVZone@UAlbertaBot@@@std@@V?$allocator@PBVZone@UAlbertaBot@@@4@@std@@@1@PAU?$_Tree_node@U?$pair@QAVPlayerInterface@BWAPI@@V?$set@PBVZone@UAlbertaBot@@U?$less@PBVZone@UAlbertaBot@@@std@@V?$allocator@PBVZone@UAlbertaBot@@@4@@std@@@std@@PAX@1@@Z 10050b60 f i InformationManager.obj
 0001:0004fce0       ??$_Insert_at@AAU?$pair@QAVPlayerInterface@BWAPI@@VUnitData@UAlbertaBot@@@std@@PAU?$_Tree_node@U?$pair@QAVPlayerInterface@BWAPI@@VUnitData@UAlbertaBot@@@std@@PAX@2@@?$_Tree@V?$_Tmap_traits@PAVPlayerInterface@BWAPI@@VUnitData@UAlbertaBot@@U?$less@PAVPlayerInterface@BWAPI@@@std@@V?$allocator@U?$pair@QAVPlayerInterface@BWAPI@@VUnitData@UAlbertaBot@@@std@@@6@$0A@@std@@@std@@IAE?AV?$_Tree_iterator@V?$_Tree_val@U?$_Tree_simple_types@U?$pair@QAVPlayerInterface@BWAPI@@VUnitData@UAlbertaBot@@@std@@@std@@@std@@@1@_NPAU?$_Tree_node@U?$pair@QAVPlayerInterface@BWAPI@@VUnitData@UAlbertaBot@@@std@@PAX@1@AAU?$pair@QAVPlayerInterface@BWAPI@@VUnitData@UAlbertaBot@@@1@1@Z 10050ce0 f i InformationManager.obj
 0001:0004ff10       ??$_Insert_nohint@AAU?$pair@QAVPlayerInterface@BWAPI@@VUnitData@UAlbertaBot@@@std@@PAU?$_Tree_node@U?$pair@QAVPlayerInterface@BWAPI@@VUnitData@UAlbertaBot@@@std@@PAX@2@@?$_Tree@V?$_Tmap_traits@PAVPlayerInterface@BWAPI@@VUnitData@UAlbertaBot@@U?$less@PAVPlayerInterface@BWAPI@@@std@@V?$allocator@U?$pair@QAVPlayerInterface@BWAPI@@VUnitData@UAlbertaBot@@@std@@@6@$0A@@std@@@std@@IAE?AU?$pair@V?$_Tree_iterator@V?$_Tree_val@U?$_Tree_simple_types@U?$pair@QAVPlayerInterface@BWAPI@@VUnitData@UAlbertaBot@@@std@@@std@@@std@@@std@@_N@1@_NAAU?$pair@QAVPlayerInterface@BWAPI@@VUnitData@UAlbertaBot@@@1@PAU?$_Tree_node@U?$pair@QAVPlayerInterface@BWAPI@@VUnitData@UAlbertaBot@@@std@@PAX@1@@Z 10050f10 f i InformationManager.obj
 0001:00050070       ?ReadBool@JSONTools@UAlbertaBot@@YAXPBDABV?$GenericValue@U?$UTF8@D@rapidjson@@V?$MemoryPoolAllocator@VCrtAllocator@rapidjson@@@2@@rapidjson@@AA_N@Z 10051070 f   JSONTools.obj
 0001:00050120       ?ReadString@JSONTools@UAlbertaBot@@YAXPBDABV?$GenericValue@U?$UTF8@D@rapidjson@@V?$MemoryPoolAllocator@VCrtAllocator@rapidjson@@@2@@rapidjson@@AAV?$basic_string@DU?$char_traits@D@std@@V?$allocator@D@2@@std@@@Z 10051120 f   JSONTools.obj
 0001:000501f0       ?HasMember@?$GenericValue@U?$UTF8@D@rapidjson@@V?$MemoryPoolAllocator@VCrtAllocator@rapidjson@@@2@@rapidjson@@QBE_NPBD@Z 100511f0 f i JSONTools.obj
 0001:00050260       ??$FindMember@V?$MemoryPoolAllocator@VCrtAllocator@rapidjson@@@rapidjson@@@?$GenericValue@U?$UTF8@D@rapidjson@@V?$MemoryPoolAllocator@VCrtAllocator@rapidjson@@@2@@rapidjson@@QAE?AV?$GenericMemberIterator@$0A@U?$UTF8@D@rapidjson@@V?$MemoryPoolAllocator@VCrtAllocator@rapidjson@@@2@@1@ABV01@@Z 10051260 f i JSONTools.obj
 0001:00050360       ??$?A$$CBD@?$GenericValue@U?$UTF8@D@rapidjson@@V?$MemoryPoolAllocator@VCrtAllocator@rapidjson@@@2@@rapidjson@@QAEAAV01@PBD@Z 10051360 f i JSONTools.obj
 0001:00050450       __vsnprintf_s_l            10051450 f i Logger.obj
 0001:00050490       ??0bad_cast@std@@QAE@XZ    10051490 f i Logger.obj
 0001:000504b0       ??1locale@std@@QAE@XZ      100514b0 f i Logger.obj
 0001:00050500       ?LogAppendToFile@Logger@UAlbertaBot@@YAXABV?$basic_string@DU?$char_traits@D@std@@V?$allocator@D@2@@std@@0@Z 10051500 f   Logger.obj
 0001:00050600       ??_D?$basic_ofstream@DU?$char_traits@D@std@@@std@@QAEXXZ 10051600 f i Logger.obj
 0001:000506b0       ??0?$basic_ofstream@DU?$char_traits@D@std@@@std@@QAE@XZ 100516b0 f i Logger.obj
 0001:00050790       ?imbue@?$basic_filebuf@DU?$char_traits@D@std@@@std@@MAEXABVlocale@2@@Z 10051790 f i Logger.obj
 0001:000507d0       ?sync@?$basic_filebuf@DU?$char_traits@D@std@@@std@@MAEHXZ 100517d0 f i Logger.obj
 0001:00050800       ?setbuf@?$basic_filebuf@DU?$char_traits@D@std@@@std@@MAEPAV?$basic_streambuf@DU?$char_traits@D@std@@@2@PAD_J@Z 10051800 f i Logger.obj
 0001:00050850       ?seekpos@?$basic_filebuf@DU?$char_traits@D@std@@@std@@MAE?AV?$fpos@U_Mbstatet@@@2@V32@H@Z 10051850 f i Logger.obj
 0001:00050920       ?seekoff@?$basic_filebuf@DU?$char_traits@D@std@@@std@@MAE?AV?$fpos@U_Mbstatet@@@2@_JHH@Z 10051920 f i Logger.obj
 0001:00050a10       ?xsputn@?$basic_filebuf@DU?$char_traits@D@std@@@std@@MAE_JPBD_J@Z 10051a10 f i Logger.obj
 0001:00050b00       ?xsgetn@?$basic_filebuf@DU?$char_traits@D@std@@@std@@MAE_JPAD_J@Z 10051b00 f i Logger.obj
 0001:00050c30       ?uflow@?$basic_filebuf@DU?$char_traits@D@std@@@std@@MAEHXZ 10051c30 f i Logger.obj
 0001:00050e50       ?underflow@?$basic_filebuf@DU?$char_traits@D@std@@@std@@MAEHXZ 10051e50 f i Logger.obj
 0001:00050e90       ?pbackfail@?$basic_filebuf@DU?$char_traits@D@std@@@std@@MAEHH@Z 10051e90 f i Logger.obj
 0001:00050f40       ?overflow@?$basic_filebuf@DU?$char_traits@D@std@@@std@@MAEHH@Z 10051f40 f i Logger.obj
 0001:00051090       ?_Unlock@?$basic_filebuf@DU?$char_traits@D@std@@@std@@UAEXXZ 10052090 f i Logger.obj
 0001:000510a0       ?_Lock@?$basic_filebuf@DU?$char_traits@D@std@@@std@@UAEXXZ 100520a0 f i Logger.obj
 0001:000510b0       ??_E?$basic_ofstream@DU?$char_traits@D@std@@@std@@UAEPAXI@Z 100520b0 f i * CIL library *:* CIL module *
 0001:000510b0       ??_G?$basic_ofstream@DU?$char_traits@D@std@@@std@@UAEPAXI@Z 100520b0 f i Logger.obj
 0001:000510e0       ??_E?$basic_filebuf@DU?$char_traits@D@std@@@std@@UAEPAXI@Z 100520e0 f i * CIL library *:* CIL module *
 0001:000510e0       ??_G?$basic_filebuf@DU?$char_traits@D@std@@@std@@UAEPAXI@Z 100520e0 f i Logger.obj
 0001:00051180       ?_Reset_back@?$basic_filebuf@DU?$char_traits@D@std@@@std@@AAEXXZ 10052180 f i Logger.obj
 0001:000511b0       ?_Endwrite@?$basic_filebuf@DU?$char_traits@D@std@@@std@@IAE_NXZ 100521b0 f i Logger.obj
 0001:00051270       ?_Init@?$basic_filebuf@DU?$char_traits@D@std@@@std@@IAEXPAU_iobuf@@W4_Initfl@12@@Z 10052270 f i Logger.obj
 0001:00051300       ?close@?$basic_filebuf@DU?$char_traits@D@std@@@std@@QAEPAV12@XZ 10052300 f i Logger.obj
 0001:00051370       ?open@?$basic_filebuf@DU?$char_traits@D@std@@@std@@QAEPAV12@PBDHH@Z 10052370 f i Logger.obj
 0001:00051450       ??$use_facet@V?$codecvt@DDU_Mbstatet@@@std@@@std@@YAABV?$codecvt@DDU_Mbstatet@@@0@ABVlocale@0@@Z 10052450 f i Logger.obj
 0001:00051550       ??0bad_cast@std@@QAE@ABV01@@Z 10052550 f i Logger.obj
 0001:00051590       ??1?$unique_ptr@V_Facet_base@std@@U?$default_delete@V_Facet_base@std@@@2@@std@@QAE@XZ 10052590 f i Logger.obj
 0001:000515d4       ??_E?$basic_ofstream@DU?$char_traits@D@std@@@std@@$4PPPPPPPM@A@AEPAXI@Z 100525d4 f i Logger.obj
 0001:000515e0       ??0UpgradeType@BWAPI@@QAE@H@Z 100525e0 f i MacroAct.obj
 0001:00051600       ??0TechType@BWAPI@@QAE@H@Z 10052600 f i MacroAct.obj
 0001:00051620       ?isBuilding@MacroAct@UAlbertaBot@@QBE_NXZ 10052620 f   MacroAct.obj
 0001:00051640       ?isAddon@MacroAct@UAlbertaBot@@QBE_NXZ 10052640 f   MacroAct.obj
 0001:00051660       ?mineralPrice@MacroAct@UAlbertaBot@@QBEHXZ 10052660 f   MacroAct.obj
 0001:00051720       ?gasPrice@MacroAct@UAlbertaBot@@QBEHXZ 10052720 f   MacroAct.obj
 0001:000517d0       ?whatBuilds@MacroAct@UAlbertaBot@@QBE?AVUnitType@BWAPI@@XZ 100527d0 f   MacroAct.obj
 0001:00051860       ?getName@MacroAct@UAlbertaBot@@QBE?AV?$basic_string@DU?$char_traits@D@std@@V?$allocator@D@2@@std@@XZ 10052860 f   MacroAct.obj
 0001:00051a80       ?isProducer@MacroAct@UAlbertaBot@@QBE_NPAVUnitInterface@BWAPI@@@Z 10052a80 f   MacroAct.obj
 0001:00051c30       ?getCandidateProducers@MacroAct@UAlbertaBot@@QBEXAAV?$vector@PAVUnitInterface@BWAPI@@V?$allocator@PAVUnitInterface@BWAPI@@@std@@@std@@@Z 10052c30 f   MacroAct.obj
 0001:00051d10       ?hasTech@MacroAct@UAlbertaBot@@QBE_NXZ 10052d10 f   MacroAct.obj
 0001:00051f40       ??1?$set@PAVUnitInterface@BWAPI@@U?$less@PAVUnitInterface@BWAPI@@@std@@V?$allocator@PAVUnitInterface@BWAPI@@@4@@std@@QAE@XZ 10052f40 f i WorkerManager.obj
 0001:00051f40       ??1?$set@VUnitType@BWAPI@@U?$less@VUnitType@BWAPI@@@std@@V?$allocator@VUnitType@BWAPI@@@4@@std@@QAE@XZ 10052f40 f i MacroAct.obj
 0001:00051fe0       ?canProduce@MacroAct@UAlbertaBot@@QBE_NPAVUnitInterface@BWAPI@@@Z 10052fe0 f   MacroAct.obj
 0001:00052250       ?produce@MacroAct@UAlbertaBot@@QBEXPAVUnitInterface@BWAPI@@@Z 10053250 f   MacroAct.obj
 0001:00052630       ?erase@?$_Tree@V?$_Tmap_traits@V?$basic_string@DU?$char_traits@D@std@@V?$allocator@D@2@@std@@VUnitType@BWAPI@@U?$less@V?$basic_string@DU?$char_traits@D@std@@V?$allocator@D@2@@std@@@2@V?$allocator@U?$pair@$$CBV?$basic_string@DU?$char_traits@D@std@@V?$allocator@D@2@@std@@VUnitType@BWAPI@@@std@@@2@$0A@@std@@@std@@QAE?AV?$_Tree_iterator@V?$_Tree_val@U?$_Tree_simple_types@U?$pair@$$CBV?$basic_string@DU?$char_traits@D@std@@V?$allocator@D@2@@std@@VUnitType@BWAPI@@@std@@@std@@@std@@@2@V?$_Tree_const_iterator@V?$_Tree_val@U?$_Tree_simple_types@U?$pair@$$CBV?$basic_string@DU?$char_traits@D@std@@V?$allocator@D@2@@std@@VUnitType@BWAPI@@@std@@@std@@@std@@@2@0@Z 10053630 f i MacroAct.obj
 0001:000527e0       ?_Buyheadnode@?$_Tree_comp_alloc@V?$_Tmap_traits@V?$basic_string@DU?$char_traits@D@std@@V?$allocator@D@2@@std@@VUnitType@BWAPI@@U?$less@V?$basic_string@DU?$char_traits@D@std@@V?$allocator@D@2@@std@@@2@V?$allocator@U?$pair@$$CBV?$basic_string@DU?$char_traits@D@std@@V?$allocator@D@2@@std@@VUnitType@BWAPI@@@std@@@2@$0A@@std@@@std@@QAEPAU?$_Tree_node@U?$pair@$$CBV?$basic_string@DU?$char_traits@D@std@@V?$allocator@D@2@@std@@VUnitType@BWAPI@@@std@@PAX@2@XZ 100537e0 f i MacroAct.obj
 0001:000527e0       ?_Buyheadnode@?$_Tree_comp_alloc@V?$_Tmap_traits@V?$basic_string@DU?$char_traits@D@std@@V?$allocator@D@2@@std@@VActionType@BOSS@@U?$less@V?$basic_string@DU?$char_traits@D@std@@V?$allocator@D@2@@std@@@2@V?$allocator@U?$pair@$$CBV?$basic_string@DU?$char_traits@D@std@@V?$allocator@D@2@@std@@VActionType@BOSS@@@std@@@2@$0A@@std@@@std@@QAEPAU?$_Tree_node@U?$pair@$$CBV?$basic_string@DU?$char_traits@D@std@@V?$allocator@D@2@@std@@VActionType@BOSS@@@std@@PAX@2@XZ 100537e0 f i BOSS:ActionType.obj
 0001:00052800       ?_Erase@?$_Tree@V?$_Tmap_traits@V?$basic_string@DU?$char_traits@D@std@@V?$allocator@D@2@@std@@VUnitType@BWAPI@@U?$less@V?$basic_string@DU?$char_traits@D@std@@V?$allocator@D@2@@std@@@2@V?$allocator@U?$pair@$$CBV?$basic_string@DU?$char_traits@D@std@@V?$allocator@D@2@@std@@VUnitType@BWAPI@@@std@@@2@$0A@@std@@@std@@IAEXPAU?$_Tree_node@U?$pair@$$CBV?$basic_string@DU?$char_traits@D@std@@V?$allocator@D@2@@std@@VUnitType@BWAPI@@@std@@PAX@2@@Z 10053800 f i MacroAct.obj
 0001:00052890       ??$_Insert_nohint@VUnitType@BWAPI@@U_Not_a_node_tag@std@@@?$_Tree@V?$_Tset_traits@VUnitType@BWAPI@@U?$less@VUnitType@BWAPI@@@std@@V?$allocator@VUnitType@BWAPI@@@4@$0A@@std@@@std@@IAE?AU?$pair@V?$_Tree_const_iterator@V?$_Tree_val@U?$_Tree_simple_types@VUnitType@BWAPI@@@std@@@std@@@std@@_N@1@_N$$QAVUnitType@BWAPI@@U_Not_a_node_tag@1@@Z 10053890 f i MacroAct.obj
 0001:000529e0       ?hasNumericArgument@MacroCommand@UAlbertaBot@@SA_NW4MacroCommandType@2@@Z 100539e0 f   MacroCommand.obj
 0001:000529f0       ?getName@MacroCommand@UAlbertaBot@@SA?BV?$basic_string@DU?$char_traits@D@std@@V?$allocator@D@2@@std@@W4MacroCommandType@2@@Z 100539f0 f   MacroCommand.obj
 0001:00052b30       ?Instance@MapGrid@UAlbertaBot@@SAAAV12@XZ 10053b30 f   MapGrid.obj
 0001:00052d00       ?getLeastExplored@MapGrid@UAlbertaBot@@QAE?AV?$Point@H$00@BWAPI@@_NH@Z 10053d00 f   MapGrid.obj
 0001:000530a0       ?getLeastExploredNear@MapGrid@UAlbertaBot@@QAE?AV?$Point@H$00@BWAPI@@ABV34@_N@Z 100540a0 f   MapGrid.obj
 0001:00053460       ?getLeastExploredNearBase@MapGrid@UAlbertaBot@@QAE?AV?$Point@H$00@BWAPI@@PAVBase@2@_N@Z 10054460 f   MapGrid.obj
 0001:00053850       ?update@MapGrid@UAlbertaBot@@QAEXXZ 10054850 f   MapGrid.obj
 0001:00053cc0       ?getUnits@MapGrid@UAlbertaBot@@QAEXAAVUnitset@BWAPI@@V?$Point@H$00@4@H_N2@Z 10054cc0 f   MapGrid.obj
 0001:00053e10       ??0?$vector@VGridCell@UAlbertaBot@@V?$allocator@VGridCell@UAlbertaBot@@@std@@@std@@QAE@IABV?$allocator@VGridCell@UAlbertaBot@@@1@@Z 10054e10 f i MapGrid.obj
 0001:00053ff0       ?_Tidy@?$vector@VGridCell@UAlbertaBot@@V?$allocator@VGridCell@UAlbertaBot@@@std@@@std@@AAEXXZ 10054ff0 f i MapGrid.obj
 0001:00054080       ??1?$_Uninitialized_backout_al@PAVGridCell@UAlbertaBot@@V?$allocator@VGridCell@UAlbertaBot@@@std@@@std@@QAE@XZ 10055080 f i MapGrid.obj
 0001:000540b0       ?findUnwalkability@MapPartitions@UAlbertaBot@@AAEXXZ 100550b0 f   MapPartitions.obj
 0001:00054410       ?markOnePartition@MapPartitions@UAlbertaBot@@AAEXABV?$Point@H$07@BWAPI@@@Z 10055410 f   MapPartitions.obj
 0001:00054680       ?initialize@MapPartitions@UAlbertaBot@@QAEXXZ 10055680 f   MapPartitions.obj
 0001:00054800       ?id@MapPartitions@UAlbertaBot@@QBEHABV?$Point@H$00@BWAPI@@@Z 10055800 f   MapPartitions.obj
 0001:00054860       ??0?$vector@V?$vector@GV?$allocator@G@std@@@std@@V?$allocator@V?$vector@GV?$allocator@G@std@@@std@@@2@@std@@QAE@IABV?$vector@GV?$allocator@G@std@@@1@ABV?$allocator@V?$vector@GV?$allocator@G@std@@@std@@@1@@Z 10055860 f i MapPartitions.obj
 0001:00054970       ?setBWAPIMapData@MapTools@UAlbertaBot@@AAEXXZ 10055970 f   MapTools.obj
 0001:000551b0       ?getGroundTileDistance@MapTools@UAlbertaBot@@QAEHV?$Point@H$0CA@@BWAPI@@0@Z 100561b0 f   MapTools.obj
 0001:00055370       ??1?$pair@V?$Point@H$0CA@@BWAPI@@VGridDistances@UAlbertaBot@@@std@@QAE@XZ 10056370 f i MapTools.obj
 0001:00055390       ?getGroundTileDistance@MapTools@UAlbertaBot@@QAEHV?$Point@H$00@BWAPI@@0@Z 10056390 f   MapTools.obj
 0001:00055400       ?getClosestTilesTo@MapTools@UAlbertaBot@@QAEABV?$vector@V?$Point@H$0CA@@BWAPI@@V?$allocator@V?$Point@H$0CA@@BWAPI@@@std@@@std@@V?$Point@H$0CA@@BWAPI@@@Z 10056400 f   MapTools.obj
 0001:00055490       ?nextExpansion@MapTools@UAlbertaBot@@QBEPAVBase@2@_N00@Z 10056490 f   MapTools.obj
 0001:00056230       ?getNextExpansion@MapTools@UAlbertaBot@@QBE?AV?$Point@H$0CA@@BWAPI@@_N00@Z 10057230 f   MapTools.obj
 0001:00056270       ??A?$map@V?$Point@H$0CA@@BWAPI@@VGridDistances@UAlbertaBot@@U?$less@V?$Point@H$0CA@@BWAPI@@@std@@V?$allocator@U?$pair@$$CBV?$Point@H$0CA@@BWAPI@@VGridDistances@UAlbertaBot@@@std@@@6@@std@@QAEAAVGridDistances@UAlbertaBot@@ABV?$Point@H$0CA@@BWAPI@@@Z 10057270 f i MapTools.obj
 0001:000562e0       ?lower_bound@?$_Tree@V?$_Tmap_traits@V?$Point@H$0CA@@BWAPI@@VGridDistances@UAlbertaBot@@U?$less@V?$Point@H$0CA@@BWAPI@@@std@@V?$allocator@U?$pair@$$CBV?$Point@H$0CA@@BWAPI@@VGridDistances@UAlbertaBot@@@std@@@6@$0A@@std@@@std@@QAE?AV?$_Tree_iterator@V?$_Tree_val@U?$_Tree_simple_types@U?$pair@$$CBV?$Point@H$0CA@@BWAPI@@VGridDistances@UAlbertaBot@@@std@@@std@@@std@@@2@ABV?$Point@H$0CA@@BWAPI@@@Z 100572e0 f i MapTools.obj
 0001:00056330       ??0GridDistances@UAlbertaBot@@QAE@$$QAV01@@Z 10057330 f i MapTools.obj
 0001:000563d0       ??$_Buynode@U?$pair@V?$Point@H$0CA@@BWAPI@@VGridDistances@UAlbertaBot@@@std@@@?$_Tree_comp_alloc@V?$_Tmap_traits@V?$Point@H$0CA@@BWAPI@@VGridDistances@UAlbertaBot@@U?$less@V?$Point@H$0CA@@BWAPI@@@std@@V?$allocator@U?$pair@$$CBV?$Point@H$0CA@@BWAPI@@VGridDistances@UAlbertaBot@@@std@@@6@$0A@@std@@@std@@QAEPAU?$_Tree_node@U?$pair@$$CBV?$Point@H$0CA@@BWAPI@@VGridDistances@UAlbertaBot@@@std@@PAX@1@$$QAU?$pair@V?$Point@H$0CA@@BWAPI@@VGridDistances@UAlbertaBot@@@1@@Z 100573d0 f i MapTools.obj
 0001:00056410       ??$_Insert_nohint@AAU?$pair@$$CBV?$Point@H$0CA@@BWAPI@@VGridDistances@UAlbertaBot@@@std@@PAU?$_Tree_node@U?$pair@$$CBV?$Point@H$0CA@@BWAPI@@VGridDistances@UAlbertaBot@@@std@@PAX@2@@?$_Tree@V?$_Tmap_traits@V?$Point@H$0CA@@BWAPI@@VGridDistances@UAlbertaBot@@U?$less@V?$Point@H$0CA@@BWAPI@@@std@@V?$allocator@U?$pair@$$CBV?$Point@H$0CA@@BWAPI@@VGridDistances@UAlbertaBot@@@std@@@6@$0A@@std@@@std@@IAE?AU?$pair@V?$_Tree_iterator@V?$_Tree_val@U?$_Tree_simple_types@U?$pair@$$CBV?$Point@H$0CA@@BWAPI@@VGridDistances@UAlbertaBot@@@std@@@std@@@std@@@std@@_N@1@_NAAU?$pair@$$CBV?$Point@H$0CA@@BWAPI@@VGridDistances@UAlbertaBot@@@1@PAU?$_Tree_node@U?$pair@$$CBV?$Point@H$0CA@@BWAPI@@VGridDistances@UAlbertaBot@@@std@@PAX@1@@Z 10057410 f i MapTools.obj
 0001:00056590       ?_Destroy_if_node@?$_Tree@V?$_Tmap_traits@V?$Point@H$0CA@@BWAPI@@VGridDistances@UAlbertaBot@@U?$less@V?$Point@H$0CA@@BWAPI@@@std@@V?$allocator@U?$pair@$$CBV?$Point@H$0CA@@BWAPI@@VGridDistances@UAlbertaBot@@@std@@@6@$0A@@std@@@std@@IAEXPAU?$_Tree_node@U?$pair@$$CBV?$Point@H$0CA@@BWAPI@@VGridDistances@UAlbertaBot@@@std@@PAX@2@@Z 10057590 f i MapTools.obj
 0001:000565c0       ??$_Insert_at@AAU?$pair@$$CBV?$Point@H$0CA@@BWAPI@@VGridDistances@UAlbertaBot@@@std@@PAU?$_Tree_node@U?$pair@$$CBV?$Point@H$0CA@@BWAPI@@VGridDistances@UAlbertaBot@@@std@@PAX@2@@?$_Tree@V?$_Tmap_traits@V?$Point@H$0CA@@BWAPI@@VGridDistances@UAlbertaBot@@U?$less@V?$Point@H$0CA@@BWAPI@@@std@@V?$allocator@U?$pair@$$CBV?$Point@H$0CA@@BWAPI@@VGridDistances@UAlbertaBot@@@std@@@6@$0A@@std@@@std@@IAE?AV?$_Tree_iterator@V?$_Tree_val@U?$_Tree_simple_types@U?$pair@$$CBV?$Point@H$0CA@@BWAPI@@VGridDistances@UAlbertaBot@@@std@@@std@@@std@@@1@_NPAU?$_Tree_node@U?$pair@$$CBV?$Point@H$0CA@@BWAPI@@VGridDistances@UAlbertaBot@@@std@@PAX@1@AAU?$pair@$$CBV?$Point@H$0CA@@BWAPI@@VGridDistances@UAlbertaBot@@@1@1@Z 100575c0 f i MapTools.obj
 0001:000567f0       ??$_Buynode@ABUpiecewise_construct_t@std@@V?$tuple@ABV?$Point@H$0CA@@BWAPI@@@2@V?$tuple@$$V@2@@?$_Tree_comp_alloc@V?$_Tmap_traits@V?$Point@H$0CA@@BWAPI@@VGridDistances@UAlbertaBot@@U?$less@V?$Point@H$0CA@@BWAPI@@@std@@V?$allocator@U?$pair@$$CBV?$Point@H$0CA@@BWAPI@@VGridDistances@UAlbertaBot@@@std@@@6@$0A@@std@@@std@@QAEPAU?$_Tree_node@U?$pair@$$CBV?$Point@H$0CA@@BWAPI@@VGridDistances@UAlbertaBot@@@std@@PAX@1@ABUpiecewise_construct_t@1@$$QAV?$tuple@ABV?$Point@H$0CA@@BWAPI@@@1@$$QAV?$tuple@$$V@1@@Z 100577f0 f i MapTools.obj
 0001:00056850       ??$_Insert_hint@AAU?$pair@$$CBV?$Point@H$0CA@@BWAPI@@VGridDistances@UAlbertaBot@@@std@@PAU?$_Tree_node@U?$pair@$$CBV?$Point@H$0CA@@BWAPI@@VGridDistances@UAlbertaBot@@@std@@PAX@2@@?$_Tree@V?$_Tmap_traits@V?$Point@H$0CA@@BWAPI@@VGridDistances@UAlbertaBot@@U?$less@V?$Point@H$0CA@@BWAPI@@@std@@V?$allocator@U?$pair@$$CBV?$Point@H$0CA@@BWAPI@@VGridDistances@UAlbertaBot@@@std@@@6@$0A@@std@@@std@@IAE?AV?$_Tree_iterator@V?$_Tree_val@U?$_Tree_simple_types@U?$pair@$$CBV?$Point@H$0CA@@BWAPI@@VGridDistances@UAlbertaBot@@@std@@@std@@@std@@@1@V?$_Tree_const_iterator@V?$_Tree_val@U?$_Tree_simple_types@U?$pair@$$CBV?$Point@H$0CA@@BWAPI@@VGridDistances@UAlbertaBot@@@std@@@std@@@std@@@1@AAU?$pair@$$CBV?$Point@H$0CA@@BWAPI@@VGridDistances@UAlbertaBot@@@1@PAU?$_Tree_node@U?$pair@$$CBV?$Point@H$0CA@@BWAPI@@VGridDistances@UAlbertaBot@@@std@@PAX@1@@Z 10057850 f i MapTools.obj
 0001:00056b30       ??1MicroRanged@UAlbertaBot@@UAE@XZ 10057b30 f i MicroRanged.obj
 0001:00056b30       ??1MicroDetectors@UAlbertaBot@@UAE@XZ 10057b30 f i MicroDetectors.obj
 0001:00056b30       ??1MicroManager@UAlbertaBot@@UAE@XZ 10057b30 f i MicroAirToAir.obj
 0001:00056b30       ??1MicroQueens@UAlbertaBot@@UAE@XZ 10057b30 f i MicroQueens.obj
 0001:00056b30       ??1MicroDefilers@UAlbertaBot@@UAE@XZ 10057b30 f i MicroDefilers.obj
 0001:00056b30       ??1MicroMedics@UAlbertaBot@@UAE@XZ 10057b30 f i MicroMedics.obj
 0001:00056b30       ??1MicroLurkers@UAlbertaBot@@UAE@XZ 10057b30 f i MicroLurkers.obj
 0001:00056b30       ??1MicroTanks@UAlbertaBot@@UAE@XZ 10057b30 f i MicroTanks.obj
 0001:00056b30       ??1MicroIrradiated@UAlbertaBot@@UAE@XZ 10057b30 f i MicroIrradiated.obj
 0001:00056b30       ??1MicroAirToAir@UAlbertaBot@@UAE@XZ 10057b30 f i MicroAirToAir.obj
 0001:00056b30       ??1MicroMelee@UAlbertaBot@@UAE@XZ 10057b30 f i MicroMelee.obj
 0001:00056b30       ??1MicroHighTemplar@UAlbertaBot@@UAE@XZ 10057b30 f i MicroHighTemplar.obj
 0001:00056b30       ??1MicroScourge@UAlbertaBot@@UAE@XZ 10057b30 f i MicroScourge.obj
 0001:00056b60       ??_GMicroDefilers@UAlbertaBot@@UAEPAXI@Z 10057b60 f i MicroDefilers.obj
 0001:00056b60       ??_GMicroRanged@UAlbertaBot@@UAEPAXI@Z 10057b60 f i MicroRanged.obj
 0001:00056b60       ??_EMicroMelee@UAlbertaBot@@UAEPAXI@Z 10057b60 f i * CIL library *:* CIL module *
 0001:00056b60       ??_GMicroTanks@UAlbertaBot@@UAEPAXI@Z 10057b60 f i MicroTanks.obj
 0001:00056b60       ??_EMicroRanged@UAlbertaBot@@UAEPAXI@Z 10057b60 f i * CIL library *:* CIL module *
 0001:00056b60       ??_GMicroAirToAir@UAlbertaBot@@UAEPAXI@Z 10057b60 f i MicroAirToAir.obj
 0001:00056b60       ??_EMicroTanks@UAlbertaBot@@UAEPAXI@Z 10057b60 f i * CIL library *:* CIL module *
 0001:00056b60       ??_EMicroAirToAir@UAlbertaBot@@UAEPAXI@Z 10057b60 f i * CIL library *:* CIL module *
 0001:00056b60       ??_EMicroQueens@UAlbertaBot@@UAEPAXI@Z 10057b60 f i * CIL library *:* CIL module *
 0001:00056b60       ??_GMicroMelee@UAlbertaBot@@UAEPAXI@Z 10057b60 f i MicroMelee.obj
 0001:00056b60       ??_GMicroMedics@UAlbertaBot@@UAEPAXI@Z 10057b60 f i MicroMedics.obj
 0001:00056b60       ??_EMicroManager@UAlbertaBot@@UAEPAXI@Z 10057b60 f i * CIL library *:* CIL module *
 0001:00056b60       ??_GMicroHighTemplar@UAlbertaBot@@UAEPAXI@Z 10057b60 f i MicroHighTemplar.obj
 0001:00056b60       ??_EMicroMedics@UAlbertaBot@@UAEPAXI@Z 10057b60 f i * CIL library *:* CIL module *
 0001:00056b60       ??_EMicroHighTemplar@UAlbertaBot@@UAEPAXI@Z 10057b60 f i * CIL library *:* CIL module *
 0001:00056b60       ??_GMicroQueens@UAlbertaBot@@UAEPAXI@Z 10057b60 f i MicroQueens.obj
 0001:00056b60       ??_GMicroIrradiated@UAlbertaBot@@UAEPAXI@Z 10057b60 f i MicroIrradiated.obj
 0001:00056b60       ??_GMicroScourge@UAlbertaBot@@UAEPAXI@Z 10057b60 f i MicroScourge.obj
 0001:00056b60       ??_GMicroManager@UAlbertaBot@@UAEPAXI@Z 10057b60 f i MicroAirToAir.obj
 0001:00056b60       ??_EMicroDefilers@UAlbertaBot@@UAEPAXI@Z 10057b60 f i * CIL library *:* CIL module *
 0001:00056b60       ??_EMicroScourge@UAlbertaBot@@UAEPAXI@Z 10057b60 f i * CIL library *:* CIL module *
 0001:00056b60       ??_EMicroIrradiated@UAlbertaBot@@UAEPAXI@Z 10057b60 f i * CIL library *:* CIL module *
 0001:00056bb0       ?executeMicro@MicroAirToAir@UAlbertaBot@@UAEXABVUnitset@BWAPI@@ABVUnitCluster@2@@Z 10057bb0 f   MicroAirToAir.obj
 0001:00056c30       ?assignTargets@MicroAirToAir@UAlbertaBot@@QAEXABVUnitset@BWAPI@@0@Z 10057c30 f   MicroAirToAir.obj
 0001:00056e10       ?getTarget@MicroAirToAir@UAlbertaBot@@QAEPAVUnitInterface@BWAPI@@PAV34@ABVUnitset@4@@Z 10057e10 f   MicroAirToAir.obj
 0001:000570c0       ??1?$_Tree_comp_alloc@V?$_Tmap_traits@PAVUnitInterface@BWAPI@@VCasterState@UAlbertaBot@@U?$less@PAVUnitInterface@BWAPI@@@std@@V?$allocator@U?$pair@QAVUnitInterface@BWAPI@@VCasterState@UAlbertaBot@@@std@@@6@$0A@@std@@@std@@QAE@XZ 100580c0 f i MicroAirToAir.obj
 0001:000570d0       ?_Tidy@?$_Tree@V?$_Tmap_traits@PAVUnitInterface@BWAPI@@VCasterState@UAlbertaBot@@U?$less@PAVUnitInterface@BWAPI@@@std@@V?$allocator@U?$pair@QAVUnitInterface@BWAPI@@VCasterState@UAlbertaBot@@@std@@@6@$0A@@std@@@std@@IAEXXZ 100580d0 f i MicroAirToAir.obj
 0001:00057160       ?_Erase@?$_Tree@V?$_Tmap_traits@PAVUnitInterface@BWAPI@@VCasterState@UAlbertaBot@@U?$less@PAVUnitInterface@BWAPI@@@std@@V?$allocator@U?$pair@QAVUnitInterface@BWAPI@@VCasterState@UAlbertaBot@@@std@@@6@$0A@@std@@@std@@IAEXPAU?$_Tree_node@U?$pair@QAVUnitInterface@BWAPI@@VCasterState@UAlbertaBot@@@std@@PAX@2@@Z 10058160 f i MicroAirToAir.obj
 0001:00057160       ?_Erase@?$_Tree@V?$_Tmap_traits@PAVUnitInterface@BWAPI@@VWorkerPost@WorkerData@UAlbertaBot@@U?$less@PAVUnitInterface@BWAPI@@@std@@V?$allocator@U?$pair@QAVUnitInterface@BWAPI@@VWorkerPost@WorkerData@UAlbertaBot@@@std@@@7@$0A@@std@@@std@@IAEXPAU?$_Tree_node@U?$pair@QAVUnitInterface@BWAPI@@VWorkerPost@WorkerData@UAlbertaBot@@@std@@PAX@2@@Z 10058160 f i WorkerData.obj
 0001:00057250       ??7?$UnaryFilter@PAVUnitInterface@BWAPI@@P6A_NPAV12@@Z@BWAPI@@QBE?AV?$UnaryFilter@PAVUnitInterface@BWAPI@@V?$function@$$A6A_NPAVUnitInterface@BWAPI@@@Z@std@@@1@XZ 10058250 f i MicroArbiter.obj
 0001:00057280       ?_Target_type@?$_Func_impl_no_alloc@V<lambda_a2cf48cc0ad720342f05725db62c6909>@@_NPAVUnitInterface@BWAPI@@@std@@EBEABVtype_info@@XZ 10058280 f i MicroArbiter.obj
 0001:00057290       ?_Copy@?$_Func_impl_no_alloc@V<lambda_a2cf48cc0ad720342f05725db62c6909>@@_NPAVUnitInterface@BWAPI@@@std@@EBEPAV?$_Func_base@_NPAVUnitInterface@BWAPI@@@2@PAX@Z 10058290 f i MicroArbiter.obj
 0001:00057290       ?_Move@?$_Func_impl_no_alloc@V<lambda_a2cf48cc0ad720342f05725db62c6909>@@_NPAVUnitInterface@BWAPI@@@std@@EAEPAV?$_Func_base@_NPAVUnitInterface@BWAPI@@@2@PAX@Z 10058290 f i MicroArbiter.obj
 0001:000572b0       ?_Do_call@?$_Func_impl_no_alloc@V<lambda_a2cf48cc0ad720342f05725db62c6909>@@_NPAVUnitInterface@BWAPI@@@std@@EAE_N$$QAPAVUnitInterface@BWAPI@@@Z 100582b0 f i MicroArbiter.obj
 0001:000572d0       ?getDefilers@MicroDefilers@UAlbertaBot@@ABE?AVUnitset@BWAPI@@ABVUnitCluster@2@@Z 100582d0 f   MicroDefilers.obj
 0001:000573d0       ?aboutToDie@MicroDefilers@UAlbertaBot@@ABE_NQAVUnitInterface@BWAPI@@@Z 100583d0 f   MicroDefilers.obj
 0001:00057470       ?swarmScore@MicroDefilers@UAlbertaBot@@ABEHPAVUnitInterface@BWAPI@@@Z 10058470 f   MicroDefilers.obj
 0001:00057540       ?maybeSwarm@MicroDefilers@UAlbertaBot@@AAE_NPAVUnitInterface@BWAPI@@@Z 10058540 f   MicroDefilers.obj
 0001:00057f10       ?plagueScore@MicroDefilers@UAlbertaBot@@ABEHPAVUnitInterface@BWAPI@@@Z 10058f10 f   MicroDefilers.obj
 0001:000580d0       ?maybePlague@MicroDefilers@UAlbertaBot@@AAE_NPAVUnitInterface@BWAPI@@@Z 100590d0 f   MicroDefilers.obj
 0001:000584b0       ?executeMicro@MicroDetectors@UAlbertaBot@@UAEXABVUnitset@BWAPI@@ABVUnitCluster@2@@Z 100594b0 f   MicroDetectors.obj
 0001:000584b0       ?executeMicro@MicroTransports@UAlbertaBot@@UAEXABVUnitset@BWAPI@@ABVUnitCluster@2@@Z 100594b0 f   MicroTransports.obj
 0001:000584b0       ?executeMicro@MicroHighTemplar@UAlbertaBot@@UAEXABVUnitset@BWAPI@@ABVUnitCluster@2@@Z 100594b0 f   MicroHighTemplar.obj
 0001:000584b0       ?executeMicro@MicroDefilers@UAlbertaBot@@UAEXABVUnitset@BWAPI@@ABVUnitCluster@2@@Z 100594b0 f   MicroDefilers.obj
 0001:000584b0       ?executeMicro@MicroOverlords@UAlbertaBot@@UAEXABVUnitset@BWAPI@@ABVUnitCluster@2@@Z 100594b0 f   MicroOverlords.obj
 0001:000584b0       ?executeMicro@MicroIrradiated@UAlbertaBot@@UAEXABVUnitset@BWAPI@@ABVUnitCluster@2@@Z 100594b0 f   MicroIrradiated.obj
 0001:000584b0       ?onNukeDetect@AIModule@BWAPI@@UAEXV?$Point@H$00@2@@Z 100594b0 f   BWAPILIB:AIModule.obj
 0001:000584b0       ?executeMicro@MicroQueens@UAlbertaBot@@UAEXABVUnitset@BWAPI@@ABVUnitCluster@2@@Z 100594b0 f   MicroQueens.obj
 0001:000584b0       ?executeMicro@MicroMedics@UAlbertaBot@@UAEXABVUnitset@BWAPI@@ABVUnitCluster@2@@Z 100594b0 f   MicroMedics.obj
 0001:000584c0       ?updateMovement@MicroDefilers@UAlbertaBot@@QAEXABVUnitCluster@2@PAVUnitInterface@BWAPI@@@Z 100594c0 f   MicroDefilers.obj
 0001:00058a40       ?updateSwarm@MicroDefilers@UAlbertaBot@@QAEXABVUnitCluster@2@@Z 10059a40 f   MicroDefilers.obj
 0001:00058c30       ?updatePlague@MicroDefilers@UAlbertaBot@@QAEXABVUnitCluster@2@@Z 10059c30 f   MicroDefilers.obj
 0001:00058e40       ??$?WV?$UnaryFilter@PAVUnitInterface@BWAPI@@V?$function@$$A6A_NPAVUnitInterface@BWAPI@@@Z@std@@@BWAPI@@@?$UnaryFilter@PAVUnitInterface@BWAPI@@P6A_NPAV12@@Z@BWAPI@@QBE?AV?$UnaryFilter@PAVUnitInterface@BWAPI@@V?$function@$$A6A_NPAVUnitInterface@BWAPI@@@Z@std@@@1@ABV21@@Z 10059e40 f i MicroDefilers.obj
 0001:00058f50       ?_Target_type@?$_Func_impl_no_alloc@V<lambda_5f0711d792da3a2e3345062a6240f8fe>@@_NPAVUnitInterface@BWAPI@@@std@@EBEABVtype_info@@XZ 10059f50 f i MicroDefilers.obj
 0001:00058f60       ?_Move@?$_Func_impl_no_alloc@V<lambda_5f0711d792da3a2e3345062a6240f8fe>@@_NPAVUnitInterface@BWAPI@@@std@@EAEPAV?$_Func_base@_NPAVUnitInterface@BWAPI@@@2@PAX@Z 10059f60 f i MicroDefilers.obj
 0001:00058f60       ?_Copy@?$_Func_impl_no_alloc@V<lambda_5f0711d792da3a2e3345062a6240f8fe>@@_NPAVUnitInterface@BWAPI@@@std@@EBEPAV?$_Func_base@_NPAVUnitInterface@BWAPI@@@2@PAX@Z 10059f60 f i MicroDefilers.obj
 0001:00058f80       ?_Do_call@?$_Func_impl_no_alloc@V<lambda_3cdec769ff18744395981dd48fcfc232>@@_NPAVUnitInterface@BWAPI@@@std@@EAE_N$$QAPAVUnitInterface@BWAPI@@@Z 10059f80 f i Micro.obj
 0001:00058f80       ?_Do_call@?$_Func_impl_no_alloc@V<lambda_5f0711d792da3a2e3345062a6240f8fe>@@_NPAVUnitInterface@BWAPI@@@std@@EAE_N$$QAPAVUnitInterface@BWAPI@@@Z 10059f80 f i MicroDefilers.obj
 0001:00058fb0       ?_Target_type@?$_Func_impl_no_alloc@V<lambda_c39fdb09d160b656fde65dff274b627b>@@_NPAVUnitInterface@BWAPI@@@std@@EBEABVtype_info@@XZ 10059fb0 f i MicroDefilers.obj
 0001:00058fc0       ?_Move@?$_Func_impl_no_alloc@V<lambda_c39fdb09d160b656fde65dff274b627b>@@_NPAVUnitInterface@BWAPI@@@std@@EAEPAV?$_Func_base@_NPAVUnitInterface@BWAPI@@@2@PAX@Z 10059fc0 f i MicroDefilers.obj
 0001:00059030       ?_Copy@?$_Func_impl_no_alloc@V<lambda_c39fdb09d160b656fde65dff274b627b>@@_NPAVUnitInterface@BWAPI@@@std@@EBEPAV?$_Func_base@_NPAVUnitInterface@BWAPI@@@2@PAX@Z 1005a030 f i MicroDefilers.obj
 0001:00059040       ?_Do_call@?$_Func_impl_no_alloc@V<lambda_c39fdb09d160b656fde65dff274b627b>@@_NPAVUnitInterface@BWAPI@@@std@@EAE_N$$QAPAVUnitInterface@BWAPI@@@Z 1005a040 f i MicroDefilers.obj
 0001:00059090       ??$_Global_new@V?$_Func_impl_no_alloc@V<lambda_c39fdb09d160b656fde65dff274b627b>@@_NPAVUnitInterface@BWAPI@@@std@@V<lambda_c39fdb09d160b656fde65dff274b627b>@@@std@@YAPAV?$_Func_impl_no_alloc@V<lambda_c39fdb09d160b656fde65dff274b627b>@@_NPAVUnitInterface@BWAPI@@@0@$$QAV<lambda_c39fdb09d160b656fde65dff274b627b>@@@Z 1005a090 f i MicroDefilers.obj
 0001:00059090       ??$_Global_new@V?$_Func_impl_no_alloc@V<lambda_c39fdb09d160b656fde65dff274b627b>@@_NPAVUnitInterface@BWAPI@@@std@@ABV<lambda_c39fdb09d160b656fde65dff274b627b>@@@std@@YAPAV?$_Func_impl_no_alloc@V<lambda_c39fdb09d160b656fde65dff274b627b>@@_NPAVUnitInterface@BWAPI@@@0@ABV<lambda_c39fdb09d160b656fde65dff274b627b>@@@Z 1005a090 f i MicroDefilers.obj
 0001:00059130       ??_EMicroLurkers@UAlbertaBot@@UAEPAXI@Z 1005a130 f i * CIL library *:* CIL module *
 0001:00059130       ??_EMicroDetectors@UAlbertaBot@@UAEPAXI@Z 1005a130 f i * CIL library *:* CIL module *
 0001:00059130       ??_GMicroLurkers@UAlbertaBot@@UAEPAXI@Z 1005a130 f i MicroLurkers.obj
 0001:00059130       ??_GMicroDetectors@UAlbertaBot@@UAEPAXI@Z 1005a130 f i MicroDetectors.obj
 0001:00059180       ?go@MicroDetectors@UAlbertaBot@@QAEXABVUnitset@BWAPI@@@Z 1005a180 f   MicroDetectors.obj
 0001:00059de0       ?nearestEnemy@MicroIrradiated@UAlbertaBot@@ABEPAVUnitInterface@BWAPI@@PAV34@@Z 1005ade0 f   MicroIrradiated.obj
 0001:00059ef0       ?runToEnemy@MicroIrradiated@UAlbertaBot@@AAEXPAVUnitInterface@BWAPI@@0@Z 1005aef0 f   MicroIrradiated.obj
 0001:00059f80       ?runAway@MicroIrradiated@UAlbertaBot@@AAEXPAVUnitInterface@BWAPI@@0@Z 1005af80 f   MicroIrradiated.obj
 0001:0005a030       ?update@MicroIrradiated@UAlbertaBot@@QAEXXZ 1005b030 f   MicroIrradiated.obj
 0001:0005a450       ??$?VV?$UnaryFilter@PAVUnitInterface@BWAPI@@V?$function@$$A6A_NPAVUnitInterface@BWAPI@@@Z@std@@@BWAPI@@@?$UnaryFilter@PAVUnitInterface@BWAPI@@V?$function@$$A6A_NPAVUnitInterface@BWAPI@@@Z@std@@@BWAPI@@QBE?AV01@ABV01@@Z 1005b450 f i MicroIrradiated.obj
 0001:0005a560       ?_Target_type@?$_Func_impl_no_alloc@V<lambda_cfd6fce307c286eb3135c7782fdef1bb>@@_NPAVUnitInterface@BWAPI@@@std@@EBEABVtype_info@@XZ 1005b560 f i MicroIrradiated.obj
 0001:0005a570       ?_Move@?$_Func_impl_no_alloc@V<lambda_cfd6fce307c286eb3135c7782fdef1bb>@@_NPAVUnitInterface@BWAPI@@@std@@EAEPAV?$_Func_base@_NPAVUnitInterface@BWAPI@@@2@PAX@Z 1005b570 f i MicroIrradiated.obj
 0001:0005a5e0       ?_Copy@?$_Func_impl_no_alloc@V<lambda_cfd6fce307c286eb3135c7782fdef1bb>@@_NPAVUnitInterface@BWAPI@@@std@@EBEPAV?$_Func_base@_NPAVUnitInterface@BWAPI@@@2@PAX@Z 1005b5e0 f i MicroIrradiated.obj
 0001:0005a5f0       ?_Target_type@?$_Func_impl_no_alloc@V<lambda_118b755b5cc58de9f37bbbebea1f7d1c>@@_NPAVUnitInterface@BWAPI@@@std@@EBEABVtype_info@@XZ 1005b5f0 f i MicroIrradiated.obj
 0001:0005a600       ?_Copy@?$_Func_impl_no_alloc@V<lambda_118b755b5cc58de9f37bbbebea1f7d1c>@@_NPAVUnitInterface@BWAPI@@@std@@EBEPAV?$_Func_base@_NPAVUnitInterface@BWAPI@@@2@PAX@Z 1005b600 f i MicroIrradiated.obj
 0001:0005a600       ?_Move@?$_Func_impl_no_alloc@V<lambda_118b755b5cc58de9f37bbbebea1f7d1c>@@_NPAVUnitInterface@BWAPI@@@std@@EAEPAV?$_Func_base@_NPAVUnitInterface@BWAPI@@@2@PAX@Z 1005b600 f i MicroIrradiated.obj
 0001:0005a620       ?_Do_call@?$_Func_impl_no_alloc@V<lambda_118b755b5cc58de9f37bbbebea1f7d1c>@@_NPAVUnitInterface@BWAPI@@@std@@EAE_N$$QAPAVUnitInterface@BWAPI@@@Z 1005b620 f i MicroIrradiated.obj
 0001:0005a660       ?_Do_call@?$_Func_impl_no_alloc@V<lambda_cfd6fce307c286eb3135c7782fdef1bb>@@_NPAVUnitInterface@BWAPI@@@std@@EAE_N$$QAPAVUnitInterface@BWAPI@@@Z 1005b660 f i MicroIrradiated.obj
 0001:0005a6d0       ??$_Global_new@V?$_Func_impl_no_alloc@V<lambda_cfd6fce307c286eb3135c7782fdef1bb>@@_NPAVUnitInterface@BWAPI@@@std@@ABV<lambda_cfd6fce307c286eb3135c7782fdef1bb>@@@std@@YAPAV?$_Func_impl_no_alloc@V<lambda_cfd6fce307c286eb3135c7782fdef1bb>@@_NPAVUnitInterface@BWAPI@@@0@ABV<lambda_cfd6fce307c286eb3135c7782fdef1bb>@@@Z 1005b6d0 f i MicroIrradiated.obj
 0001:0005a6d0       ??$_Global_new@V?$_Func_impl_no_alloc@V<lambda_cfd6fce307c286eb3135c7782fdef1bb>@@_NPAVUnitInterface@BWAPI@@@std@@V<lambda_cfd6fce307c286eb3135c7782fdef1bb>@@@std@@YAPAV?$_Func_impl_no_alloc@V<lambda_cfd6fce307c286eb3135c7782fdef1bb>@@_NPAVUnitInterface@BWAPI@@@0@$$QAV<lambda_cfd6fce307c286eb3135c7782fdef1bb>@@@Z 1005b6d0 f i MicroIrradiated.obj
 0001:0005a770       ?dangerousEnemyInRange@MicroLurkers@UAlbertaBot@@ABE_NPAVUnitInterface@BWAPI@@@Z 1005b770 f   MicroLurkers.obj
 0001:0005a900       ?seekToBurrow@MicroLurkers@UAlbertaBot@@AAEXABVUnitset@BWAPI@@PAVUnitInterface@4@@Z 1005b900 f   MicroLurkers.obj
 0001:0005a9e0       ?executeMicro@MicroLurkers@UAlbertaBot@@UAEXABVUnitset@BWAPI@@ABVUnitCluster@2@@Z 1005b9e0 f   MicroLurkers.obj
 0001:0005afb0       ?getTarget@MicroLurkers@UAlbertaBot@@QAEPAVUnitInterface@BWAPI@@PAV34@ABVUnitset@4@@Z 1005bfb0 f   MicroLurkers.obj
 0001:0005b180       ?getAttackPriority@MicroLurkers@UAlbertaBot@@QBEHPAVUnitInterface@BWAPI@@@Z 1005c180 f   MicroLurkers.obj
 0001:0005b390       ??0MicroManager@UAlbertaBot@@QAE@XZ 1005c390 f   MicroManager.obj
 0001:0005b460       ?execute@MicroManager@UAlbertaBot@@QAEXABVUnitCluster@2@@Z 1005c460 f   MicroManager.obj
 0001:0005b840       ?getBackstopAttackPriority@MicroManager@UAlbertaBot@@IBEHPAVUnitInterface@BWAPI@@@Z 1005c840 f   MicroManager.obj
 0001:0005b9d0       ?destroyNeutralTargets@MicroManager@UAlbertaBot@@IAEXABVUnitset@BWAPI@@@Z 1005c9d0 f   MicroManager.obj
 0001:0005bc10       ?regroup@MicroManager@UAlbertaBot@@QBEXABV?$Point@H$00@BWAPI@@ABVUnitCluster@2@@Z 1005cc10 f   MicroManager.obj
 0001:0005c8b0       ?spell@MicroManager@UAlbertaBot@@IBE_NPAVUnitInterface@BWAPI@@VTechType@4@V?$Point@H$00@4@@Z 1005d8b0 f   MicroManager.obj
 0001:0005cab0       ?spell@MicroManager@UAlbertaBot@@IBE_NPAVUnitInterface@BWAPI@@VTechType@4@0@Z 1005dab0 f   MicroManager.obj
 0001:0005cbb0       ?updateCasters@MicroManager@UAlbertaBot@@IAEXABVUnitset@BWAPI@@@Z 1005dbb0 f   MicroManager.obj
 0001:0005cd50       ?infestable@MicroManager@UAlbertaBot@@IBE_NPAVUnitInterface@BWAPI@@@Z 1005dd50 f   MicroManager.obj
 0001:0005cec0       ?anyUnderThreat@MicroManager@UAlbertaBot@@QBE_NABVUnitset@BWAPI@@@Z 1005dec0 f   MicroManager.obj
 0001:0005d140       ?_Buyheadnode@?$_Tree_comp_alloc@V?$_Tmap_traits@PAVUnitInterface@BWAPI@@VCasterState@UAlbertaBot@@U?$less@PAVUnitInterface@BWAPI@@@std@@V?$allocator@U?$pair@QAVUnitInterface@BWAPI@@VCasterState@UAlbertaBot@@@std@@@6@$0A@@std@@@std@@QAEPAU?$_Tree_node@U?$pair@QAVUnitInterface@BWAPI@@VCasterState@UAlbertaBot@@@std@@PAX@2@XZ 1005e140 f i MicroManager.obj
 0001:0005d140       ?_Buyheadnode@?$_Tree_comp_alloc@V?$_Tmap_traits@PAVUnitInterface@BWAPI@@VWorkerPost@WorkerData@UAlbertaBot@@U?$less@PAVUnitInterface@BWAPI@@@std@@V?$allocator@U?$pair@QAVUnitInterface@BWAPI@@VWorkerPost@WorkerData@UAlbertaBot@@@std@@@7@$0A@@std@@@std@@QAEPAU?$_Tree_node@U?$pair@QAVUnitInterface@BWAPI@@VWorkerPost@WorkerData@UAlbertaBot@@@std@@PAX@2@XZ 1005e140 f i WorkerData.obj
 0001:0005d160       ??$_Buynode@U?$pair@PAVUnitInterface@BWAPI@@VCasterState@UAlbertaBot@@@std@@@?$_Tree_comp_alloc@V?$_Tmap_traits@PAVUnitInterface@BWAPI@@VCasterState@UAlbertaBot@@U?$less@PAVUnitInterface@BWAPI@@@std@@V?$allocator@U?$pair@QAVUnitInterface@BWAPI@@VCasterState@UAlbertaBot@@@std@@@6@$0A@@std@@@std@@QAEPAU?$_Tree_node@U?$pair@QAVUnitInterface@BWAPI@@VCasterState@UAlbertaBot@@@std@@PAX@1@$$QAU?$pair@PAVUnitInterface@BWAPI@@VCasterState@UAlbertaBot@@@1@@Z 1005e160 f i MicroManager.obj
 0001:0005d190       ??$_Insert_nohint@AAU?$pair@QAVUnitInterface@BWAPI@@VCasterState@UAlbertaBot@@@std@@PAU?$_Tree_node@U?$pair@QAVUnitInterface@BWAPI@@VCasterState@UAlbertaBot@@@std@@PAX@2@@?$_Tree@V?$_Tmap_traits@PAVUnitInterface@BWAPI@@VCasterState@UAlbertaBot@@U?$less@PAVUnitInterface@BWAPI@@@std@@V?$allocator@U?$pair@QAVUnitInterface@BWAPI@@VCasterState@UAlbertaBot@@@std@@@6@$0A@@std@@@std@@IAE?AU?$pair@V?$_Tree_iterator@V?$_Tree_val@U?$_Tree_simple_types@U?$pair@QAVUnitInterface@BWAPI@@VCasterState@UAlbertaBot@@@std@@@std@@@std@@@std@@_N@1@_NAAU?$pair@QAVUnitInterface@BWAPI@@VCasterState@UAlbertaBot@@@1@PAU?$_Tree_node@U?$pair@QAVUnitInterface@BWAPI@@VCasterState@UAlbertaBot@@@std@@PAX@1@@Z 1005e190 f i MicroManager.obj
 0001:0005d190       ??$_Insert_nohint@AAU?$pair@QAVUnitInterface@BWAPI@@VWorkerPost@WorkerData@UAlbertaBot@@@std@@PAU?$_Tree_node@U?$pair@QAVUnitInterface@BWAPI@@VWorkerPost@WorkerData@UAlbertaBot@@@std@@PAX@2@@?$_Tree@V?$_Tmap_traits@PAVUnitInterface@BWAPI@@VWorkerPost@WorkerData@UAlbertaBot@@U?$less@PAVUnitInterface@BWAPI@@@std@@V?$allocator@U?$pair@QAVUnitInterface@BWAPI@@VWorkerPost@WorkerData@UAlbertaBot@@@std@@@7@$0A@@std@@@std@@IAE?AU?$pair@V?$_Tree_iterator@V?$_Tree_val@U?$_Tree_simple_types@U?$pair@QAVUnitInterface@BWAPI@@VWorkerPost@WorkerData@UAlbertaBot@@@std@@@std@@@std@@@std@@_N@1@_NAAU?$pair@QAVUnitInterface@BWAPI@@VWorkerPost@WorkerData@UAlbertaBot@@@1@PAU?$_Tree_node@U?$pair@QAVUnitInterface@BWAPI@@VWorkerPost@WorkerData@UAlbertaBot@@@std@@PAX@1@@Z 1005e190 f i WorkerData.obj
 0001:0005d300       ?_Target_type@?$_Func_impl_no_alloc@V<lambda_e0d4f0a6843bbf70301b4930bfad8260>@@_NPAVUnitInterface@BWAPI@@@std@@EBEABVtype_info@@XZ 1005e300 f i MicroManager.obj
 0001:0005d310       ?_Move@?$_Func_impl_no_alloc@V<lambda_e0d4f0a6843bbf70301b4930bfad8260>@@_NPAVUnitInterface@BWAPI@@@std@@EAEPAV?$_Func_base@_NPAVUnitInterface@BWAPI@@@2@PAX@Z 1005e310 f i MicroManager.obj
 0001:0005d310       ?_Copy@?$_Func_impl_no_alloc@V<lambda_e0d4f0a6843bbf70301b4930bfad8260>@@_NPAVUnitInterface@BWAPI@@@std@@EBEPAV?$_Func_base@_NPAVUnitInterface@BWAPI@@@2@PAX@Z 1005e310 f i MicroManager.obj
 0001:0005d330       ?_Buynode0@?$_Tree_comp_alloc@V?$_Tmap_traits@PAVUnitInterface@BWAPI@@VCasterState@UAlbertaBot@@U?$less@PAVUnitInterface@BWAPI@@@std@@V?$allocator@U?$pair@QAVUnitInterface@BWAPI@@VCasterState@UAlbertaBot@@@std@@@6@$0A@@std@@@std@@QAEPAU?$_Tree_node@U?$pair@QAVUnitInterface@BWAPI@@VCasterState@UAlbertaBot@@@std@@PAX@2@XZ 1005e330 f i MicroManager.obj
 0001:0005d330       ?_Buynode0@?$_Tree_comp_alloc@V?$_Tmap_traits@PAVUnitInterface@BWAPI@@VWorkerPost@WorkerData@UAlbertaBot@@U?$less@PAVUnitInterface@BWAPI@@@std@@V?$allocator@U?$pair@QAVUnitInterface@BWAPI@@VWorkerPost@WorkerData@UAlbertaBot@@@std@@@7@$0A@@std@@@std@@QAEPAU?$_Tree_node@U?$pair@QAVUnitInterface@BWAPI@@VWorkerPost@WorkerData@UAlbertaBot@@@std@@PAX@2@XZ 1005e330 f i WorkerData.obj
 0001:0005d350       ?_Destroy_if_node@?$_Tree@V?$_Tmap_traits@PAVUnitInterface@BWAPI@@VWorkerPost@WorkerData@UAlbertaBot@@U?$less@PAVUnitInterface@BWAPI@@@std@@V?$allocator@U?$pair@QAVUnitInterface@BWAPI@@VWorkerPost@WorkerData@UAlbertaBot@@@std@@@7@$0A@@std@@@std@@IAEXPAU?$_Tree_node@U?$pair@QAVUnitInterface@BWAPI@@VWorkerPost@WorkerData@UAlbertaBot@@@std@@PAX@2@@Z 1005e350 f i WorkerData.obj
 0001:0005d350       ?_Destroy_if_node@?$_Tree@V?$_Tmap_traits@PAVUnitInterface@BWAPI@@VCasterState@UAlbertaBot@@U?$less@PAVUnitInterface@BWAPI@@@std@@V?$allocator@U?$pair@QAVUnitInterface@BWAPI@@VCasterState@UAlbertaBot@@@std@@@6@$0A@@std@@@std@@IAEXPAU?$_Tree_node@U?$pair@QAVUnitInterface@BWAPI@@VCasterState@UAlbertaBot@@@std@@PAX@2@@Z 1005e350 f i MicroManager.obj
 0001:0005d350       ?_Freenode0@?$_Tree_comp_alloc@V?$_Tmap_traits@PAVUnitInterface@BWAPI@@VWorkerPost@WorkerData@UAlbertaBot@@U?$less@PAVUnitInterface@BWAPI@@@std@@V?$allocator@U?$pair@QAVUnitInterface@BWAPI@@VWorkerPost@WorkerData@UAlbertaBot@@@std@@@7@$0A@@std@@@std@@QAEXPAU?$_Tree_node@U?$pair@QAVUnitInterface@BWAPI@@VWorkerPost@WorkerData@UAlbertaBot@@@std@@PAX@2@@Z 1005e350 f i WorkerData.obj
 0001:0005d370       ??$_Insert_at@AAU?$pair@QAVUnitInterface@BWAPI@@VWorkerPost@WorkerData@UAlbertaBot@@@std@@PAU?$_Tree_node@U?$pair@QAVUnitInterface@BWAPI@@VWorkerPost@WorkerData@UAlbertaBot@@@std@@PAX@2@@?$_Tree@V?$_Tmap_traits@PAVUnitInterface@BWAPI@@VWorkerPost@WorkerData@UAlbertaBot@@U?$less@PAVUnitInterface@BWAPI@@@std@@V?$allocator@U?$pair@QAVUnitInterface@BWAPI@@VWorkerPost@WorkerData@UAlbertaBot@@@std@@@7@$0A@@std@@@std@@IAE?AV?$_Tree_iterator@V?$_Tree_val@U?$_Tree_simple_types@U?$pair@QAVUnitInterface@BWAPI@@VWorkerPost@WorkerData@UAlbertaBot@@@std@@@std@@@std@@@1@_NPAU?$_Tree_node@U?$pair@QAVUnitInterface@BWAPI@@VWorkerPost@WorkerData@UAlbertaBot@@@std@@PAX@1@AAU?$pair@QAVUnitInterface@BWAPI@@VWorkerPost@WorkerData@UAlbertaBot@@@1@1@Z 1005e370 f i WorkerData.obj
 0001:0005d370       ??$_Insert_at@AAU?$pair@QAVUnitInterface@BWAPI@@VCasterState@UAlbertaBot@@@std@@PAU?$_Tree_node@U?$pair@QAVUnitInterface@BWAPI@@VCasterState@UAlbertaBot@@@std@@PAX@2@@?$_Tree@V?$_Tmap_traits@PAVUnitInterface@BWAPI@@VCasterState@UAlbertaBot@@U?$less@PAVUnitInterface@BWAPI@@@std@@V?$allocator@U?$pair@QAVUnitInterface@BWAPI@@VCasterState@UAlbertaBot@@@std@@@6@$0A@@std@@@std@@IAE?AV?$_Tree_iterator@V?$_Tree_val@U?$_Tree_simple_types@U?$pair@QAVUnitInterface@BWAPI@@VCasterState@UAlbertaBot@@@std@@@std@@@std@@@1@_NPAU?$_Tree_node@U?$pair@QAVUnitInterface@BWAPI@@VCasterState@UAlbertaBot@@@std@@PAX@1@AAU?$pair@QAVUnitInterface@BWAPI@@VCasterState@UAlbertaBot@@@1@1@Z 1005e370 f i MicroManager.obj
 0001:0005d5a0       ?monitor@MicroState@UAlbertaBot@@AAEXPAVUnitInterface@BWAPI@@@Z 1005e5a0 f   Micro.obj
 0001:0005d7a0       ??0MicroState@UAlbertaBot@@QAE@XZ 1005e7a0 f   Micro.obj
 0001:0005d810       ?setOrder@MicroState@UAlbertaBot@@QAEXPAVUnitInterface@BWAPI@@VOrder@4@@Z 1005e810 f   Micro.obj
 0001:0005d8b0       ?setOrder@MicroState@UAlbertaBot@@QAEXPAVUnitInterface@BWAPI@@VOrder@4@0@Z 1005e8b0 f   Micro.obj
 0001:0005d950       ?setOrder@MicroState@UAlbertaBot@@QAEXPAVUnitInterface@BWAPI@@VOrder@4@V?$Point@H$00@4@@Z 1005e950 f   Micro.obj
 0001:0005da50       ?update@MicroState@UAlbertaBot@@QAEXPAVUnitInterface@BWAPI@@@Z 1005ea50 f   Micro.obj
 0001:0005dc10       ?update@Micro@UAlbertaBot@@QAEXXZ 1005ec10 f   Micro.obj
 0001:0005ddf0       ?nextGroundDestination@Micro@UAlbertaBot@@ABE?AV?$Point@H$00@BWAPI@@PAVUnitInterface@4@ABV34@PBVGridDistances@2@@Z 1005edf0 f   Micro.obj
 0001:0005e0e0       ?getMicroState@Micro@UAlbertaBot@@QBEABVMicroState@2@PAVUnitInterface@BWAPI@@@Z 1005f0e0 f   Micro.obj
 0001:0005e130       ?inWeaponsDanger@Micro@UAlbertaBot@@QBEPAVUnitInterface@BWAPI@@PAV34@H@Z 1005f130 f   Micro.obj
 0001:0005e970       ?canFleeTo@Micro@UAlbertaBot@@QBE_NPAVUnitInterface@BWAPI@@ABV?$Point@H$00@4@@Z 1005f970 f   Micro.obj
 0001:0005ec50       ?kiteBack@Micro@UAlbertaBot@@QAE_NPAVUnitInterface@BWAPI@@0@Z 1005fc50 f   Micro.obj
 0001:0005ee20       ?fleeEnemy@Micro@UAlbertaBot@@QAEXPAVUnitInterface@BWAPI@@0H@Z 1005fe20 f   Micro.obj
 0001:0005eec0       ?fleeDT@Micro@UAlbertaBot@@QAE_NPAVUnitInterface@BWAPI@@@Z 1005fec0 f   Micro.obj
 0001:0005f100       ?CatchAndAttackUnit@Micro@UAlbertaBot@@QAEXPAVUnitInterface@BWAPI@@0@Z 10060100 f   Micro.obj
 0001:0005f260       ?AttackUnit@Micro@UAlbertaBot@@QAEXPAVUnitInterface@BWAPI@@0@Z 10060260 f   Micro.obj
 0001:0005f460       ?AttackMove@Micro@UAlbertaBot@@QAEXPAVUnitInterface@BWAPI@@ABV?$Point@H$00@4@@Z 10060460 f   Micro.obj
 0001:0005f660       ?Move@Micro@UAlbertaBot@@QAEXPAVUnitInterface@BWAPI@@ABV?$Point@H$00@4@PBVGridDistances@2@@Z 10060660 f   Micro.obj
 0001:0005f7b0       ?MoveNear@Micro@UAlbertaBot@@QAEXPAVUnitInterface@BWAPI@@ABV?$Point@H$00@4@PBVGridDistances@2@@Z 100607b0 f   Micro.obj
 0001:0005f850       ?MoveSafely@Micro@UAlbertaBot@@QAE_NPAVUnitInterface@BWAPI@@ABV?$Point@H$00@4@PBVGridDistances@2@@Z 10060850 f   Micro.obj
 0001:0005fae0       ?RightClick@Micro@UAlbertaBot@@QAEXPAVUnitInterface@BWAPI@@0@Z 10060ae0 f   Micro.obj
 0001:0005fcf0       ?Repair@Micro@UAlbertaBot@@QAEXPAVUnitInterface@BWAPI@@0@Z 10060cf0 f   Micro.obj
 0001:0005fef0       ?ReturnCargo@Micro@UAlbertaBot@@QAEXPAVUnitInterface@BWAPI@@@Z 10060ef0 f   Micro.obj
 0001:00060060       ?Make@Micro@UAlbertaBot@@QAE_NPAVUnitInterface@BWAPI@@VUnitType@4@@Z 10061060 f   Micro.obj
 0001:000601b0       ?Cancel@Micro@UAlbertaBot@@QAE_NPAVUnitInterface@BWAPI@@@Z 100611b0 f   Micro.obj
 0001:000602c0       ?Burrow@Micro@UAlbertaBot@@QAE_NPAVUnitInterface@BWAPI@@@Z 100612c0 f   Micro.obj
 0001:000603a0       ?Unburrow@Micro@UAlbertaBot@@QAE_NPAVUnitInterface@BWAPI@@@Z 100613a0 f   Micro.obj
 0001:00060460       ?Load@Micro@UAlbertaBot@@QAE_NPAVUnitInterface@BWAPI@@0@Z 10061460 f   Micro.obj
 0001:00060550       ?Siege@Micro@UAlbertaBot@@QAE_NPAVUnitInterface@BWAPI@@@Z 10061550 f   Micro.obj
 0001:00060610       ?Unsiege@Micro@UAlbertaBot@@QAE_NPAVUnitInterface@BWAPI@@@Z 10061610 f   Micro.obj
 0001:000606d0       ?Scan@Micro@UAlbertaBot@@QAE_NABV?$Point@H$00@BWAPI@@@Z 100616d0 f   Micro.obj
 0001:00060810       ?Stim@Micro@UAlbertaBot@@QAE_NPAVUnitInterface@BWAPI@@@Z 10061810 f   Micro.obj
 0001:000608f0       ?MergeArchon@Micro@UAlbertaBot@@QAE_NPAVUnitInterface@BWAPI@@0@Z 100618f0 f   Micro.obj
 0001:00060a50       ?UseTech@Micro@UAlbertaBot@@QAE_NPAVUnitInterface@BWAPI@@VTechType@4@0@Z 10061a50 f   Micro.obj
 0001:00060b40       ?KiteTarget@Micro@UAlbertaBot@@QAEXPAVUnitInterface@BWAPI@@0@Z 10061b40 f   Micro.obj
 0001:00060d60       ?MutaDanceTarget@Micro@UAlbertaBot@@QAEXPAVUnitInterface@BWAPI@@0@Z 10061d60 f   Micro.obj
 0001:00060ed0       ??A?$map@PAVUnitInterface@BWAPI@@VMicroState@UAlbertaBot@@U?$less@PAVUnitInterface@BWAPI@@@std@@V?$allocator@U?$pair@QAVUnitInterface@BWAPI@@VMicroState@UAlbertaBot@@@std@@@6@@std@@QAEAAVMicroState@UAlbertaBot@@ABQAVUnitInterface@BWAPI@@@Z 10061ed0 f i Micro.obj
 0001:00060f40       ?_Buyheadnode@?$_Tree_comp_alloc@V?$_Tmap_traits@PAVUnitInterface@BWAPI@@VMicroState@UAlbertaBot@@U?$less@PAVUnitInterface@BWAPI@@@std@@V?$allocator@U?$pair@QAVUnitInterface@BWAPI@@VMicroState@UAlbertaBot@@@std@@@6@$0A@@std@@@std@@QAEPAU?$_Tree_node@U?$pair@QAVUnitInterface@BWAPI@@VMicroState@UAlbertaBot@@@std@@PAX@2@XZ 10061f40 f i Micro.obj
 0001:00060f60       ?_Target_type@?$_Func_impl_no_alloc@V<lambda_3cdec769ff18744395981dd48fcfc232>@@_NPAVUnitInterface@BWAPI@@@std@@EBEABVtype_info@@XZ 10061f60 f i Micro.obj
 0001:00060f70       ?_Copy@?$_Func_impl_no_alloc@V<lambda_3cdec769ff18744395981dd48fcfc232>@@_NPAVUnitInterface@BWAPI@@@std@@EBEPAV?$_Func_base@_NPAVUnitInterface@BWAPI@@@2@PAX@Z 10061f70 f i Micro.obj
 0001:00060f70       ?_Move@?$_Func_impl_no_alloc@V<lambda_3cdec769ff18744395981dd48fcfc232>@@_NPAVUnitInterface@BWAPI@@@std@@EAEPAV?$_Func_base@_NPAVUnitInterface@BWAPI@@@2@PAX@Z 10061f70 f i Micro.obj
 0001:00060f90       ??$_Buynode@ABUpiecewise_construct_t@std@@V?$tuple@ABQAVUnitInterface@BWAPI@@@2@V?$tuple@$$V@2@@?$_Tree_comp_alloc@V?$_Tmap_traits@PAVUnitInterface@BWAPI@@VMicroState@UAlbertaBot@@U?$less@PAVUnitInterface@BWAPI@@@std@@V?$allocator@U?$pair@QAVUnitInterface@BWAPI@@VMicroState@UAlbertaBot@@@std@@@6@$0A@@std@@@std@@QAEPAU?$_Tree_node@U?$pair@QAVUnitInterface@BWAPI@@VMicroState@UAlbertaBot@@@std@@PAX@1@ABUpiecewise_construct_t@1@$$QAV?$tuple@ABQAVUnitInterface@BWAPI@@@1@$$QAV?$tuple@$$V@1@@Z 10061f90 f i Micro.obj
 0001:00060fc0       ??$_Insert_hint@AAU?$pair@QAVUnitInterface@BWAPI@@VMicroState@UAlbertaBot@@@std@@PAU?$_Tree_node@U?$pair@QAVUnitInterface@BWAPI@@VMicroState@UAlbertaBot@@@std@@PAX@2@@?$_Tree@V?$_Tmap_traits@PAVUnitInterface@BWAPI@@VMicroState@UAlbertaBot@@U?$less@PAVUnitInterface@BWAPI@@@std@@V?$allocator@U?$pair@QAVUnitInterface@BWAPI@@VMicroState@UAlbertaBot@@@std@@@6@$0A@@std@@@std@@IAE?AV?$_Tree_iterator@V?$_Tree_val@U?$_Tree_simple_types@U?$pair@QAVUnitInterface@BWAPI@@VMicroState@UAlbertaBot@@@std@@@std@@@std@@@1@V?$_Tree_const_iterator@V?$_Tree_val@U?$_Tree_simple_types@U?$pair@QAVUnitInterface@BWAPI@@VMicroState@UAlbertaBot@@@std@@@std@@@std@@@1@AAU?$pair@QAVUnitInterface@BWAPI@@VMicroState@UAlbertaBot@@@1@PAU?$_Tree_node@U?$pair@QAVUnitInterface@BWAPI@@VMicroState@UAlbertaBot@@@std@@PAX@1@@Z 10061fc0 f i Micro.obj
 0001:00061250       ?_Buynode0@?$_Tree_comp_alloc@V?$_Tmap_traits@PAVUnitInterface@BWAPI@@VMicroState@UAlbertaBot@@U?$less@PAVUnitInterface@BWAPI@@@std@@V?$allocator@U?$pair@QAVUnitInterface@BWAPI@@VMicroState@UAlbertaBot@@@std@@@6@$0A@@std@@@std@@QAEPAU?$_Tree_node@U?$pair@QAVUnitInterface@BWAPI@@VMicroState@UAlbertaBot@@@std@@PAX@2@XZ 10062250 f i Micro.obj
 0001:00061270       ?_Destroy_if_node@?$_Tree@V?$_Tmap_traits@PAVUnitInterface@BWAPI@@VMicroState@UAlbertaBot@@U?$less@PAVUnitInterface@BWAPI@@@std@@V?$allocator@U?$pair@QAVUnitInterface@BWAPI@@VMicroState@UAlbertaBot@@@std@@@6@$0A@@std@@@std@@IAEXPAU?$_Tree_node@U?$pair@QAVUnitInterface@BWAPI@@VMicroState@UAlbertaBot@@@std@@PAX@2@@Z 10062270 f i Micro.obj
 0001:00061290       ??$_Insert_at@AAU?$pair@QAVUnitInterface@BWAPI@@VMicroState@UAlbertaBot@@@std@@PAU?$_Tree_node@U?$pair@QAVUnitInterface@BWAPI@@VMicroState@UAlbertaBot@@@std@@PAX@2@@?$_Tree@V?$_Tmap_traits@PAVUnitInterface@BWAPI@@VMicroState@UAlbertaBot@@U?$less@PAVUnitInterface@BWAPI@@@std@@V?$allocator@U?$pair@QAVUnitInterface@BWAPI@@VMicroState@UAlbertaBot@@@std@@@6@$0A@@std@@@std@@IAE?AV?$_Tree_iterator@V?$_Tree_val@U?$_Tree_simple_types@U?$pair@QAVUnitInterface@BWAPI@@VMicroState@UAlbertaBot@@@std@@@std@@@std@@@1@_NPAU?$_Tree_node@U?$pair@QAVUnitInterface@BWAPI@@VMicroState@UAlbertaBot@@@std@@PAX@1@AAU?$pair@QAVUnitInterface@BWAPI@@VMicroState@UAlbertaBot@@@1@1@Z 10062290 f i Micro.obj
 0001:000614c0       ??$_Insert_nohint@AAU?$pair@QAVUnitInterface@BWAPI@@VMicroState@UAlbertaBot@@@std@@PAU?$_Tree_node@U?$pair@QAVUnitInterface@BWAPI@@VMicroState@UAlbertaBot@@@std@@PAX@2@@?$_Tree@V?$_Tmap_traits@PAVUnitInterface@BWAPI@@VMicroState@UAlbertaBot@@U?$less@PAVUnitInterface@BWAPI@@@std@@V?$allocator@U?$pair@QAVUnitInterface@BWAPI@@VMicroState@UAlbertaBot@@@std@@@6@$0A@@std@@@std@@IAE?AU?$pair@V?$_Tree_iterator@V?$_Tree_val@U?$_Tree_simple_types@U?$pair@QAVUnitInterface@BWAPI@@VMicroState@UAlbertaBot@@@std@@@std@@@std@@@std@@_N@1@_NAAU?$pair@QAVUnitInterface@BWAPI@@VMicroState@UAlbertaBot@@@1@PAU?$_Tree_node@U?$pair@QAVUnitInterface@BWAPI@@VMicroState@UAlbertaBot@@@std@@PAX@1@@Z 100624c0 f i Micro.obj
 0001:00061630       ?update@MicroMedics@UAlbertaBot@@QAEXABVUnitCluster@2@PAVUnitInterface@BWAPI@@@Z 10062630 f   MicroMedics.obj
 0001:00061910       ?executeMicro@MicroMelee@UAlbertaBot@@UAEXABVUnitset@BWAPI@@ABVUnitCluster@2@@Z 10062910 f   MicroMelee.obj
 0001:00061990       ?assignTargets@MicroMelee@UAlbertaBot@@QAEXABVUnitset@BWAPI@@0@Z 10062990 f   MicroMelee.obj
 0001:00061df0       ?getTarget@MicroMelee@UAlbertaBot@@QAEPAVUnitInterface@BWAPI@@PAV34@ABVUnitset@4@_N@Z 10062df0 f   MicroMelee.obj
 0001:00062100       ?getAttackPriority@MicroMelee@UAlbertaBot@@QBEHPAVUnitInterface@BWAPI@@0@Z 10063100 f   MicroMelee.obj
 0001:00062300       ?nearestSpore@MicroOverlords@UAlbertaBot@@ABEPAVUnitInterface@BWAPI@@PAV34@@Z 10063300 f   MicroOverlords.obj
 0001:000623b0       ?assignOverlordsToSpores@MicroOverlords@UAlbertaBot@@AAEXABVUnitset@BWAPI@@@Z 100633b0 f   MicroOverlords.obj
 0001:00062450       ?assignOverlords@MicroOverlords@UAlbertaBot@@AAEXXZ 10063450 f   MicroOverlords.obj
 0001:00063150       ??1?$set@V?$Point@H$0CA@@BWAPI@@U?$less@V?$Point@H$0CA@@BWAPI@@@std@@V?$allocator@V?$Point@H$0CA@@BWAPI@@@4@@std@@QAE@XZ 10064150 f i MicroOverlords.obj
 0001:000631f0       ??_EMicroOverlords@UAlbertaBot@@UAEPAXI@Z 100641f0 f i * CIL library *:* CIL module *
 0001:000631f0       ??_GMicroOverlords@UAlbertaBot@@UAEPAXI@Z 100641f0 f i MicroOverlords.obj
 0001:00063260       ??1MicroOverlords@UAlbertaBot@@UAE@XZ 10064260 f i MicroOverlords.obj
 0001:000632b0       ??1?$map@PAVUnitInterface@BWAPI@@V?$Point@H$0CA@@2@U?$less@PAVUnitInterface@BWAPI@@@std@@V?$allocator@U?$pair@QAVUnitInterface@BWAPI@@V?$Point@H$0CA@@2@@std@@@5@@std@@QAE@XZ 100642b0 f i MicroOverlords.obj
 0001:000632e0       ?update@MicroOverlords@UAlbertaBot@@QAEXXZ 100642e0 f   MicroOverlords.obj
 0001:00063850       ?clear@?$_Tree@V?$_Tmap_traits@PAVUnitInterface@BWAPI@@V?$Point@H$0CA@@2@U?$less@PAVUnitInterface@BWAPI@@@std@@V?$allocator@U?$pair@QAVUnitInterface@BWAPI@@V?$Point@H$0CA@@2@@std@@@5@$0A@@std@@@std@@QAEXXZ 10064850 f i MicroOverlords.obj
 0001:000638e0       ??A?$map@PAVUnitInterface@BWAPI@@V?$Point@H$0CA@@2@U?$less@PAVUnitInterface@BWAPI@@@std@@V?$allocator@U?$pair@QAVUnitInterface@BWAPI@@V?$Point@H$0CA@@2@@std@@@5@@std@@QAEAAV?$Point@H$0CA@@BWAPI@@ABQAVUnitInterface@3@@Z 100648e0 f i MicroOverlords.obj
 0001:00063950       ??1?$_Tree_comp_alloc@V?$_Tmap_traits@PAVUnitInterface@BWAPI@@V?$Point@H$0CA@@2@U?$less@PAVUnitInterface@BWAPI@@@std@@V?$allocator@U?$pair@QAVUnitInterface@BWAPI@@V?$Point@H$0CA@@2@@std@@@5@$0A@@std@@@std@@QAE@XZ 10064950 f i MicroOverlords.obj
 0001:00063960       ?_Tidy@?$_Tree@V?$_Tmap_traits@PAVUnitInterface@BWAPI@@V?$Point@H$0CA@@2@U?$less@PAVUnitInterface@BWAPI@@@std@@V?$allocator@U?$pair@QAVUnitInterface@BWAPI@@V?$Point@H$0CA@@2@@std@@@5@$0A@@std@@@std@@IAEXXZ 10064960 f i MicroOverlords.obj
 0001:00063980       ?_Erase@?$_Tree@V?$_Tmap_traits@PAVUnitInterface@BWAPI@@V?$Point@H$0CA@@2@U?$less@PAVUnitInterface@BWAPI@@@std@@V?$allocator@U?$pair@QAVUnitInterface@BWAPI@@V?$Point@H$0CA@@2@@std@@@5@$0A@@std@@@std@@IAEXPAU?$_Tree_node@U?$pair@QAVUnitInterface@BWAPI@@V?$Point@H$0CA@@2@@std@@PAX@2@@Z 10064980 f i MicroOverlords.obj
 0001:000639c0       ?erase@?$_Tree@V?$_Tmap_traits@PAVUnitInterface@BWAPI@@V?$Point@H$0CA@@2@U?$less@PAVUnitInterface@BWAPI@@@std@@V?$allocator@U?$pair@QAVUnitInterface@BWAPI@@V?$Point@H$0CA@@2@@std@@@5@$0A@@std@@@std@@QAE?AV?$_Tree_iterator@V?$_Tree_val@U?$_Tree_simple_types@U?$pair@QAVUnitInterface@BWAPI@@V?$Point@H$0CA@@2@@std@@@std@@@std@@@2@V?$_Tree_const_iterator@V?$_Tree_val@U?$_Tree_simple_types@U?$pair@QAVUnitInterface@BWAPI@@V?$Point@H$0CA@@2@@std@@@std@@@std@@@2@0@Z 100649c0 f i MicroOverlords.obj
 0001:00063ab0       ??$_Insert_nohint@ABV?$Point@H$0CA@@BWAPI@@U_Not_a_node_tag@std@@@?$_Tree@V?$_Tset_traits@V?$Point@H$0CA@@BWAPI@@U?$less@V?$Point@H$0CA@@BWAPI@@@std@@V?$allocator@V?$Point@H$0CA@@BWAPI@@@4@$0A@@std@@@std@@IAE?AU?$pair@V?$_Tree_const_iterator@V?$_Tree_val@U?$_Tree_simple_types@V?$Point@H$0CA@@BWAPI@@@std@@@std@@@std@@_N@1@_NABV?$Point@H$0CA@@BWAPI@@U_Not_a_node_tag@1@@Z 10064ab0 f i MicroOverlords.obj
 0001:00063c10       ??$_Insert_at@ABV?$Point@H$0CA@@BWAPI@@U_Not_a_node_tag@std@@@?$_Tree@V?$_Tset_traits@V?$Point@H$0CA@@BWAPI@@U?$less@V?$Point@H$0CA@@BWAPI@@@std@@V?$allocator@V?$Point@H$0CA@@BWAPI@@@4@$0A@@std@@@std@@IAE?AV?$_Tree_const_iterator@V?$_Tree_val@U?$_Tree_simple_types@V?$Point@H$0CA@@BWAPI@@@std@@@std@@@1@_NPAU?$_Tree_node@V?$Point@H$0CA@@BWAPI@@PAX@1@ABV?$Point@H$0CA@@BWAPI@@U_Not_a_node_tag@1@@Z 10064c10 f i MicroOverlords.obj
 0001:00063e40       ??$_Buynode@ABUpiecewise_construct_t@std@@V?$tuple@ABQAVUnitInterface@BWAPI@@@2@V?$tuple@$$V@2@@?$_Tree_comp_alloc@V?$_Tmap_traits@PAVUnitInterface@BWAPI@@V?$Point@H$0CA@@2@U?$less@PAVUnitInterface@BWAPI@@@std@@V?$allocator@U?$pair@QAVUnitInterface@BWAPI@@V?$Point@H$0CA@@2@@std@@@5@$0A@@std@@@std@@QAEPAU?$_Tree_node@U?$pair@QAVUnitInterface@BWAPI@@V?$Point@H$0CA@@2@@std@@PAX@1@ABUpiecewise_construct_t@1@$$QAV?$tuple@ABQAVUnitInterface@BWAPI@@@1@$$QAV?$tuple@$$V@1@@Z 10064e40 f i MicroOverlords.obj
 0001:00063e70       ??$_Insert_hint@AAU?$pair@QAVUnitInterface@BWAPI@@V?$Point@H$0CA@@2@@std@@PAU?$_Tree_node@U?$pair@QAVUnitInterface@BWAPI@@V?$Point@H$0CA@@2@@std@@PAX@2@@?$_Tree@V?$_Tmap_traits@PAVUnitInterface@BWAPI@@V?$Point@H$0CA@@2@U?$less@PAVUnitInterface@BWAPI@@@std@@V?$allocator@U?$pair@QAVUnitInterface@BWAPI@@V?$Point@H$0CA@@2@@std@@@5@$0A@@std@@@std@@IAE?AV?$_Tree_iterator@V?$_Tree_val@U?$_Tree_simple_types@U?$pair@QAVUnitInterface@BWAPI@@V?$Point@H$0CA@@2@@std@@@std@@@std@@@1@V?$_Tree_const_iterator@V?$_Tree_val@U?$_Tree_simple_types@U?$pair@QAVUnitInterface@BWAPI@@V?$Point@H$0CA@@2@@std@@@std@@@std@@@1@AAU?$pair@QAVUnitInterface@BWAPI@@V?$Point@H$0CA@@2@@1@PAU?$_Tree_node@U?$pair@QAVUnitInterface@BWAPI@@V?$Point@H$0CA@@2@@std@@PAX@1@@Z 10064e70 f i MicroOverlords.obj
 0001:00064100       ??$_Insert_at@AAU?$pair@QAVUnitInterface@BWAPI@@V?$Point@H$0CA@@2@@std@@PAU?$_Tree_node@U?$pair@QAVUnitInterface@BWAPI@@V?$Point@H$0CA@@2@@std@@PAX@2@@?$_Tree@V?$_Tmap_traits@PAVUnitInterface@BWAPI@@V?$Point@H$0CA@@2@U?$less@PAVUnitInterface@BWAPI@@@std@@V?$allocator@U?$pair@QAVUnitInterface@BWAPI@@V?$Point@H$0CA@@2@@std@@@5@$0A@@std@@@std@@IAE?AV?$_Tree_iterator@V?$_Tree_val@U?$_Tree_simple_types@U?$pair@QAVUnitInterface@BWAPI@@V?$Point@H$0CA@@2@@std@@@std@@@std@@@1@_NPAU?$_Tree_node@U?$pair@QAVUnitInterface@BWAPI@@V?$Point@H$0CA@@2@@std@@PAX@1@AAU?$pair@QAVUnitInterface@BWAPI@@V?$Point@H$0CA@@2@@1@1@Z 10065100 f i MicroOverlords.obj
 0001:00064330       ??$_Insert_nohint@AAU?$pair@QAVUnitInterface@BWAPI@@V?$Point@H$0CA@@2@@std@@PAU?$_Tree_node@U?$pair@QAVUnitInterface@BWAPI@@V?$Point@H$0CA@@2@@std@@PAX@2@@?$_Tree@V?$_Tmap_traits@PAVUnitInterface@BWAPI@@V?$Point@H$0CA@@2@U?$less@PAVUnitInterface@BWAPI@@@std@@V?$allocator@U?$pair@QAVUnitInterface@BWAPI@@V?$Point@H$0CA@@2@@std@@@5@$0A@@std@@@std@@IAE?AU?$pair@V?$_Tree_iterator@V?$_Tree_val@U?$_Tree_simple_types@U?$pair@QAVUnitInterface@BWAPI@@V?$Point@H$0CA@@2@@std@@@std@@@std@@@std@@_N@1@_NAAU?$pair@QAVUnitInterface@BWAPI@@V?$Point@H$0CA@@2@@1@PAU?$_Tree_node@U?$pair@QAVUnitInterface@BWAPI@@V?$Point@H$0CA@@2@@std@@PAX@1@@Z 10065330 f i MicroOverlords.obj
 0001:000644a0       ?maybeParasite@MicroQueens@UAlbertaBot@@AAE_NPAVUnitInterface@BWAPI@@H@Z 100654a0 f   MicroQueens.obj
 0001:00064a30       ?ensnareScore@MicroQueens@UAlbertaBot@@ABEHPAVUnitInterface@BWAPI@@@Z 10065a30 f   MicroQueens.obj
 0001:00064ba0       ?maybeEnsnare@MicroQueens@UAlbertaBot@@AAE_NPAVUnitInterface@BWAPI@@@Z 10065ba0 f   MicroQueens.obj
 0001:00065070       ?broodlingScore@MicroQueens@UAlbertaBot@@ABEHPAVUnitInterface@BWAPI@@0@Z 10066070 f   MicroQueens.obj
 0001:00065380       ?maybeBroodling@MicroQueens@UAlbertaBot@@AAE_NPAVUnitInterface@BWAPI@@@Z 10066380 f   MicroQueens.obj
 0001:00065960       ?getQueenDestination@MicroQueens@UAlbertaBot@@ABE?AV?$Point@H$00@BWAPI@@PAVUnitInterface@4@ABV34@@Z 10066960 f   MicroQueens.obj
 0001:00065e30       ?updateMovement@MicroQueens@UAlbertaBot@@AAEXPAVUnitInterface@BWAPI@@@Z 10066e30 f   MicroQueens.obj
 0001:000663e0       ?updateAction@MicroQueens@UAlbertaBot@@AAEX_N@Z 100673e0 f   MicroQueens.obj
 0001:00066770       ?_Target_type@?$_Func_impl_no_alloc@V<lambda_78f85996966d427a337d8e82ed1b3dbd>@@_NPAVUnitInterface@BWAPI@@@std@@EBEABVtype_info@@XZ 10067770 f i MicroQueens.obj
 0001:00066780       ?_Move@?$_Func_impl_no_alloc@V<lambda_78f85996966d427a337d8e82ed1b3dbd>@@_NPAVUnitInterface@BWAPI@@@std@@EAEPAV?$_Func_base@_NPAVUnitInterface@BWAPI@@@2@PAX@Z 10067780 f i MicroQueens.obj
 0001:00066780       ?_Copy@?$_Func_impl_no_alloc@V<lambda_78f85996966d427a337d8e82ed1b3dbd>@@_NPAVUnitInterface@BWAPI@@@std@@EBEPAV?$_Func_base@_NPAVUnitInterface@BWAPI@@@2@PAX@Z 10067780 f i MicroQueens.obj
 0001:000667a0       ?_Do_call@?$_Func_impl_no_alloc@V<lambda_78f85996966d427a337d8e82ed1b3dbd>@@_NPAVUnitInterface@BWAPI@@@std@@EAE_N$$QAPAVUnitInterface@BWAPI@@@Z 100677a0 f i MicroQueens.obj
 0001:000667e0       ?executeMicro@MicroRanged@UAlbertaBot@@UAEXABVUnitset@BWAPI@@ABVUnitCluster@2@@Z 100677e0 f   MicroRanged.obj
 0001:00066860       ?assignTargets@MicroRanged@UAlbertaBot@@QAEXABVUnitset@BWAPI@@0@Z 10067860 f   MicroRanged.obj
 0001:00066d30       ?getTarget@MicroRanged@UAlbertaBot@@QAEPAVUnitInterface@BWAPI@@PAV34@ABVUnitset@4@_N@Z 10067d30 f   MicroRanged.obj
 0001:000671c0       ?getAttackPriority@MicroRanged@UAlbertaBot@@QAEHPAVUnitInterface@BWAPI@@0@Z 100681c0 f   MicroRanged.obj
 0001:00067640       ?executeMicro@MicroScourge@UAlbertaBot@@UAEXABVUnitset@BWAPI@@ABVUnitCluster@2@@Z 10068640 f   MicroScourge.obj
 0001:000676c0       ?assignTargets@MicroScourge@UAlbertaBot@@QAEXABVUnitset@BWAPI@@0@Z 100686c0 f   MicroScourge.obj
 0001:00067a40       ?getTarget@MicroScourge@UAlbertaBot@@QAEPAVUnitInterface@BWAPI@@PAV34@ABVUnitset@4@@Z 10068a40 f   MicroScourge.obj
 0001:00067b90       ?allMeleeAndSameHeight@MicroTanks@UAlbertaBot@@ABE_NABVUnitset@BWAPI@@PAVUnitInterface@4@@Z 10068b90 f   MicroTanks.obj
 0001:00067c30       ?executeMicro@MicroTanks@UAlbertaBot@@UAEXABVUnitset@BWAPI@@ABVUnitCluster@2@@Z 10068c30 f   MicroTanks.obj
 0001:000681f0       ?getAttackPriority@MicroTanks@UAlbertaBot@@QAEHPAVUnitInterface@BWAPI@@0@Z 100691f0 f   MicroTanks.obj
 0001:00068430       ??0MicroTransports@UAlbertaBot@@QAE@XZ 10069430 f   MicroTransports.obj
 0001:00068490       ??_EMicroTransports@UAlbertaBot@@UAEPAXI@Z 10069490 f i * CIL library *:* CIL module *
 0001:00068490       ??_GMicroTransports@UAlbertaBot@@UAEPAXI@Z 10069490 f i MicroTransports.obj
 0001:000684e0       ??1MicroTransports@UAlbertaBot@@UAE@XZ 100694e0 f i MicroTransports.obj
 0001:00068520       ?calculateWaypoints@MicroTransports@UAlbertaBot@@AAEXXZ 10069520 f   MicroTransports.obj
 0001:000686d0       ?drawTransportInformation@MicroTransports@UAlbertaBot@@AAEXXZ 100696d0 f   MicroTransports.obj
 0001:000688e0       ?update@MicroTransports@UAlbertaBot@@QAEXXZ 100698e0 f   MicroTransports.obj
 0001:00068b60       ?followPerimeter@MicroTransports@UAlbertaBot@@AAEXXZ 10069b60 f   MicroTransports.obj
 0001:00068f00       ??$_Emplace_reallocate@V?$Point@H$00@BWAPI@@@?$vector@V?$Point@H$00@BWAPI@@V?$allocator@V?$Point@H$00@BWAPI@@@std@@@std@@QAEPAV?$Point@H$00@BWAPI@@QAV23@$$QAV23@@Z 10069f00 f i MicroTransports.obj
 0001:00068f00       ??$_Emplace_reallocate@ABV?$Point@H$00@BWAPI@@@?$vector@V?$Point@H$00@BWAPI@@V?$allocator@V?$Point@H$00@BWAPI@@@std@@@std@@QAEPAV?$Point@H$00@BWAPI@@QAV23@ABV23@@Z 10069f00 f i OpsBoss.obj
 0001:000690a0       ??0invalid_argument@std@@QAE@PBD@Z 1006a0a0 f i NEATCommander.obj
 0001:000690e0       ??0overflow_error@std@@QAE@PBD@Z 1006a0e0 f i NEATCommander.obj
 0001:00069130       ?Instance@NEATCommander@UAlbertaBot@@SAAAV12@XZ 1006a130 f   NEATCommander.obj
 0001:00069360       ??1BuildOrder@UAlbertaBot@@QAE@XZ 1006a360 f i NEATCommander.obj
 0001:00069370       ?InitializeNetwork@NEATCommander@UAlbertaBot@@AAEXXZ 1006a370 f   NEATCommander.obj
 0001:000699f0       ??1DBConnector@@QAE@XZ     1006a9f0 f i NEATCommander.obj
 0001:00069a10       ??1?$unordered_map@HNU?$hash@H@std@@U?$equal_to@H@2@V?$allocator@U?$pair@$$CBHN@std@@@2@@std@@QAE@XZ 1006aa10 f i NEATCommander.obj
 0001:00069a20       ??1?$_Hash@V?$_Umap_traits@HNV?$_Uhash_compare@HU?$hash@H@std@@U?$equal_to@H@2@@std@@V?$allocator@U?$pair@$$CBHN@std@@@2@$0A@@std@@@std@@QAE@XZ 1006aa20 f i NEATCommander.obj
 0001:00069ac0       ?sendFitnessToTrainServer@NEATCommander@UAlbertaBot@@QAEXXZ 1006aac0 f   NEATCommander.obj
 0001:00069f80       ?evaluate@NEATCommander@UAlbertaBot@@AAEXXZ 1006af80 f   NEATCommander.obj
 0001:0006a8d0       ??0overflow_error@std@@QAE@ABV01@@Z 1006b8d0 f i NEATCommander.obj
 0001:0006a910       ?getVisibleMap@NEATCommander@UAlbertaBot@@AAEXH@Z 1006b910 f   NEATCommander.obj
 0001:0006ac20       ?canMacro@NEATCommander@UAlbertaBot@@AAE_NW4MacroCommandType@2@@Z 1006bc20 f   NEATCommander.obj
 0001:0006adf0       ?canBuild@NEATCommander@UAlbertaBot@@AAE_NW4NetworkTerranOptions@2@AAV?$Point@H$0CA@@BWAPI@@@Z 1006bdf0 f   NEATCommander.obj
 0001:0006af60       ?ToBWAPIUnit@NEATCommander@UAlbertaBot@@AAE?AVUnitType@BWAPI@@W4NetworkTerranOptions@2@@Z 1006bf60 f   NEATCommander.obj
 0001:0006b190       ?ToBWAPITech@NEATCommander@UAlbertaBot@@AAE?AVTechType@BWAPI@@W4NetworkTerranOptions@2@@Z 1006c190 f   NEATCommander.obj
 0001:0006b2a0       ?ToBWAPIUpgrade@NEATCommander@UAlbertaBot@@AAE?AVUpgradeType@BWAPI@@W4NetworkTerranOptions@2@@Z 1006c2a0 f   NEATCommander.obj
 0001:0006b3d0       ?getTileType@NEATCommander@UAlbertaBot@@AAE?AW4NEAT_TileType@2@VUnitType@BWAPI@@@Z 1006c3d0 f   NEATCommander.obj
 0001:0006b950       ??1?$list@U?$pair@$$CBHN@std@@V?$allocator@U?$pair@$$CBHN@std@@@2@@std@@QAE@XZ 1006c950 f i NEATCommander.obj
 0001:0006b9a0       ??1?$vector@VNodeEval@@V?$allocator@VNodeEval@@@std@@@std@@QAE@XZ 1006c9a0 f i NEATCommander.obj
 0001:0006ba30       ??D?$iter_impl@V?$basic_json@Vmap@std@@Vvector@2@V?$basic_string@DU?$char_traits@D@std@@V?$allocator@D@2@@2@_N_J_KNVallocator@2@Uadl_serializer@json_abi_v3_11_3@nlohmann@@V?$vector@EV?$allocator@E@std@@@2@X@json_abi_v3_11_3@nlohmann@@@detail@json_abi_v3_11_3@nlohmann@@QBEAAV?$basic_json@Vmap@std@@Vvector@2@V?$basic_string@DU?$char_traits@D@std@@V?$allocator@D@2@@2@_N_J_KNVallocator@2@Uadl_serializer@json_abi_v3_11_3@nlohmann@@V?$vector@EV?$allocator@E@std@@@2@X@23@XZ 1006ca30 f i NEATCommander.obj
 0001:0006bb10       ?_Destroy@?$vector@VNodeEval@@V?$allocator@VNodeEval@@@std@@@std@@AAEXPAVNodeEval@@0@Z 1006cb10 f i NEATCommander.obj
 0001:0006bb40       ?deallocate@?$allocator@VNodeEval@@@std@@QAEXQAVNodeEval@@I@Z 1006cb40 f i NEATCommander.obj
 0001:0006bb90       ??$Activate@N@FeedForwardNetwork@@QAEXAAV?$vector@NV?$allocator@N@std@@@std@@@Z 1006cb90 f i NEATCommander.obj
 0001:0006be00       ??$_Emplace_reallocate@V?$array@H$01@std@@@?$vector@V?$array@H$01@std@@V?$allocator@V?$array@H$01@std@@@2@@std@@QAEPAV?$array@H$01@1@QAV21@$$QAV21@@Z 1006ce00 f i NEATCommander.obj
 0001:0006bf80       ??$_Emplace_reallocate@ABN@?$vector@NV?$allocator@N@std@@@std@@QAEPANQANABN@Z 1006cf80 f i NEATCommander.obj
 0001:0006bf80       ??$_Emplace_reallocate@N@?$vector@NV?$allocator@N@std@@@std@@QAEPANQAN$$QAN@Z 1006cf80 f i NEATCommander.obj
 0001:0006c100       ??$_Emplace_reallocate@V?$basic_string@DU?$char_traits@D@std@@V?$allocator@D@2@@std@@@?$vector@V?$basic_string@DU?$char_traits@D@std@@V?$allocator@D@2@@std@@V?$allocator@V?$basic_string@DU?$char_traits@D@std@@V?$allocator@D@2@@std@@@2@@std@@QAEPAV?$basic_string@DU?$char_traits@D@std@@V?$allocator@D@2@@1@QAV21@$$QAV21@@Z 1006d100 f i NEATCommander.obj
 0001:0006c270       ??0invalid_argument@std@@QAE@ABV01@@Z 1006d270 f i NEATCommander.obj
 0001:0006c2b0       ??0logic_error@std@@QAE@ABV01@@Z 1006d2b0 f i NEATCommander.obj
 0001:0006c2f0       ??A?$unordered_map@HNU?$hash@H@std@@U?$equal_to@H@2@V?$allocator@U?$pair@$$CBHN@std@@@2@@std@@QAEAANABH@Z 1006d2f0 f i NEATCommander.obj
 0001:0006c3d0       ??$assign@V?$basic_json@Vmap@std@@Vvector@2@V?$basic_string@DU?$char_traits@D@std@@V?$allocator@D@2@@2@_N_J_KNVallocator@2@Uadl_serializer@json_abi_v3_11_3@nlohmann@@V?$vector@EV?$allocator@E@std@@@2@X@json_abi_v3_11_3@nlohmann@@X@?$basic_string@DU?$char_traits@D@std@@V?$allocator@D@2@@std@@QAEAAV01@ABV?$basic_json@Vmap@std@@Vvector@2@V?$basic_string@DU?$char_traits@D@std@@V?$allocator@D@2@@2@_N_J_KNVallocator@2@Uadl_serializer@json_abi_v3_11_3@nlohmann@@V?$vector@EV?$allocator@E@std@@@2@X@json_abi_v3_11_3@nlohmann@@@Z 1006d3d0 f i NEATCommander.obj
 0001:0006c480       ??1NodeEval@@QAE@XZ        1006d480 f i NEATCommander.obj
 0001:0006c560       ??1?$vector@UConnection@@V?$allocator@UConnection@@@std@@@std@@QAE@XZ 1006d560 f i NEATCommander.obj
 0001:0006c5c0       ??$_Insert@AAU?$pair@$$CBHN@std@@V?$_List_unchecked_iterator@V?$_List_val@U?$_List_simple_types@U?$pair@$$CBHN@std@@@std@@@std@@@2@@?$_Hash@V?$_Umap_traits@HNV?$_Uhash_compare@HU?$hash@H@std@@U?$equal_to@H@2@@std@@V?$allocator@U?$pair@$$CBHN@std@@@2@$0A@@std@@@std@@IAE?AU?$pair@V?$_List_iterator@V?$_List_val@U?$_List_simple_types@U?$pair@$$CBHN@std@@@std@@@std@@@std@@_N@1@AAU?$pair@$$CBHN@1@V?$_List_unchecked_iterator@V?$_List_val@U?$_List_simple_types@U?$pair@$$CBHN@std@@@std@@@std@@@1@@Z 1006d5c0 f i NEATCommander.obj
 0001:0006c7d0       ??$_Buynode@ABUpiecewise_construct_t@std@@V?$tuple@ABH@2@V?$tuple@$$V@2@@?$_List_buy@U?$pair@$$CBHN@std@@V?$allocator@U?$pair@$$CBHN@std@@@2@@std@@QAEPAU?$_List_node@U?$pair@$$CBHN@std@@PAX@1@PAU21@0ABUpiecewise_construct_t@1@$$QAV?$tuple@ABH@1@$$QAV?$tuple@$$V@1@@Z 1006d7d0 f i NEATCommander.obj
 0001:0006c800       ??$erase@V?$_List_iterator@V?$_List_val@U?$_List_simple_types@U?$pair@$$CBHN@std@@@std@@@std@@@std@@X@?$_Hash@V?$_Umap_traits@HNV?$_Uhash_compare@HU?$hash@H@std@@U?$equal_to@H@2@@std@@V?$allocator@U?$pair@$$CBHN@std@@@2@$0A@@std@@@std@@QAE?AV?$_List_iterator@V?$_List_val@U?$_List_simple_types@U?$pair@$$CBHN@std@@@std@@@std@@@1@V21@@Z 1006d800 f i NEATCommander.obj
 0001:0006c8b0       ?_Buynode0@?$_List_alloc@U?$_List_base_types@U?$pair@$$CBHN@std@@V?$allocator@U?$pair@$$CBHN@std@@@2@@std@@@std@@QAEPAU?$_List_node@U?$pair@$$CBHN@std@@PAX@2@PAU32@0@Z 1006d8b0 f i NEATCommander.obj
 0001:0006c8e0       ??$concat@V?$basic_string@DU?$char_traits@D@std@@V?$allocator@D@2@@std@@AAY0BN@$$CBDPBD@detail@json_abi_v3_11_3@nlohmann@@YA?AV?$basic_string@DU?$char_traits@D@std@@V?$allocator@D@2@@std@@AAY0BN@$$CBD$$QAPBD@Z 1006d8e0 f i NEATCommander.obj
 0001:0006c990       ??0NodeEval@@QAE@HABV?$basic_string@DU?$char_traits@D@std@@V?$allocator@D@2@@std@@0NN@Z 1006d990 f   NodeEval.obj
 0001:0006cd00       ??0FeedForwardNetwork@@QAE@AAV?$basic_json@Vmap@std@@Vvector@2@V?$basic_string@DU?$char_traits@D@std@@V?$allocator@D@2@@2@_N_J_KNVallocator@2@Uadl_serializer@json_abi_v3_11_3@nlohmann@@V?$vector@EV?$allocator@E@std@@@2@X@json_abi_v3_11_3@nlohmann@@0@Z 1006dd00 f   NodeEval.obj
 0001:0006d0b0       ?AddNodeEval@FeedForwardNetwork@@QAEXABV?$basic_json@Vmap@std@@Vvector@2@V?$basic_string@DU?$char_traits@D@std@@V?$allocator@D@2@@2@_N_J_KNVallocator@2@Uadl_serializer@json_abi_v3_11_3@nlohmann@@V?$vector@EV?$allocator@E@std@@@2@X@json_abi_v3_11_3@nlohmann@@@Z 1006e0b0 f   NodeEval.obj
 0001:0006d750       ?sum_aggregation@@YANABV?$vector@NV?$allocator@N@std@@@std@@@Z 1006e750 f   NodeEval.obj
 0001:0006d7a0       ?max_aggregation@@YANABV?$vector@NV?$allocator@N@std@@@std@@@Z 1006e7a0 f   NodeEval.obj
 0001:0006d7e0       ?min_aggregation@@YANABV?$vector@NV?$allocator@N@std@@@std@@@Z 1006e7e0 f   NodeEval.obj
 0001:0006d820       ?maxabs_aggregation@@YANABV?$vector@NV?$allocator@N@std@@@std@@@Z 1006e820 f   NodeEval.obj
 0001:0006d840       ?median_aggregation@@YANV?$vector@NV?$allocator@N@std@@@std@@@Z 1006e840 f   NodeEval.obj
 0001:0006d8e0       ?mean_aggregation@@YANABV?$vector@NV?$allocator@N@std@@@std@@@Z 1006e8e0 f   NodeEval.obj
 0001:0006d950       ?abs_activation@@YANN@Z    1006e950 f   NodeEval.obj
 0001:0006d970       ?clamped_activation@@YANN@Z 1006e970 f   NodeEval.obj
 0001:0006d9b0       ?cube_activation@@YANN@Z   1006e9b0 f   NodeEval.obj
 0001:0006d9c0       ?exp_activation@@YANN@Z    1006e9c0 f   NodeEval.obj
 0001:0006da10       ?gauss_activation@@YANN@Z  1006ea10 f   NodeEval.obj
 0001:0006da70       ?hat_activation@@YANN@Z    1006ea70 f   NodeEval.obj
 0001:0006dab0       ?identity_activation@@YANN@Z 1006eab0 f   NodeEval.obj
 0001:0006dac0       ?inv_activation@@YANN@Z    1006eac0 f   NodeEval.obj
 0001:0006dad0       ?log_activation@@YANN@Z    1006ead0 f   NodeEval.obj
 0001:0006daf0       ?relu_activation@@YANN@Z   1006eaf0 f   NodeEval.obj
 0001:0006db10       ?sigmoid_activation@@YANN@Z 1006eb10 f   NodeEval.obj
 0001:0006db80       ?sin_activation@@YANN@Z    1006eb80 f   NodeEval.obj
 0001:0006dbd0       ?softplus_activation@@YANN@Z 1006ebd0 f   NodeEval.obj
 0001:0006dc40       ?square_activation@@YANN@Z 1006ec40 f   NodeEval.obj
 0001:0006dc50       ?tanh_activation@@YANN@Z   1006ec50 f   NodeEval.obj
 0001:0006dcb0       ?getActivationFunction@NodeEval@@CA?AV?$function@$$A6ANN@Z@std@@PBD@Z 1006ecb0 f   NodeEval.obj
 0001:0006e180       ??$?A$$CBD@?$basic_json@Vmap@std@@Vvector@2@V?$basic_string@DU?$char_traits@D@std@@V?$allocator@D@2@@2@_N_J_KNVallocator@2@Uadl_serializer@json_abi_v3_11_3@nlohmann@@V?$vector@EV?$allocator@E@std@@@2@X@json_abi_v3_11_3@nlohmann@@QBEABV012@PBD@Z 1006f180 f i NodeEval.obj
 0001:0006e2d0       ??$?BV?$basic_string@DU?$char_traits@D@std@@V?$allocator@D@2@@std@@$0A@@?$basic_json@Vmap@std@@Vvector@2@V?$basic_string@DU?$char_traits@D@std@@V?$allocator@D@2@@2@_N_J_KNVallocator@2@Uadl_serializer@json_abi_v3_11_3@nlohmann@@V?$vector@EV?$allocator@E@std@@@2@X@json_abi_v3_11_3@nlohmann@@QBE?AV?$basic_string@DU?$char_traits@D@std@@V?$allocator@D@2@@std@@XZ 1006f2d0 f i NodeEval.obj
 0001:0006e3b0       ??$_Emplace_reallocate@ABVNodeEval@@@?$vector@VNodeEval@@V?$allocator@VNodeEval@@@std@@@std@@QAEPAVNodeEval@@QAV2@ABV2@@Z 1006f3b0 f i NodeEval.obj
 0001:0006e670       ??$_Emplace_reallocate@UConnection@@@?$vector@UConnection@@V?$allocator@UConnection@@@std@@@std@@QAEPAUConnection@@QAU2@$$QAU2@@Z 1006f670 f i NodeEval.obj
 0001:0006e7f0       ??0NodeEval@@QAE@ABV0@@Z   1006f7f0 f i NodeEval.obj
 0001:0006e8b0       ??0?$vector@UConnection@@V?$allocator@UConnection@@@std@@@std@@QAE@ABV01@@Z 1006f8b0 f i NodeEval.obj
 0001:0006e9c0       ?_Target_type@?$_Func_impl_no_alloc@P6ANV?$vector@NV?$allocator@N@std@@@std@@@ZNABV12@@std@@EBEABVtype_info@@XZ 1006f9c0 f i NodeEval.obj
 0001:0006e9d0       ?_Move@?$_Func_impl_no_alloc@P6ANV?$vector@NV?$allocator@N@std@@@std@@@ZNABV12@@std@@EAEPAV?$_Func_base@NABV?$vector@NV?$allocator@N@std@@@std@@@2@PAX@Z 1006f9d0 f i NodeEval.obj
 0001:0006e9d0       ?_Copy@?$_Func_impl_no_alloc@P6ANV?$vector@NV?$allocator@N@std@@@std@@@ZNABV12@@std@@EBEPAV?$_Func_base@NABV?$vector@NV?$allocator@N@std@@@std@@@2@PAX@Z 1006f9d0 f i NodeEval.obj
 0001:0006e9f0       ?_Target_type@?$_Func_impl_no_alloc@P6ANABV?$vector@NV?$allocator@N@std@@@std@@@ZNABV12@@std@@EBEABVtype_info@@XZ 1006f9f0 f i NodeEval.obj
 0001:0006ea00       ?_Copy@?$_Func_impl_no_alloc@P6ANABV?$vector@NV?$allocator@N@std@@@std@@@ZNABV12@@std@@EBEPAV?$_Func_base@NABV?$vector@NV?$allocator@N@std@@@std@@@2@PAX@Z 1006fa00 f i NodeEval.obj
 0001:0006ea00       ?_Move@?$_Func_impl_no_alloc@P6ANABV?$vector@NV?$allocator@N@std@@@std@@@ZNABV12@@std@@EAEPAV?$_Func_base@NABV?$vector@NV?$allocator@N@std@@@std@@@2@PAX@Z 1006fa00 f i NodeEval.obj
 0001:0006ea20       ?_Target_type@?$_Func_impl_no_alloc@P6ANN@ZNN@std@@EBEABVtype_info@@XZ 1006fa20 f i NodeEval.obj
 0001:0006ea30       ?_Copy@?$_Func_impl_no_alloc@P6ANN@ZNN@std@@EBEPAV?$_Func_base@NN@2@PAX@Z 1006fa30 f i NodeEval.obj
 0001:0006ea30       ?_Move@?$_Func_impl_no_alloc@P6ANN@ZNN@std@@EAEPAV?$_Func_base@NN@2@PAX@Z 1006fa30 f i NodeEval.obj
 0001:0006ea50       ??$get_impl@N$0A@@?$basic_json@Vmap@std@@Vvector@2@V?$basic_string@DU?$char_traits@D@std@@V?$allocator@D@2@@2@_N_J_KNVallocator@2@Uadl_serializer@json_abi_v3_11_3@nlohmann@@V?$vector@EV?$allocator@E@std@@@2@X@json_abi_v3_11_3@nlohmann@@ABENU?$priority_tag@$0A@@detail@12@@Z 1006fa50 f i NodeEval.obj
 0001:0006eb40       ??$_Sort_unchecked@PANU?$less@X@std@@@std@@YAXPAN0HU?$less@X@0@@Z 1006fb40 f i NodeEval.obj
 0001:0006ed90       ?_Do_call@?$_Func_impl_no_alloc@P6ANN@ZNN@std@@EAEN$$QAN@Z 1006fd90 f i NodeEval.obj
 0001:0006edc0       ?_Do_call@?$_Func_impl_no_alloc@P6ANABV?$vector@NV?$allocator@N@std@@@std@@@ZNABV12@@std@@EAENABV?$vector@NV?$allocator@N@std@@@2@@Z 1006fdc0 f i NodeEval.obj
 0001:0006ede0       ?_Do_call@?$_Func_impl_no_alloc@P6ANV?$vector@NV?$allocator@N@std@@@std@@@ZNABV12@@std@@EAENABV?$vector@NV?$allocator@N@std@@@2@@Z 1006fde0 f i NodeEval.obj
 0001:0006ee10       ??1?$_Uninitialized_backout_al@PAVNodeEval@@V?$allocator@VNodeEval@@@std@@@std@@QAE@XZ 1006fe10 f i NodeEval.obj
 0001:0006ee40       ??$_Partition_by_median_guess_unchecked@PANU?$less@X@std@@@std@@YA?AU?$pair@PANPAN@0@PAN0U?$less@X@0@@Z 1006fe40 f i NodeEval.obj
 0001:0006f160       ??$_Pop_heap_hole_by_index@PANNU?$less@X@std@@@std@@YAXPANHH$$QANU?$less@X@0@@Z 10070160 f i NodeEval.obj
 0001:0006f210       ??0?$vector@NV?$allocator@N@std@@@std@@QAE@ABV01@@Z 10070210 f i NodeEval.obj
 0001:0006f2e0       ?add@UnitCluster@UAlbertaBot@@QAEXABUUnitInfo@2@@Z 100702e0 f   OpsBoss.obj
 0001:0006f570       ?draw@UnitCluster@UAlbertaBot@@QBEXVColor@BWAPI@@ABV?$basic_string@DU?$char_traits@D@std@@V?$allocator@D@2@@std@@@Z 10070570 f   OpsBoss.obj
 0001:0006f6c0       ?formCluster@OpsBoss@UAlbertaBot@@AAEXABUUnitInfo@2@ABV?$map@PAVUnitInterface@BWAPI@@UUnitInfo@UAlbertaBot@@U?$less@PAVUnitInterface@BWAPI@@@std@@V?$allocator@U?$pair@QAVUnitInterface@BWAPI@@UUnitInfo@UAlbertaBot@@@std@@@6@@std@@AAVUnitset@BWAPI@@AAVUnitCluster@2@@Z 100706c0 f   OpsBoss.obj
 0001:0006f9a0       ?clusterUnits@OpsBoss@UAlbertaBot@@AAEXPAVPlayerInterface@BWAPI@@AAVUnitset@4@AAV?$vector@VUnitCluster@UAlbertaBot@@V?$allocator@VUnitCluster@UAlbertaBot@@@std@@@std@@@Z 100709a0 f   OpsBoss.obj
 0001:0006fc20       ?updateDefenders@OpsBoss@UAlbertaBot@@AAEXXZ 10070c20 f   OpsBoss.obj
 0001:0006ff70       ?cluster@OpsBoss@UAlbertaBot@@QAEXPAVPlayerInterface@BWAPI@@AAV?$vector@VUnitCluster@UAlbertaBot@@V?$allocator@VUnitCluster@UAlbertaBot@@@std@@@std@@@Z 10070f70 f   OpsBoss.obj
 0001:00070140       ?getGroundDefenseClusters@OpsBoss@UAlbertaBot@@QAEABV?$vector@VUnitCluster@UAlbertaBot@@V?$allocator@VUnitCluster@UAlbertaBot@@@std@@@std@@XZ 10071140 f   OpsBoss.obj
 0001:00070180       ?getAirDefenseClusters@OpsBoss@UAlbertaBot@@QAEABV?$vector@VUnitCluster@UAlbertaBot@@V?$allocator@VUnitCluster@UAlbertaBot@@@std@@@std@@XZ 10071180 f   OpsBoss.obj
 0001:000701c0       ??$construct@VUnitCluster@UAlbertaBot@@V12@@?$_Default_allocator_traits@V?$allocator@VUnitCluster@UAlbertaBot@@@std@@@std@@SAXAAV?$allocator@VUnitCluster@UAlbertaBot@@@1@QAVUnitCluster@UAlbertaBot@@$$QAV34@@Z 100711c0 f i OpsBoss.obj
 0001:000702d0       ??$_Emplace_reallocate@VUnitCluster@UAlbertaBot@@@?$vector@VUnitCluster@UAlbertaBot@@V?$allocator@VUnitCluster@UAlbertaBot@@@std@@@std@@QAEPAVUnitCluster@UAlbertaBot@@QAV23@$$QAV23@@Z 100712d0 f i OpsBoss.obj
 0001:00070560       ??$_Uninitialized_copy@PAVUnitCluster@UAlbertaBot@@PAV12@V?$allocator@VUnitCluster@UAlbertaBot@@@std@@@std@@YAPAVUnitCluster@UAlbertaBot@@QAV12@0PAV12@AAV?$allocator@VUnitCluster@UAlbertaBot@@@0@@Z 10071560 f i OpsBoss.obj
 0001:000706a0       ??1?$_Uninitialized_backout_al@PAVUnitCluster@UAlbertaBot@@V?$allocator@VUnitCluster@UAlbertaBot@@@std@@@std@@QAE@XZ 100716a0 f i OpsBoss.obj
 0001:000706b0       ?ParseConfigFile@ParseUtils@UAlbertaBot@@YAXABV?$basic_string@DU?$char_traits@D@std@@V?$allocator@D@2@@std@@@Z 100716b0 f   ParseUtils.obj
 0001:00071a40       ??_D?$basic_ifstream@DU?$char_traits@D@std@@@std@@QAEXXZ 10072a40 f i ParseUtils.obj
 0001:00071af0       ?ParseTextCommand@ParseUtils@UAlbertaBot@@YAXABV?$basic_string@DU?$char_traits@D@std@@V?$allocator@D@2@@std@@@Z 10072af0 f   ParseUtils.obj
 0001:00072470       ?GetBoolFromString@ParseUtils@UAlbertaBot@@YA_NABV?$basic_string@DU?$char_traits@D@std@@V?$allocator@D@2@@std@@@Z 10073470 f   ParseUtils.obj
 0001:000725d0       ?GetIntByRace@ParseUtils@UAlbertaBot@@YAHPBDABV?$GenericValue@U?$UTF8@D@rapidjson@@V?$MemoryPoolAllocator@VCrtAllocator@rapidjson@@@2@@rapidjson@@@Z 100735d0 f   ParseUtils.obj
 0001:000727c0       ?GetBoolByRace@ParseUtils@UAlbertaBot@@YA_NPBDABV?$GenericValue@U?$UTF8@D@rapidjson@@V?$MemoryPoolAllocator@VCrtAllocator@rapidjson@@@2@@rapidjson@@@Z 100737c0 f   ParseUtils.obj
 0001:000729c0       ??1?$GenericDocument@U?$UTF8@D@rapidjson@@V?$MemoryPoolAllocator@VCrtAllocator@rapidjson@@@2@VCrtAllocator@2@@rapidjson@@QAE@XZ 100739c0 f i ParseUtils.obj
 0001:00072a40       ??_E?$basic_ifstream@DU?$char_traits@D@std@@@std@@UAEPAXI@Z 10073a40 f i * CIL library *:* CIL module *
 0001:00072a40       ??_G?$basic_ifstream@DU?$char_traits@D@std@@@std@@UAEPAXI@Z 10073a40 f i ParseUtils.obj
 0001:00072a70       ??1?$GenericReader@U?$UTF8@D@rapidjson@@U12@VCrtAllocator@2@@rapidjson@@QAE@XZ 10073a70 f i ParseUtils.obj
 0001:00072a70       ??1?$Stack@VCrtAllocator@rapidjson@@@internal@rapidjson@@QAE@XZ 10073a70 f i ParseUtils.obj
 0001:00072a90       ??$ReadInt@H@JSONTools@UAlbertaBot@@YAXPBDABV?$GenericValue@U?$UTF8@D@rapidjson@@V?$MemoryPoolAllocator@VCrtAllocator@rapidjson@@@2@@rapidjson@@AAH@Z 10073a90 f i ParseUtils.obj
 0001:00072b40       ??$?5DU?$char_traits@D@std@@V?$allocator@D@1@@std@@YAAAV?$basic_istream@DU?$char_traits@D@std@@@0@$$QAV10@AAV?$basic_string@DU?$char_traits@D@std@@V?$allocator@D@2@@0@@Z 10073b40 f i ParseUtils.obj
 0001:00072dc0       ??1ClearStackOnExit@?$GenericDocument@U?$UTF8@D@rapidjson@@V?$MemoryPoolAllocator@VCrtAllocator@rapidjson@@@2@VCrtAllocator@2@@rapidjson@@QAE@XZ 10073dc0 f i ParseUtils.obj
 0001:00072df0       ??1ClearStackOnExit@?$GenericReader@U?$UTF8@D@rapidjson@@U12@VCrtAllocator@2@@rapidjson@@QAE@XZ 10073df0 f i ParseUtils.obj
 0001:00072e00       ??$SkipWhitespace@U?$GenericStringStream@U?$UTF8@D@rapidjson@@@rapidjson@@@rapidjson@@YAXAAU?$GenericStringStream@U?$UTF8@D@rapidjson@@@0@@Z 10073e00 f i ParseUtils.obj
 0001:00072e30       ??$ParseValue@$0A@U?$GenericStringStream@U?$UTF8@D@rapidjson@@@rapidjson@@V?$GenericDocument@U?$UTF8@D@rapidjson@@V?$MemoryPoolAllocator@VCrtAllocator@rapidjson@@@2@VCrtAllocator@2@@2@@?$GenericReader@U?$UTF8@D@rapidjson@@U12@VCrtAllocator@2@@rapidjson@@AAEXAAU?$GenericStringStream@U?$UTF8@D@rapidjson@@@1@AAV?$GenericDocument@U?$UTF8@D@rapidjson@@V?$MemoryPoolAllocator@VCrtAllocator@rapidjson@@@2@VCrtAllocator@2@@1@@Z 10073e30 f i ParseUtils.obj
 0001:00073020       ??1?$StreamLocalCopy@U?$GenericStringStream@U?$UTF8@D@rapidjson@@@rapidjson@@$00@internal@rapidjson@@QAE@XZ 10074020 f i ParseUtils.obj
 0001:00073030       ??$ParseString@$0A@U?$GenericStringStream@U?$UTF8@D@rapidjson@@@rapidjson@@V?$GenericDocument@U?$UTF8@D@rapidjson@@V?$MemoryPoolAllocator@VCrtAllocator@rapidjson@@@2@VCrtAllocator@2@@2@@?$GenericReader@U?$UTF8@D@rapidjson@@U12@VCrtAllocator@2@@rapidjson@@AAEXAAU?$GenericStringStream@U?$UTF8@D@rapidjson@@@1@AAV?$GenericDocument@U?$UTF8@D@rapidjson@@V?$MemoryPoolAllocator@VCrtAllocator@rapidjson@@@2@VCrtAllocator@2@@1@_N@Z 10074030 f i ParseUtils.obj
 0001:000730e0       ??$ParseObject@$0A@U?$GenericStringStream@U?$UTF8@D@rapidjson@@@rapidjson@@V?$GenericDocument@U?$UTF8@D@rapidjson@@V?$MemoryPoolAllocator@VCrtAllocator@rapidjson@@@2@VCrtAllocator@2@@2@@?$GenericReader@U?$UTF8@D@rapidjson@@U12@VCrtAllocator@2@@rapidjson@@AAEXAAU?$GenericStringStream@U?$UTF8@D@rapidjson@@@1@AAV?$GenericDocument@U?$UTF8@D@rapidjson@@V?$MemoryPoolAllocator@VCrtAllocator@rapidjson@@@2@VCrtAllocator@2@@1@@Z 100740e0 f i ParseUtils.obj
 0001:00073360       ??$ParseArray@$0A@U?$GenericStringStream@U?$UTF8@D@rapidjson@@@rapidjson@@V?$GenericDocument@U?$UTF8@D@rapidjson@@V?$MemoryPoolAllocator@VCrtAllocator@rapidjson@@@2@VCrtAllocator@2@@2@@?$GenericReader@U?$UTF8@D@rapidjson@@U12@VCrtAllocator@2@@rapidjson@@AAEXAAU?$GenericStringStream@U?$UTF8@D@rapidjson@@@1@AAV?$GenericDocument@U?$UTF8@D@rapidjson@@V?$MemoryPoolAllocator@VCrtAllocator@rapidjson@@@2@VCrtAllocator@2@@1@@Z 10074360 f i ParseUtils.obj
 0001:00073490       ??$ParseNumber@$0A@U?$GenericStringStream@U?$UTF8@D@rapidjson@@@rapidjson@@V?$GenericDocument@U?$UTF8@D@rapidjson@@V?$MemoryPoolAllocator@VCrtAllocator@rapidjson@@@2@VCrtAllocator@2@@2@@?$GenericReader@U?$UTF8@D@rapidjson@@U12@VCrtAllocator@2@@rapidjson@@AAEXAAU?$GenericStringStream@U?$UTF8@D@rapidjson@@@1@AAV?$GenericDocument@U?$UTF8@D@rapidjson@@V?$MemoryPoolAllocator@VCrtAllocator@rapidjson@@@2@VCrtAllocator@2@@1@@Z 10074490 f i ParseUtils.obj
 0001:00073ca0       ?EndArray@?$GenericDocument@U?$UTF8@D@rapidjson@@V?$MemoryPoolAllocator@VCrtAllocator@rapidjson@@@2@VCrtAllocator@2@@rapidjson@@AAE_NI@Z 10074ca0 f i ParseUtils.obj
 0001:00073d00       ?EndObject@?$GenericDocument@U?$UTF8@D@rapidjson@@V?$MemoryPoolAllocator@VCrtAllocator@rapidjson@@@2@VCrtAllocator@2@@rapidjson@@AAE_NI@Z 10074d00 f i ParseUtils.obj
 0001:00073d60       ?String@?$GenericDocument@U?$UTF8@D@rapidjson@@V?$MemoryPoolAllocator@VCrtAllocator@rapidjson@@@2@VCrtAllocator@2@@rapidjson@@AAE_NPBDI_N@Z 10074d60 f i ParseUtils.obj
 0001:00073dd0       ?Malloc@?$MemoryPoolAllocator@VCrtAllocator@rapidjson@@@rapidjson@@QAEPAXI@Z 10074dd0 f i ParseUtils.obj
 0001:00073e60       ??$ParseStringToStream@$0A@U?$UTF8@D@rapidjson@@U12@U?$GenericStringStream@U?$UTF8@D@rapidjson@@@2@V?$StackStream@D@?$GenericReader@U?$UTF8@D@rapidjson@@U12@VCrtAllocator@2@@2@@?$GenericReader@U?$UTF8@D@rapidjson@@U12@VCrtAllocator@2@@rapidjson@@AAEXAAU?$GenericStringStream@U?$UTF8@D@rapidjson@@@1@AAV?$StackStream@D@01@@Z 10074e60 f i ParseUtils.obj
 0001:00074080       ??$Push@V?$GenericValue@U?$UTF8@D@rapidjson@@V?$MemoryPoolAllocator@VCrtAllocator@rapidjson@@@2@@rapidjson@@@?$Stack@VCrtAllocator@rapidjson@@@internal@rapidjson@@QAEPAV?$GenericValue@U?$UTF8@D@rapidjson@@V?$MemoryPoolAllocator@VCrtAllocator@rapidjson@@@2@@2@I@Z 10075080 f i ParseUtils.obj
 0001:00074110       ?Put@?$StackStream@D@?$GenericReader@U?$UTF8@D@rapidjson@@U12@VCrtAllocator@2@@rapidjson@@QAEXD@Z 10075110 f i ParseUtils.obj
 0001:000741b0       ??$ParseHex4@U?$GenericStringStream@U?$UTF8@D@rapidjson@@@rapidjson@@@?$GenericReader@U?$UTF8@D@rapidjson@@U12@VCrtAllocator@2@@rapidjson@@AAEIAAU?$GenericStringStream@U?$UTF8@D@rapidjson@@@1@@Z 100751b0 f i ParseUtils.obj
 0001:00074220       ??_E?$basic_ifstream@DU?$char_traits@D@std@@@std@@$4PPPPPPPM@A@AEPAXI@Z 10075220 f i ParseUtils.obj
 0001:00074230       ?reset@PlayerSnapshot@UAlbertaBot@@IAEXPAVPlayerInterface@BWAPI@@@Z 10075230 f   PlayerSnapshot.obj
 0001:000742b0       ??0PlayerSnapshot@UAlbertaBot@@QAE@PAVPlayerInterface@BWAPI@@@Z 100752b0 f   PlayerSnapshot.obj
 0001:00074370       ?takeSelf@PlayerSnapshot@UAlbertaBot@@QAEXXZ 10075370 f   PlayerSnapshot.obj
 0001:00074420       ?takeSelfAll@PlayerSnapshot@UAlbertaBot@@QAEXXZ 10075420 f   PlayerSnapshot.obj
 0001:000745a0       ?takeEnemy@PlayerSnapshot@UAlbertaBot@@QAEXXZ 100755a0 f   PlayerSnapshot.obj
 0001:000746a0       ?takeEnemyEver@PlayerSnapshot@UAlbertaBot@@QAEXABV12@@Z 100756a0 f   PlayerSnapshot.obj
 0001:00074810       ?count@PlayerSnapshot@UAlbertaBot@@QBEHVUnitType@BWAPI@@@Z 10075810 f   PlayerSnapshot.obj
 0001:00074860       ?getSupply@PlayerSnapshot@UAlbertaBot@@QBEHXZ 10075860 f   PlayerSnapshot.obj
 0001:000748e0       ?failure@ProductionGoal@UAlbertaBot@@ABE_NXZ 100758e0 f   ProductionGoal.obj
 0001:00074a80       ?dropJammedItemsFromQueue@ProductionManager@UAlbertaBot@@AAEXXZ 10075a80 f   ProductionManager.obj
 0001:00074d80       ?manageBuildOrderQueue@ProductionManager@UAlbertaBot@@AAEXXZ 10075d80 f   ProductionManager.obj
 0001:00075120       ?maybeReorderQueue@ProductionManager@UAlbertaBot@@AAEXXZ 10076120 f   ProductionManager.obj
 0001:000758f0       ?getProducer@ProductionManager@UAlbertaBot@@ABEPAVUnitInterface@BWAPI@@VMacroAct@2@@Z 100768f0 f   ProductionManager.obj
 0001:00075ba0       ?getClosestUnitToPosition@ProductionManager@UAlbertaBot@@ABEPAVUnitInterface@BWAPI@@ABV?$vector@PAVUnitInterface@BWAPI@@V?$allocator@PAVUnitInterface@BWAPI@@@std@@@std@@V?$Point@H$00@4@@Z 10076ba0 f   ProductionManager.obj
 0001:00075c40       ?create@ProductionManager@UAlbertaBot@@AAEXPAVUnitInterface@BWAPI@@ABUBuildOrderItem@2@@Z 10076c40 f   ProductionManager.obj
 0001:00075cc0       ?predictWorkerMovement@ProductionManager@UAlbertaBot@@AAEXAAVBuilding@2@@Z 10076cc0 f   ProductionManager.obj
 0001:00075f50       ?getFreeMinerals@ProductionManager@UAlbertaBot@@ABEHXZ 10076f50 f   ProductionManager.obj
 0001:00075f80       ?getFreeGas@ProductionManager@UAlbertaBot@@ABEHXZ 10076f80 f   ProductionManager.obj
 0001:00075fb0       ?executeCommand@ProductionManager@UAlbertaBot@@AAEXABVMacroAct@2@@Z 10076fb0 f   ProductionManager.obj
 0001:00076710       ?updateGoals@ProductionManager@UAlbertaBot@@AAEXXZ 10077710 f   ProductionManager.obj
 0001:000768d0       ?Instance@ProductionManager@UAlbertaBot@@SAAAV12@XZ 100778d0 f   ProductionManager.obj
 0001:00076a30       ?nextIsBuilding@ProductionManager@UAlbertaBot@@QBE_NXZ 10077a30 f   ProductionManager.obj
 0001:00076a80       ?goOutOfBookAndClearQueue@ProductionManager@UAlbertaBot@@QAEXXZ 10077a80 f   ProductionManager.obj
 0001:00076ad0       ??$_Buynode@VProductionGoal@UAlbertaBot@@@?$_Flist_buy@VProductionGoal@UAlbertaBot@@V?$allocator@VProductionGoal@UAlbertaBot@@@std@@@std@@QAEPAU?$_Flist_node@VProductionGoal@UAlbertaBot@@PAX@1@PAU21@$$QAVProductionGoal@UAlbertaBot@@@Z 10077ad0 f i ProductionManager.obj
 0001:00076b10       ?_Buynode0@?$_Flist_buy@VProductionGoal@UAlbertaBot@@V?$allocator@VProductionGoal@UAlbertaBot@@@std@@@std@@QAEPAU?$_Flist_node@VProductionGoal@UAlbertaBot@@PAX@2@PAU32@@Z 10077b10 f i ProductionManager.obj
 0001:00076b30       ?_Target_type@?$_Func_impl_no_alloc@V<lambda_60256d1e3ed74e89517e758b8ea31c06>@@_NPAVUnitInterface@BWAPI@@@std@@EBEABVtype_info@@XZ 10077b30 f i ProductionManager.obj
 0001:00076b40       ?_Move@?$_Func_impl_no_alloc@V<lambda_60256d1e3ed74e89517e758b8ea31c06>@@_NPAVUnitInterface@BWAPI@@@std@@EAEPAV?$_Func_base@_NPAVUnitInterface@BWAPI@@@2@PAX@Z 10077b40 f i ProductionManager.obj
 0001:00076b40       ?_Copy@?$_Func_impl_no_alloc@V<lambda_60256d1e3ed74e89517e758b8ea31c06>@@_NPAVUnitInterface@BWAPI@@@std@@EBEPAV?$_Func_base@_NPAVUnitInterface@BWAPI@@@2@PAX@Z 10077b40 f i ProductionManager.obj
 0001:00076b60       ?_Do_call@?$_Func_impl_no_alloc@V<lambda_60256d1e3ed74e89517e758b8ea31c06>@@_NPAVUnitInterface@BWAPI@@@std@@EAE_N$$QAPAVUnitInterface@BWAPI@@@Z 10077b60 f i ProductionManager.obj
 0001:00076b90       ?index@Random@UAlbertaBot@@QAEHH@Z 10077b90 f   Random.obj
 0001:00076cc0       ?Instance@Random@UAlbertaBot@@SAAAV12@XZ 10077cc0 f   Random.obj
 0001:00076d80       ?_Get_bits@?$_Rng_from_urng@IV?$linear_congruential_engine@I$0LMIP@$0A@$0HPPPPPPP@@std@@@std@@AAEIXZ 10077d80 f i Random.obj
 0001:00076dd0       ?accessibleGasUnit@ResourceInfo@UAlbertaBot@@AAEPAVUnitInterface@BWAPI@@XZ 10077dd0 f   ResourceInfo.obj
 0001:000770d0       ?Instance@ScoutManager@UAlbertaBot@@SAAAV12@XZ 100780d0 f   ScoutManager.obj
 0001:00077240       ?setScoutTargets@ScoutManager@UAlbertaBot@@AAEXXZ 10078240 f   ScoutManager.obj
 0001:00077400       ?update@ScoutManager@UAlbertaBot@@QAEXXZ 10078400 f   ScoutManager.obj
 0001:000776d0       ?releaseWorkerScout@ScoutManager@UAlbertaBot@@QAEXXZ 100786d0 f   ScoutManager.obj
 0001:00077700       ?moveGroundScout@ScoutManager@UAlbertaBot@@AAEXXZ 10078700 f   ScoutManager.obj
 0001:000779a0       ?followGroundPath@ScoutManager@UAlbertaBot@@AAEXXZ 100789a0 f   ScoutManager.obj
 0001:00077bd0       ?enemyWorkerToHarass@ScoutManager@UAlbertaBot@@ABEPAVUnitInterface@BWAPI@@XZ 10078bd0 f   ScoutManager.obj
 0001:00077dd0       ?releaseScoutEarly@ScoutManager@UAlbertaBot@@ABE_NPAVUnitInterface@BWAPI@@@Z 10078dd0 f   ScoutManager.obj
 0001:00078280       ??1?$vector@V?$map@VUnitType@BWAPI@@HU?$less@VUnitType@BWAPI@@@std@@V?$allocator@U?$pair@$$CBVUnitType@BWAPI@@H@std@@@4@@std@@V?$allocator@V?$map@VUnitType@BWAPI@@HU?$less@VUnitType@BWAPI@@@std@@V?$allocator@U?$pair@$$CBVUnitType@BWAPI@@H@std@@@4@@std@@@2@@std@@QAE@XZ 10079280 f i SkillUnitTimings.obj
 0001:00078310       ?_Destroy@?$vector@V?$map@VUnitType@BWAPI@@HU?$less@VUnitType@BWAPI@@@std@@V?$allocator@U?$pair@$$CBVUnitType@BWAPI@@H@std@@@4@@std@@V?$allocator@V?$map@VUnitType@BWAPI@@HU?$less@VUnitType@BWAPI@@@std@@V?$allocator@U?$pair@$$CBVUnitType@BWAPI@@H@std@@@4@@std@@@2@@std@@AAEXPAV?$map@VUnitType@BWAPI@@HU?$less@VUnitType@BWAPI@@@std@@V?$allocator@U?$pair@$$CBVUnitType@BWAPI@@H@std@@@4@@2@0@Z 10079310 f i SkillUnitTimings.obj
 0001:00078340       ?deallocate@?$allocator@V?$map@VUnitType@BWAPI@@HU?$less@VUnitType@BWAPI@@@std@@V?$allocator@U?$pair@$$CBVUnitType@BWAPI@@H@std@@@4@@std@@@std@@QAEXQAV?$map@VUnitType@BWAPI@@HU?$less@VUnitType@BWAPI@@@std@@V?$allocator@U?$pair@$$CBVUnitType@BWAPI@@H@std@@@4@@2@I@Z 10079340 f i SkillUnitTimings.obj
 0001:00078380       ?_Change_array@?$vector@V?$map@VUnitType@BWAPI@@HU?$less@VUnitType@BWAPI@@@std@@V?$allocator@U?$pair@$$CBVUnitType@BWAPI@@H@std@@@4@@std@@V?$allocator@V?$map@VUnitType@BWAPI@@HU?$less@VUnitType@BWAPI@@@std@@V?$allocator@U?$pair@$$CBVUnitType@BWAPI@@H@std@@@4@@std@@@2@@std@@AAEXQAV?$map@VUnitType@BWAPI@@HU?$less@VUnitType@BWAPI@@@std@@V?$allocator@U?$pair@$$CBVUnitType@BWAPI@@H@std@@@4@@2@II@Z 10079380 f i SkillUnitTimings.obj
 0001:00078420       ?_Umove_if_noexcept@?$vector@V?$map@VUnitType@BWAPI@@HU?$less@VUnitType@BWAPI@@@std@@V?$allocator@U?$pair@$$CBVUnitType@BWAPI@@H@std@@@4@@std@@V?$allocator@V?$map@VUnitType@BWAPI@@HU?$less@VUnitType@BWAPI@@@std@@V?$allocator@U?$pair@$$CBVUnitType@BWAPI@@H@std@@@4@@std@@@2@@std@@AAEXPAV?$map@VUnitType@BWAPI@@HU?$less@VUnitType@BWAPI@@@std@@V?$allocator@U?$pair@$$CBVUnitType@BWAPI@@H@std@@@4@@2@00@Z 10079420 f i SkillUnitTimings.obj
 0001:000784a0       ??1?$_Uninitialized_backout_al@PAV?$map@VUnitType@BWAPI@@HU?$less@VUnitType@BWAPI@@@std@@V?$allocator@U?$pair@$$CBVUnitType@BWAPI@@H@std@@@4@@std@@V?$allocator@V?$map@VUnitType@BWAPI@@HU?$less@VUnitType@BWAPI@@@std@@V?$allocator@U?$pair@$$CBVUnitType@BWAPI@@H@std@@@4@@std@@@2@@std@@QAE@XZ 100794a0 f i SkillUnitTimings.obj
 0001:000784d0       ??0Squad@UAlbertaBot@@QAE@XZ 100794d0 f   Squad.obj
 0001:00078900       ??0Squad@UAlbertaBot@@QAE@ABV?$basic_string@DU?$char_traits@D@std@@V?$allocator@D@2@@std@@I@Z 10079900 f   Squad.obj
 0001:00078d60       ??1Squad@UAlbertaBot@@QAE@XZ 10079d60 f   Squad.obj
 0001:00079140       ?update@Squad@UAlbertaBot@@QAEXXZ 1007a140 f   Squad.obj
 0001:00079a00       ?setClusterStatus@Squad@UAlbertaBot@@AAEXAAVUnitCluster@2@@Z 1007aa00 f   Squad.obj
 0001:00079fa0       ?joinUp@Squad@UAlbertaBot@@AAE_NABVUnitCluster@2@@Z 1007afa0 f   Squad.obj
 0001:0007a120       ?moveCluster@Squad@UAlbertaBot@@AAEXABVUnitCluster@2@ABV?$Point@H$00@BWAPI@@_N@Z 1007b120 f   Squad.obj
 0001:0007a200       ?setAllUnits@Squad@UAlbertaBot@@AAEXXZ 1007b200 f   Squad.obj
 0001:0007a3a0       ?setNearEnemyUnits@Squad@UAlbertaBot@@AAEXXZ 1007b3a0 f   Squad.obj
 0001:0007a6c0       ?addUnitsToMicroManagers@Squad@UAlbertaBot@@AAEXXZ 1007b6c0 f   Squad.obj
 0001:0007b470       ?needsToRegroup@Squad@UAlbertaBot@@AAE_NAAVUnitCluster@2@@Z 1007c470 f   Squad.obj
 0001:0007c270       ?calcRegroupPosition@Squad@UAlbertaBot@@ABE?AV?$Point@H$00@BWAPI@@ABVUnitCluster@2@@Z 1007d270 f   Squad.obj
 0001:0007c7f0       ?nearbyImmobileGroundDefense@Squad@UAlbertaBot@@ABEPAVUnitInterface@BWAPI@@ABV?$Point@H$00@4@@Z 1007d7f0 f   Squad.obj
 0001:0007cce0       ?clear@Squad@UAlbertaBot@@QAEXXZ 1007dce0 f   Squad.obj
 0001:0007cda0       ?unitClosestToPosition@Squad@UAlbertaBot@@ABEPAVUnitInterface@BWAPI@@ABV?$Point@H$00@4@ABVUnitset@4@@Z 1007dda0 f   Squad.obj
 0001:0007d040       ?setOrder@Squad@UAlbertaBot@@QAEXAAVSquadOrder@2@@Z 1007e040 f   Squad.obj
 0001:0007d0d0       ?releaseWorkers@Squad@UAlbertaBot@@QAEXXZ 1007e0d0 f   Squad.obj
 0001:0007d140       ?maybeWatch@Squad@UAlbertaBot@@AAE_NXZ 1007e140 f   Squad.obj
 0001:0007d390       ?loadTransport@Squad@UAlbertaBot@@AAEXXZ 1007e390 f   Squad.obj
 0001:0007d590       ?stimIfNeeded@Squad@UAlbertaBot@@AAEXXZ 1007e590 f   Squad.obj
 0001:0007d960       ?drawCluster@Squad@UAlbertaBot@@ABEXABVUnitCluster@2@@Z 1007e960 f   Squad.obj
 0001:0007db70       ??$?HDU?$char_traits@D@std@@V?$allocator@D@1@@std@@YA?AV?$basic_string@DU?$char_traits@D@std@@V?$allocator@D@2@@0@D$$QAV10@@Z 1007eb70 f i Squad.obj
 0001:0007dc20       ??$_Reallocate_grow_by@V<lambda_6607a66f2a10a1261ff9db96cba1015b>@@IID@?$basic_string@DU?$char_traits@D@std@@V?$allocator@D@2@@std@@QAEAAV01@IV<lambda_6607a66f2a10a1261ff9db96cba1015b>@@IID@Z 1007ec20 f i Squad.obj
 0001:0007dd50       ??$_Buynode@ABUpiecewise_construct_t@std@@V?$tuple@ABQAVUnitInterface@BWAPI@@@2@V?$tuple@$$V@2@@?$_Tree_comp_alloc@V?$_Tmap_traits@PAVUnitInterface@BWAPI@@_NU?$less@PAVUnitInterface@BWAPI@@@std@@V?$allocator@U?$pair@QAVUnitInterface@BWAPI@@_N@std@@@4@$0A@@std@@@std@@QAEPAU?$_Tree_node@U?$pair@QAVUnitInterface@BWAPI@@_N@std@@PAX@1@ABUpiecewise_construct_t@1@$$QAV?$tuple@ABQAVUnitInterface@BWAPI@@@1@$$QAV?$tuple@$$V@1@@Z 1007ed50 f i Squad.obj
 0001:0007dd70       ??$_Insert_hint@AAU?$pair@QAVUnitInterface@BWAPI@@W4WorkerJob@WorkerData@UAlbertaBot@@@std@@PAU?$_Tree_node@U?$pair@QAVUnitInterface@BWAPI@@W4WorkerJob@WorkerData@UAlbertaBot@@@std@@PAX@2@@?$_Tree@V?$_Tmap_traits@PAVUnitInterface@BWAPI@@W4WorkerJob@WorkerData@UAlbertaBot@@U?$less@PAVUnitInterface@BWAPI@@@std@@V?$allocator@U?$pair@QAVUnitInterface@BWAPI@@W4WorkerJob@WorkerData@UAlbertaBot@@@std@@@7@$0A@@std@@@std@@IAE?AV?$_Tree_iterator@V?$_Tree_val@U?$_Tree_simple_types@U?$pair@QAVUnitInterface@BWAPI@@W4WorkerJob@WorkerData@UAlbertaBot@@@std@@@std@@@std@@@1@V?$_Tree_const_iterator@V?$_Tree_val@U?$_Tree_simple_types@U?$pair@QAVUnitInterface@BWAPI@@W4WorkerJob@WorkerData@UAlbertaBot@@@std@@@std@@@std@@@1@AAU?$pair@QAVUnitInterface@BWAPI@@W4WorkerJob@WorkerData@UAlbertaBot@@@1@PAU?$_Tree_node@U?$pair@QAVUnitInterface@BWAPI@@W4WorkerJob@WorkerData@UAlbertaBot@@@std@@PAX@1@@Z 1007ed70 f i WorkerData.obj
 0001:0007dd70       ??$_Insert_hint@AAU?$pair@QAVUnitInterface@BWAPI@@_N@std@@PAU?$_Tree_node@U?$pair@QAVUnitInterface@BWAPI@@_N@std@@PAX@2@@?$_Tree@V?$_Tmap_traits@PAVUnitInterface@BWAPI@@_NU?$less@PAVUnitInterface@BWAPI@@@std@@V?$allocator@U?$pair@QAVUnitInterface@BWAPI@@_N@std@@@4@$0A@@std@@@std@@IAE?AV?$_Tree_iterator@V?$_Tree_val@U?$_Tree_simple_types@U?$pair@QAVUnitInterface@BWAPI@@_N@std@@@std@@@std@@@1@V?$_Tree_const_iterator@V?$_Tree_val@U?$_Tree_simple_types@U?$pair@QAVUnitInterface@BWAPI@@_N@std@@@std@@@std@@@1@AAU?$pair@QAVUnitInterface@BWAPI@@_N@1@PAU?$_Tree_node@U?$pair@QAVUnitInterface@BWAPI@@_N@std@@PAX@1@@Z 1007ed70 f i Squad.obj
 0001:0007e000       ??$_Insert_nohint@AAU?$pair@QAVUnitInterface@BWAPI@@H@std@@PAU?$_Tree_node@U?$pair@QAVUnitInterface@BWAPI@@H@std@@PAX@2@@?$_Tree@V?$_Tmap_traits@PAVUnitInterface@BWAPI@@HU?$less@PAVUnitInterface@BWAPI@@@std@@V?$allocator@U?$pair@QAVUnitInterface@BWAPI@@H@std@@@4@$0A@@std@@@std@@IAE?AU?$pair@V?$_Tree_iterator@V?$_Tree_val@U?$_Tree_simple_types@U?$pair@QAVUnitInterface@BWAPI@@H@std@@@std@@@std@@@std@@_N@1@_NAAU?$pair@QAVUnitInterface@BWAPI@@H@1@PAU?$_Tree_node@U?$pair@QAVUnitInterface@BWAPI@@H@std@@PAX@1@@Z 1007f000 f i WorkerData.obj
 0001:0007e000       ??$_Insert_nohint@AAU?$pair@QAVUnitInterface@BWAPI@@_N@std@@PAU?$_Tree_node@U?$pair@QAVUnitInterface@BWAPI@@_N@std@@PAX@2@@?$_Tree@V?$_Tmap_traits@PAVUnitInterface@BWAPI@@_NU?$less@PAVUnitInterface@BWAPI@@@std@@V?$allocator@U?$pair@QAVUnitInterface@BWAPI@@_N@std@@@4@$0A@@std@@@std@@IAE?AU?$pair@V?$_Tree_iterator@V?$_Tree_val@U?$_Tree_simple_types@U?$pair@QAVUnitInterface@BWAPI@@_N@std@@@std@@@std@@@std@@_N@1@_NAAU?$pair@QAVUnitInterface@BWAPI@@_N@1@PAU?$_Tree_node@U?$pair@QAVUnitInterface@BWAPI@@_N@std@@PAX@1@@Z 1007f000 f i Squad.obj
 0001:0007e000       ??$_Insert_nohint@AAU?$pair@QAVUnitInterface@BWAPI@@PAV12@@std@@PAU?$_Tree_node@U?$pair@QAVUnitInterface@BWAPI@@PAV12@@std@@PAX@2@@?$_Tree@V?$_Tmap_traits@PAVUnitInterface@BWAPI@@PAV12@U?$less@PAVUnitInterface@BWAPI@@@std@@V?$allocator@U?$pair@QAVUnitInterface@BWAPI@@PAV12@@std@@@4@$0A@@std@@@std@@IAE?AU?$pair@V?$_Tree_iterator@V?$_Tree_val@U?$_Tree_simple_types@U?$pair@QAVUnitInterface@BWAPI@@PAV12@@std@@@std@@@std@@@std@@_N@1@_NAAU?$pair@QAVUnitInterface@BWAPI@@PAV12@@1@PAU?$_Tree_node@U?$pair@QAVUnitInterface@BWAPI@@PAV12@@std@@PAX@1@@Z 1007f000 f i WorkerData.obj
 0001:0007e000       ??$_Insert_nohint@AAU?$pair@QAVUnitInterface@BWAPI@@W4WorkerJob@WorkerData@UAlbertaBot@@@std@@PAU?$_Tree_node@U?$pair@QAVUnitInterface@BWAPI@@W4WorkerJob@WorkerData@UAlbertaBot@@@std@@PAX@2@@?$_Tree@V?$_Tmap_traits@PAVUnitInterface@BWAPI@@W4WorkerJob@WorkerData@UAlbertaBot@@U?$less@PAVUnitInterface@BWAPI@@@std@@V?$allocator@U?$pair@QAVUnitInterface@BWAPI@@W4WorkerJob@WorkerData@UAlbertaBot@@@std@@@7@$0A@@std@@@std@@IAE?AU?$pair@V?$_Tree_iterator@V?$_Tree_val@U?$_Tree_simple_types@U?$pair@QAVUnitInterface@BWAPI@@W4WorkerJob@WorkerData@UAlbertaBot@@@std@@@std@@@std@@@std@@_N@1@_NAAU?$pair@QAVUnitInterface@BWAPI@@W4WorkerJob@WorkerData@UAlbertaBot@@@1@PAU?$_Tree_node@U?$pair@QAVUnitInterface@BWAPI@@W4WorkerJob@WorkerData@UAlbertaBot@@@std@@PAX@1@@Z 1007f000 f i WorkerData.obj
 0001:0007e170       ?removeSquad@SquadData@UAlbertaBot@@QAEXABV?$basic_string@DU?$char_traits@D@std@@V?$allocator@D@2@@std@@@Z 1007f170 f   SquadData.obj
 0001:0007e240       ?squadExists@SquadData@UAlbertaBot@@QAE_NABV?$basic_string@DU?$char_traits@D@std@@V?$allocator@D@2@@std@@@Z 1007f240 f   SquadData.obj
 0001:0007e2a0       ?createSquad@SquadData@UAlbertaBot@@QAEAAVSquad@2@ABV?$basic_string@DU?$char_traits@D@std@@V?$allocator@D@2@@std@@I@Z 1007f2a0 f   SquadData.obj
 0001:0007e340       ?getUnitSquad@SquadData@UAlbertaBot@@QBEPBVSquad@2@PAVUnitInterface@BWAPI@@@Z 1007f340 f   SquadData.obj
 0001:0007e3c0       ?assignUnitToSquad@SquadData@UAlbertaBot@@QAEXPAVUnitInterface@BWAPI@@AAVSquad@2@@Z 1007f3c0 f   SquadData.obj
 0001:0007e4b0       ?canAssignUnitToSquad@SquadData@UAlbertaBot@@QBE_NPAVUnitInterface@BWAPI@@ABVSquad@2@@Z 1007f4b0 f   SquadData.obj
 0001:0007e4e0       ?getSquad@SquadData@UAlbertaBot@@QAEAAVSquad@2@ABV?$basic_string@DU?$char_traits@D@std@@V?$allocator@D@2@@std@@@Z 1007f4e0 f   SquadData.obj
 0001:0007e5a0       ?erase@?$_Tree@V?$_Tmap_traits@V?$basic_string@DU?$char_traits@D@std@@V?$allocator@D@2@@std@@VSquad@UAlbertaBot@@U?$less@V?$basic_string@DU?$char_traits@D@std@@V?$allocator@D@2@@std@@@2@V?$allocator@U?$pair@$$CBV?$basic_string@DU?$char_traits@D@std@@V?$allocator@D@2@@std@@VSquad@UAlbertaBot@@@std@@@2@$0A@@std@@@std@@QAEIABV?$basic_string@DU?$char_traits@D@std@@V?$allocator@D@2@@2@@Z 1007f5a0 f i SquadData.obj
 0001:0007e6d0       ?_Buyheadnode@?$_Tree_comp_alloc@V?$_Tmap_traits@V?$basic_string@DU?$char_traits@D@std@@V?$allocator@D@2@@std@@VSquad@UAlbertaBot@@U?$less@V?$basic_string@DU?$char_traits@D@std@@V?$allocator@D@2@@std@@@2@V?$allocator@U?$pair@$$CBV?$basic_string@DU?$char_traits@D@std@@V?$allocator@D@2@@std@@VSquad@UAlbertaBot@@@std@@@2@$0A@@std@@@std@@QAEPAU?$_Tree_node@U?$pair@$$CBV?$basic_string@DU?$char_traits@D@std@@V?$allocator@D@2@@std@@VSquad@UAlbertaBot@@@std@@PAX@2@XZ 1007f6d0 f i SquadData.obj
 0001:0007e6f0       ??$_Buynode@ABV?$basic_string@DU?$char_traits@D@std@@V?$allocator@D@2@@std@@VSquad@UAlbertaBot@@@?$_Tree_comp_alloc@V?$_Tmap_traits@V?$basic_string@DU?$char_traits@D@std@@V?$allocator@D@2@@std@@VSquad@UAlbertaBot@@U?$less@V?$basic_string@DU?$char_traits@D@std@@V?$allocator@D@2@@std@@@2@V?$allocator@U?$pair@$$CBV?$basic_string@DU?$char_traits@D@std@@V?$allocator@D@2@@std@@VSquad@UAlbertaBot@@@std@@@2@$0A@@std@@@std@@QAEPAU?$_Tree_node@U?$pair@$$CBV?$basic_string@DU?$char_traits@D@std@@V?$allocator@D@2@@std@@VSquad@UAlbertaBot@@@std@@PAX@1@ABV?$basic_string@DU?$char_traits@D@std@@V?$allocator@D@2@@1@$$QAVSquad@UAlbertaBot@@@Z 1007f6f0 f i SquadData.obj
 0001:0007e780       ??$_Insert_nohint@AAU?$pair@$$CBV?$basic_string@DU?$char_traits@D@std@@V?$allocator@D@2@@std@@VSquad@UAlbertaBot@@@std@@PAU?$_Tree_node@U?$pair@$$CBV?$basic_string@DU?$char_traits@D@std@@V?$allocator@D@2@@std@@VSquad@UAlbertaBot@@@std@@PAX@2@@?$_Tree@V?$_Tmap_traits@V?$basic_string@DU?$char_traits@D@std@@V?$allocator@D@2@@std@@VSquad@UAlbertaBot@@U?$less@V?$basic_string@DU?$char_traits@D@std@@V?$allocator@D@2@@std@@@2@V?$allocator@U?$pair@$$CBV?$basic_string@DU?$char_traits@D@std@@V?$allocator@D@2@@std@@VSquad@UAlbertaBot@@@std@@@2@$0A@@std@@@std@@IAE?AU?$pair@V?$_Tree_iterator@V?$_Tree_val@U?$_Tree_simple_types@U?$pair@$$CBV?$basic_string@DU?$char_traits@D@std@@V?$allocator@D@2@@std@@VSquad@UAlbertaBot@@@std@@@std@@@std@@@std@@_N@1@_NAAU?$pair@$$CBV?$basic_string@DU?$char_traits@D@std@@V?$allocator@D@2@@std@@VSquad@UAlbertaBot@@@1@PAU?$_Tree_node@U?$pair@$$CBV?$basic_string@DU?$char_traits@D@std@@V?$allocator@D@2@@std@@VSquad@UAlbertaBot@@@std@@PAX@1@@Z 1007f780 f i SquadData.obj
 0001:0007e930       ?_Freenode0@?$_Tree_comp_alloc@V?$_Tmap_traits@V?$basic_string@DU?$char_traits@D@std@@V?$allocator@D@2@@std@@VSquad@UAlbertaBot@@U?$less@V?$basic_string@DU?$char_traits@D@std@@V?$allocator@D@2@@std@@@2@V?$allocator@U?$pair@$$CBV?$basic_string@DU?$char_traits@D@std@@V?$allocator@D@2@@std@@VSquad@UAlbertaBot@@@std@@@2@$0A@@std@@@std@@QAEXPAU?$_Tree_node@U?$pair@$$CBV?$basic_string@DU?$char_traits@D@std@@V?$allocator@D@2@@std@@VSquad@UAlbertaBot@@@std@@PAX@2@@Z 1007f930 f i SquadData.obj
 0001:0007e950       ?_Buynode0@?$_Tree_comp_alloc@V?$_Tmap_traits@V?$basic_string@DU?$char_traits@D@std@@V?$allocator@D@2@@std@@VSquad@UAlbertaBot@@U?$less@V?$basic_string@DU?$char_traits@D@std@@V?$allocator@D@2@@std@@@2@V?$allocator@U?$pair@$$CBV?$basic_string@DU?$char_traits@D@std@@V?$allocator@D@2@@std@@VSquad@UAlbertaBot@@@std@@@2@$0A@@std@@@std@@QAEPAU?$_Tree_node@U?$pair@$$CBV?$basic_string@DU?$char_traits@D@std@@V?$allocator@D@2@@std@@VSquad@UAlbertaBot@@@std@@PAX@2@XZ 1007f950 f i SquadData.obj
 0001:0007e970       ?_Destroy_if_node@?$_Tree@V?$_Tmap_traits@V?$basic_string@DU?$char_traits@D@std@@V?$allocator@D@2@@std@@VSquad@UAlbertaBot@@U?$less@V?$basic_string@DU?$char_traits@D@std@@V?$allocator@D@2@@std@@@2@V?$allocator@U?$pair@$$CBV?$basic_string@DU?$char_traits@D@std@@V?$allocator@D@2@@std@@VSquad@UAlbertaBot@@@std@@@2@$0A@@std@@@std@@IAEXPAU?$_Tree_node@U?$pair@$$CBV?$basic_string@DU?$char_traits@D@std@@V?$allocator@D@2@@std@@VSquad@UAlbertaBot@@@std@@PAX@2@@Z 1007f970 f i SquadData.obj
 0001:0007e9a0       ??$_Insert_at@AAU?$pair@$$CBV?$basic_string@DU?$char_traits@D@std@@V?$allocator@D@2@@std@@VSquad@UAlbertaBot@@@std@@PAU?$_Tree_node@U?$pair@$$CBV?$basic_string@DU?$char_traits@D@std@@V?$allocator@D@2@@std@@VSquad@UAlbertaBot@@@std@@PAX@2@@?$_Tree@V?$_Tmap_traits@V?$basic_string@DU?$char_traits@D@std@@V?$allocator@D@2@@std@@VSquad@UAlbertaBot@@U?$less@V?$basic_string@DU?$char_traits@D@std@@V?$allocator@D@2@@std@@@2@V?$allocator@U?$pair@$$CBV?$basic_string@DU?$char_traits@D@std@@V?$allocator@D@2@@std@@VSquad@UAlbertaBot@@@std@@@2@$0A@@std@@@std@@IAE?AV?$_Tree_iterator@V?$_Tree_val@U?$_Tree_simple_types@U?$pair@$$CBV?$basic_string@DU?$char_traits@D@std@@V?$allocator@D@2@@std@@VSquad@UAlbertaBot@@@std@@@std@@@std@@@1@_NPAU?$_Tree_node@U?$pair@$$CBV?$basic_string@DU?$char_traits@D@std@@V?$allocator@D@2@@std@@VSquad@UAlbertaBot@@@std@@PAX@1@AAU?$pair@$$CBV?$basic_string@DU?$char_traits@D@std@@V?$allocator@D@2@@std@@VSquad@UAlbertaBot@@@1@1@Z 1007f9a0 f i SquadData.obj
 0001:0007ebd0       ??$_Buynode@ABUpiecewise_construct_t@std@@V?$tuple@ABV?$basic_string@DU?$char_traits@D@std@@V?$allocator@D@2@@std@@@2@V?$tuple@$$V@2@@?$_Tree_comp_alloc@V?$_Tmap_traits@V?$basic_string@DU?$char_traits@D@std@@V?$allocator@D@2@@std@@VSquad@UAlbertaBot@@U?$less@V?$basic_string@DU?$char_traits@D@std@@V?$allocator@D@2@@std@@@2@V?$allocator@U?$pair@$$CBV?$basic_string@DU?$char_traits@D@std@@V?$allocator@D@2@@std@@VSquad@UAlbertaBot@@@std@@@2@$0A@@std@@@std@@QAEPAU?$_Tree_node@U?$pair@$$CBV?$basic_string@DU?$char_traits@D@std@@V?$allocator@D@2@@std@@VSquad@UAlbertaBot@@@std@@PAX@1@ABUpiecewise_construct_t@1@$$QAV?$tuple@ABV?$basic_string@DU?$char_traits@D@std@@V?$allocator@D@2@@std@@@1@$$QAV?$tuple@$$V@1@@Z 1007fbd0 f i SquadData.obj
 0001:0007ec60       ??$_Insert_hint@AAU?$pair@$$CBV?$basic_string@DU?$char_traits@D@std@@V?$allocator@D@2@@std@@VSquad@UAlbertaBot@@@std@@PAU?$_Tree_node@U?$pair@$$CBV?$basic_string@DU?$char_traits@D@std@@V?$allocator@D@2@@std@@VSquad@UAlbertaBot@@@std@@PAX@2@@?$_Tree@V?$_Tmap_traits@V?$basic_string@DU?$char_traits@D@std@@V?$allocator@D@2@@std@@VSquad@UAlbertaBot@@U?$less@V?$basic_string@DU?$char_traits@D@std@@V?$allocator@D@2@@std@@@2@V?$allocator@U?$pair@$$CBV?$basic_string@DU?$char_traits@D@std@@V?$allocator@D@2@@std@@VSquad@UAlbertaBot@@@std@@@2@$0A@@std@@@std@@IAE?AV?$_Tree_iterator@V?$_Tree_val@U?$_Tree_simple_types@U?$pair@$$CBV?$basic_string@DU?$char_traits@D@std@@V?$allocator@D@2@@std@@VSquad@UAlbertaBot@@@std@@@std@@@std@@@1@V?$_Tree_const_iterator@V?$_Tree_val@U?$_Tree_simple_types@U?$pair@$$CBV?$basic_string@DU?$char_traits@D@std@@V?$allocator@D@2@@std@@VSquad@UAlbertaBot@@@std@@@std@@@std@@@1@AAU?$pair@$$CBV?$basic_string@DU?$char_traits@D@std@@V?$allocator@D@2@@std@@VSquad@UAlbertaBot@@@1@PAU?$_Tree_node@U?$pair@$$CBV?$basic_string@DU?$char_traits@D@std@@V?$allocator@D@2@@std@@VSquad@UAlbertaBot@@@std@@PAX@1@@Z 1007fc60 f i SquadData.obj
 0001:0007efb0       ??0Squad@UAlbertaBot@@QAE@ABV01@@Z 1007ffb0 f i SquadData.obj
 0001:0007f3f0       ??0MicroManager@UAlbertaBot@@QAE@ABV01@@Z 100803f0 f i SquadData.obj
 0001:0007f4b0       ??0?$vector@V?$Point@H$0CA@@BWAPI@@V?$allocator@V?$Point@H$0CA@@BWAPI@@@std@@@std@@QAE@ABV01@@Z 100804b0 f i SquadOrder.obj
 0001:0007f4b0       ??0?$vector@V?$Point@H$00@BWAPI@@V?$allocator@V?$Point@H$00@BWAPI@@@std@@@std@@QAE@ABV01@@Z 100804b0 f i SquadData.obj
 0001:0007f580       ??0?$vector@VUnitCluster@UAlbertaBot@@V?$allocator@VUnitCluster@UAlbertaBot@@@std@@@std@@QAE@ABV01@@Z 10080580 f i SquadData.obj
 0001:0007f690       ??$?0V?$allocator@U?$_Tree_node@U?$pair@QAVUnitInterface@BWAPI@@_N@std@@PAX@std@@@std@@@?$_Tree@V?$_Tmap_traits@PAVUnitInterface@BWAPI@@_NU?$less@PAVUnitInterface@BWAPI@@@std@@V?$allocator@U?$pair@QAVUnitInterface@BWAPI@@_N@std@@@4@$0A@@std@@@std@@QAE@ABV01@$$QAV?$allocator@U?$_Tree_node@U?$pair@QAVUnitInterface@BWAPI@@_N@std@@PAX@std@@@1@@Z 10080690 f i SquadData.obj
 0001:0007f770       ??$?0V?$allocator@U?$_Tree_node@U?$pair@QAVUnitInterface@BWAPI@@V?$Point@H$0CA@@2@@std@@PAX@std@@@std@@@?$_Tree@V?$_Tmap_traits@PAVUnitInterface@BWAPI@@V?$Point@H$0CA@@2@U?$less@PAVUnitInterface@BWAPI@@@std@@V?$allocator@U?$pair@QAVUnitInterface@BWAPI@@V?$Point@H$0CA@@2@@std@@@5@$0A@@std@@@std@@QAE@ABV01@$$QAV?$allocator@U?$_Tree_node@U?$pair@QAVUnitInterface@BWAPI@@V?$Point@H$0CA@@2@@std@@PAX@std@@@1@@Z 10080770 f i SquadData.obj
 0001:0007f850       ??$?0V?$allocator@U?$_Tree_node@U?$pair@QAVUnitInterface@BWAPI@@VCasterState@UAlbertaBot@@@std@@PAX@std@@@std@@@?$_Tree@V?$_Tmap_traits@PAVUnitInterface@BWAPI@@VCasterState@UAlbertaBot@@U?$less@PAVUnitInterface@BWAPI@@@std@@V?$allocator@U?$pair@QAVUnitInterface@BWAPI@@VCasterState@UAlbertaBot@@@std@@@6@$0A@@std@@@std@@QAE@ABV01@$$QAV?$allocator@U?$_Tree_node@U?$pair@QAVUnitInterface@BWAPI@@VCasterState@UAlbertaBot@@@std@@PAX@std@@@1@@Z 10080850 f i SquadData.obj
 0001:0007f930       ??$_Copy_nodes@U_Copy_tag@?$_Tree@V?$_Tmap_traits@PAVUnitInterface@BWAPI@@V?$Point@H$0CA@@2@U?$less@PAVUnitInterface@BWAPI@@@std@@V?$allocator@U?$pair@QAVUnitInterface@BWAPI@@V?$Point@H$0CA@@2@@std@@@5@$0A@@std@@@std@@@?$_Tree@V?$_Tmap_traits@PAVUnitInterface@BWAPI@@V?$Point@H$0CA@@2@U?$less@PAVUnitInterface@BWAPI@@@std@@V?$allocator@U?$pair@QAVUnitInterface@BWAPI@@V?$Point@H$0CA@@2@@std@@@5@$0A@@std@@@std@@IAEPAU?$_Tree_node@U?$pair@QAVUnitInterface@BWAPI@@V?$Point@H$0CA@@2@@std@@PAX@1@PAU21@0U_Copy_tag@01@@Z 10080930 f i SquadData.obj
 0001:0007f9f0       ??$_Copy_nodes@U_Copy_tag@?$_Tree@V?$_Tmap_traits@PAVUnitInterface@BWAPI@@VCasterState@UAlbertaBot@@U?$less@PAVUnitInterface@BWAPI@@@std@@V?$allocator@U?$pair@QAVUnitInterface@BWAPI@@VCasterState@UAlbertaBot@@@std@@@6@$0A@@std@@@std@@@?$_Tree@V?$_Tmap_traits@PAVUnitInterface@BWAPI@@VCasterState@UAlbertaBot@@U?$less@PAVUnitInterface@BWAPI@@@std@@V?$allocator@U?$pair@QAVUnitInterface@BWAPI@@VCasterState@UAlbertaBot@@@std@@@6@$0A@@std@@@std@@IAEPAU?$_Tree_node@U?$pair@QAVUnitInterface@BWAPI@@VCasterState@UAlbertaBot@@@std@@PAX@1@PAU21@0U_Copy_tag@01@@Z 100809f0 f i SquadData.obj
 0001:0007fab0       ??$_Buynode@AAU?$pair@QAVUnitInterface@BWAPI@@V?$Point@H$0CA@@2@@std@@@?$_Tree_comp_alloc@V?$_Tmap_traits@PAVUnitInterface@BWAPI@@V?$Point@H$0CA@@2@U?$less@PAVUnitInterface@BWAPI@@@std@@V?$allocator@U?$pair@QAVUnitInterface@BWAPI@@V?$Point@H$0CA@@2@@std@@@5@$0A@@std@@@std@@QAEPAU?$_Tree_node@U?$pair@QAVUnitInterface@BWAPI@@V?$Point@H$0CA@@2@@std@@PAX@1@AAU?$pair@QAVUnitInterface@BWAPI@@V?$Point@H$0CA@@2@@1@@Z 10080ab0 f i SquadData.obj
 0001:0007fae0       ??$_Buynode@AAU?$pair@QAVUnitInterface@BWAPI@@VCasterState@UAlbertaBot@@@std@@@?$_Tree_comp_alloc@V?$_Tmap_traits@PAVUnitInterface@BWAPI@@VCasterState@UAlbertaBot@@U?$less@PAVUnitInterface@BWAPI@@@std@@V?$allocator@U?$pair@QAVUnitInterface@BWAPI@@VCasterState@UAlbertaBot@@@std@@@6@$0A@@std@@@std@@QAEPAU?$_Tree_node@U?$pair@QAVUnitInterface@BWAPI@@VCasterState@UAlbertaBot@@@std@@PAX@1@AAU?$pair@QAVUnitInterface@BWAPI@@VCasterState@UAlbertaBot@@@1@@Z 10080ae0 f i SquadData.obj
 0001:0007fb00       ??0GridDistances@UAlbertaBot@@QAE@ABV01@@Z 10080b00 f i SquadOrder.obj
 0001:0007fb80       ??4SquadOrder@UAlbertaBot@@QAEAAV01@$$QAV01@@Z 10080b80 f   SquadOrder.obj
 0001:0007fc20       ??0SquadOrder@UAlbertaBot@@QAE@W4SquadOrderTypes@1@V?$Point@H$00@BWAPI@@H_NABV?$basic_string@DU?$char_traits@D@std@@V?$allocator@D@2@@std@@@Z 10080c20 f   SquadOrder.obj
 0001:0007fd10       ??0SquadOrder@UAlbertaBot@@QAE@W4SquadOrderTypes@1@PAVBase@1@H_NABV?$basic_string@DU?$char_traits@D@std@@V?$allocator@D@2@@std@@@Z 10080d10 f   SquadOrder.obj
 0001:0007fdd0       ??1SquadOrder@UAlbertaBot@@QAE@XZ 10080dd0 f   SquadOrder.obj
 0001:0007fe90       ??0?$vector@V?$vector@FV?$allocator@F@std@@@std@@V?$allocator@V?$vector@FV?$allocator@F@std@@@std@@@2@@std@@QAE@ABV01@@Z 10080e90 f i SquadOrder.obj
 0001:0007ff60       ??1?$map@V?$basic_string@DU?$char_traits@D@std@@V?$allocator@D@2@@std@@UStrategy@UAlbertaBot@@U?$less@V?$basic_string@DU?$char_traits@D@std@@V?$allocator@D@2@@std@@@2@V?$allocator@U?$pair@$$CBV?$basic_string@DU?$char_traits@D@std@@V?$allocator@D@2@@std@@UStrategy@UAlbertaBot@@@std@@@2@@std@@QAE@XZ 10080f60 f i StrategyManager.obj
 0001:0007ff90       ?Instance@StrategyManager@UAlbertaBot@@SAAAV12@XZ 10080f90 f   StrategyManager.obj
 0001:00080110       ?performBuildOrderSearch@StrategyManager@UAlbertaBot@@AAEXXZ 10081110 f   StrategyManager.obj
 0001:00080360       ?erase@?$_Tree@V?$_Tmap_traits@V?$basic_string@DU?$char_traits@D@std@@V?$allocator@D@2@@std@@UStrategy@UAlbertaBot@@U?$less@V?$basic_string@DU?$char_traits@D@std@@V?$allocator@D@2@@std@@@2@V?$allocator@U?$pair@$$CBV?$basic_string@DU?$char_traits@D@std@@V?$allocator@D@2@@std@@UStrategy@UAlbertaBot@@@std@@@2@$0A@@std@@@std@@QAE?AV?$_Tree_iterator@V?$_Tree_val@U?$_Tree_simple_types@U?$pair@$$CBV?$basic_string@DU?$char_traits@D@std@@V?$allocator@D@2@@std@@UStrategy@UAlbertaBot@@@std@@@std@@@std@@@2@V?$_Tree_const_iterator@V?$_Tree_val@U?$_Tree_simple_types@U?$pair@$$CBV?$basic_string@DU?$char_traits@D@std@@V?$allocator@D@2@@std@@UStrategy@UAlbertaBot@@@std@@@std@@@std@@@2@0@Z 10081360 f i StrategyManager.obj
 0001:00080500       ?_Buyheadnode@?$_Tree_comp_alloc@V?$_Tmap_traits@V?$basic_string@DU?$char_traits@D@std@@V?$allocator@D@2@@std@@UStrategy@UAlbertaBot@@U?$less@V?$basic_string@DU?$char_traits@D@std@@V?$allocator@D@2@@std@@@2@V?$allocator@U?$pair@$$CBV?$basic_string@DU?$char_traits@D@std@@V?$allocator@D@2@@std@@UStrategy@UAlbertaBot@@@std@@@2@$0A@@std@@@std@@QAEPAU?$_Tree_node@U?$pair@$$CBV?$basic_string@DU?$char_traits@D@std@@V?$allocator@D@2@@std@@UStrategy@UAlbertaBot@@@std@@PAX@2@XZ 10081500 f i StrategyManager.obj
 0001:00080520       ?_Erase@?$_Tree@V?$_Tmap_traits@V?$basic_string@DU?$char_traits@D@std@@V?$allocator@D@2@@std@@UStrategy@UAlbertaBot@@U?$less@V?$basic_string@DU?$char_traits@D@std@@V?$allocator@D@2@@std@@@2@V?$allocator@U?$pair@$$CBV?$basic_string@DU?$char_traits@D@std@@V?$allocator@D@2@@std@@UStrategy@UAlbertaBot@@@std@@@2@$0A@@std@@@std@@IAEXPAU?$_Tree_node@U?$pair@$$CBV?$basic_string@DU?$char_traits@D@std@@V?$allocator@D@2@@std@@UStrategy@UAlbertaBot@@@std@@PAX@2@@Z 10081520 f i StrategyManager.obj
 0001:000805b0       ??1Strategy@UAlbertaBot@@QAE@XZ 100815b0 f i StrategyManager.obj
 0001:00080650       ?format@Strutil@@YA?AV?$basic_string@DU?$char_traits@D@std@@V?$allocator@D@2@@std@@PBDZZ 10081650 f   stringformat.obj
 0001:00080780       ??$_Resize@V<lambda_c82d6fc6887df3275822341e5972f698>@@@?$vector@DV?$allocator@D@std@@@std@@AAEXIV<lambda_c82d6fc6887df3275822341e5972f698>@@@Z 10081780 f i stringformat.obj
 0001:000808a0       ??0The@UAlbertaBot@@QAE@XZ 100818a0 f   The.obj
 0001:00080e50       ?initialize@The@UAlbertaBot@@QAEXXZ 10081e50 f   The.obj
 0001:00081150       ?attacks@The@UAlbertaBot@@QBEHPAVUnitInterface@BWAPI@@@Z 10082150 f   The.obj
 0001:000811e0       ?update@The@UAlbertaBot@@QAEXXZ 100821e0 f   The.obj
 0001:000813e0       ??0TimerManager@UAlbertaBot@@QAE@XZ 100823e0 f   TimerManager.obj
 0001:00081b70       ??0?$vector@VTimer@BOSS@@V?$allocator@VTimer@BOSS@@@std@@@std@@QAE@IABV?$allocator@VTimer@BOSS@@@1@@Z 10082b70 f i TimerManager.obj
 0001:00081c00       ?ReportFailure@Assert@UAlbertaBot@@YAXPBDH0ZZ 10082c00 f   UABAssert.obj
 0001:00082030       ??_GUAlbertaBotModule@UAlbertaBot@@UAEPAXI@Z 10083030 f i UAlbertaBotModule.obj
 0001:00082030       ??_EUAlbertaBotModule@UAlbertaBot@@UAEPAXI@Z 10083030 f i * CIL library *:* CIL module *
 0001:00082060       ?onStart@UAlbertaBotModule@UAlbertaBot@@UAEXXZ 10083060 f   UAlbertaBotModule.obj
 0001:00082240       ?onEnd@UAlbertaBotModule@UAlbertaBot@@UAEX_N@Z 10083240 f   UAlbertaBotModule.obj
 0001:00082380       ?onFrame@UAlbertaBotModule@UAlbertaBot@@UAEXXZ 10083380 f   UAlbertaBotModule.obj
 0001:00082580       ?onUnitDestroy@UAlbertaBotModule@UAlbertaBot@@UAEXPAVUnitInterface@BWAPI@@@Z 10083580 f   UAlbertaBotModule.obj
 0001:000826e0       ?onUnitMorph@UAlbertaBotModule@UAlbertaBot@@UAEXPAVUnitInterface@BWAPI@@@Z 100836e0 f   UAlbertaBotModule.obj
 0001:00082800       ?onSendText@UAlbertaBotModule@UAlbertaBot@@UAEXV?$basic_string@DU?$char_traits@D@std@@V?$allocator@D@2@@std@@@Z 10083800 f   UAlbertaBotModule.obj
 0001:00082880       ?onUnitCreate@UAlbertaBotModule@UAlbertaBot@@UAEXPAVUnitInterface@BWAPI@@@Z 10083880 f   UAlbertaBotModule.obj
 0001:00082880       ?onUnitHide@UAlbertaBotModule@UAlbertaBot@@UAEXPAVUnitInterface@BWAPI@@@Z 10083880 f   UAlbertaBotModule.obj
 0001:000828e0       ?onUnitComplete@UAlbertaBotModule@UAlbertaBot@@UAEXPAVUnitInterface@BWAPI@@@Z 100838e0 f   UAlbertaBotModule.obj
 0001:00082a20       ?onUnitShow@UAlbertaBotModule@UAlbertaBot@@UAEXPAVUnitInterface@BWAPI@@@Z 10083a20 f   UAlbertaBotModule.obj
 0001:00082b00       ?onUnitDiscover@UAlbertaBotModule@UAlbertaBot@@UAEXPAVUnitInterface@BWAPI@@@Z 10083b00 f   UAlbertaBotModule.obj
 0001:00082b30       ?onUnitRenegade@UAlbertaBotModule@UAlbertaBot@@UAEXPAVUnitInterface@BWAPI@@@Z 10083b30 f   UAlbertaBotModule.obj
 0001:00082be0       ??0UnitInfo@UAlbertaBot@@QAE@PAVUnitInterface@BWAPI@@@Z 10083be0 f   UnitData.obj
 0001:00082cd0       ?estimateHP@UnitInfo@UAlbertaBot@@QBEHXZ 10083cd0 f   UnitData.obj
 0001:00082d60       ?estimateShields@UnitInfo@UAlbertaBot@@QBEHXZ 10083d60 f   UnitData.obj
 0001:00082df0       ?predictCompletion@UnitInfo@UAlbertaBot@@QBEHXZ 10083df0 f   UnitData.obj
 0001:00082f40       ??0UnitData@UAlbertaBot@@QAE@XZ 10083f40 f   UnitData.obj
 0001:000830b0       ?updateUnit@UnitData@UAlbertaBot@@QAEXPAVUnitInterface@BWAPI@@@Z 100840b0 f   UnitData.obj
 0001:00083340       ?removeBadUnits@UnitData@UAlbertaBot@@QAEXXZ 10084340 f   UnitData.obj
 0001:00083440       ??A?$map@PAVUnitInterface@BWAPI@@UUnitInfo@UAlbertaBot@@U?$less@PAVUnitInterface@BWAPI@@@std@@V?$allocator@U?$pair@QAVUnitInterface@BWAPI@@UUnitInfo@UAlbertaBot@@@std@@@6@@std@@QAEAAUUnitInfo@UAlbertaBot@@ABQAVUnitInterface@BWAPI@@@Z 10084440 f i UnitData.obj
 0001:000834b0       ?_Buyheadnode@?$_Tree_comp_alloc@V?$_Tmap_traits@PAVUnitInterface@BWAPI@@UUnitInfo@UAlbertaBot@@U?$less@PAVUnitInterface@BWAPI@@@std@@V?$allocator@U?$pair@QAVUnitInterface@BWAPI@@UUnitInfo@UAlbertaBot@@@std@@@6@$0A@@std@@@std@@QAEPAU?$_Tree_node@U?$pair@QAVUnitInterface@BWAPI@@UUnitInfo@UAlbertaBot@@@std@@PAX@2@XZ 100844b0 f i UnitData.obj
 0001:000834d0       ??$_Buynode@ABUpiecewise_construct_t@std@@V?$tuple@ABQAVUnitInterface@BWAPI@@@2@V?$tuple@$$V@2@@?$_Tree_comp_alloc@V?$_Tmap_traits@PAVUnitInterface@BWAPI@@UUnitInfo@UAlbertaBot@@U?$less@PAVUnitInterface@BWAPI@@@std@@V?$allocator@U?$pair@QAVUnitInterface@BWAPI@@UUnitInfo@UAlbertaBot@@@std@@@6@$0A@@std@@@std@@QAEPAU?$_Tree_node@U?$pair@QAVUnitInterface@BWAPI@@UUnitInfo@UAlbertaBot@@@std@@PAX@1@ABUpiecewise_construct_t@1@$$QAV?$tuple@ABQAVUnitInterface@BWAPI@@@1@$$QAV?$tuple@$$V@1@@Z 100844d0 f i UnitData.obj
 0001:00083550       ??$_Insert_hint@AAU?$pair@QAVUnitInterface@BWAPI@@UUnitInfo@UAlbertaBot@@@std@@PAU?$_Tree_node@U?$pair@QAVUnitInterface@BWAPI@@UUnitInfo@UAlbertaBot@@@std@@PAX@2@@?$_Tree@V?$_Tmap_traits@PAVUnitInterface@BWAPI@@UUnitInfo@UAlbertaBot@@U?$less@PAVUnitInterface@BWAPI@@@std@@V?$allocator@U?$pair@QAVUnitInterface@BWAPI@@UUnitInfo@UAlbertaBot@@@std@@@6@$0A@@std@@@std@@IAE?AV?$_Tree_iterator@V?$_Tree_val@U?$_Tree_simple_types@U?$pair@QAVUnitInterface@BWAPI@@UUnitInfo@UAlbertaBot@@@std@@@std@@@std@@@1@V?$_Tree_const_iterator@V?$_Tree_val@U?$_Tree_simple_types@U?$pair@QAVUnitInterface@BWAPI@@UUnitInfo@UAlbertaBot@@@std@@@std@@@std@@@1@AAU?$pair@QAVUnitInterface@BWAPI@@UUnitInfo@UAlbertaBot@@@1@PAU?$_Tree_node@U?$pair@QAVUnitInterface@BWAPI@@UUnitInfo@UAlbertaBot@@@std@@PAX@1@@Z 10084550 f i UnitData.obj
 0001:000837b0       ?_Buynode0@?$_Tree_comp_alloc@V?$_Tmap_traits@PAVUnitInterface@BWAPI@@UUnitInfo@UAlbertaBot@@U?$less@PAVUnitInterface@BWAPI@@@std@@V?$allocator@U?$pair@QAVUnitInterface@BWAPI@@UUnitInfo@UAlbertaBot@@@std@@@6@$0A@@std@@@std@@QAEPAU?$_Tree_node@U?$pair@QAVUnitInterface@BWAPI@@UUnitInfo@UAlbertaBot@@@std@@PAX@2@XZ 100847b0 f i UnitData.obj
 0001:000837d0       ?_Destroy_if_node@?$_Tree@V?$_Tmap_traits@PAVUnitInterface@BWAPI@@UUnitInfo@UAlbertaBot@@U?$less@PAVUnitInterface@BWAPI@@@std@@V?$allocator@U?$pair@QAVUnitInterface@BWAPI@@UUnitInfo@UAlbertaBot@@@std@@@6@$0A@@std@@@std@@IAEXPAU?$_Tree_node@U?$pair@QAVUnitInterface@BWAPI@@UUnitInfo@UAlbertaBot@@@std@@PAX@2@@Z 100847d0 f i UnitData.obj
 0001:000837f0       ??$_Insert_at@AAU?$pair@QAVUnitInterface@BWAPI@@UUnitInfo@UAlbertaBot@@@std@@PAU?$_Tree_node@U?$pair@QAVUnitInterface@BWAPI@@UUnitInfo@UAlbertaBot@@@std@@PAX@2@@?$_Tree@V?$_Tmap_traits@PAVUnitInterface@BWAPI@@UUnitInfo@UAlbertaBot@@U?$less@PAVUnitInterface@BWAPI@@@std@@V?$allocator@U?$pair@QAVUnitInterface@BWAPI@@UUnitInfo@UAlbertaBot@@@std@@@6@$0A@@std@@@std@@IAE?AV?$_Tree_iterator@V?$_Tree_val@U?$_Tree_simple_types@U?$pair@QAVUnitInterface@BWAPI@@UUnitInfo@UAlbertaBot@@@std@@@std@@@std@@@1@_NPAU?$_Tree_node@U?$pair@QAVUnitInterface@BWAPI@@UUnitInfo@UAlbertaBot@@@std@@PAX@1@AAU?$pair@QAVUnitInterface@BWAPI@@UUnitInfo@UAlbertaBot@@@1@1@Z 100847f0 f i UnitData.obj
 0001:00083a20       ??$_Insert_nohint@AAU?$pair@QAVUnitInterface@BWAPI@@UUnitInfo@UAlbertaBot@@@std@@PAU?$_Tree_node@U?$pair@QAVUnitInterface@BWAPI@@UUnitInfo@UAlbertaBot@@@std@@PAX@2@@?$_Tree@V?$_Tmap_traits@PAVUnitInterface@BWAPI@@UUnitInfo@UAlbertaBot@@U?$less@PAVUnitInterface@BWAPI@@@std@@V?$allocator@U?$pair@QAVUnitInterface@BWAPI@@UUnitInfo@UAlbertaBot@@@std@@@6@$0A@@std@@@std@@IAE?AU?$pair@V?$_Tree_iterator@V?$_Tree_val@U?$_Tree_simple_types@U?$pair@QAVUnitInterface@BWAPI@@UUnitInfo@UAlbertaBot@@@std@@@std@@@std@@@std@@_N@1@_NAAU?$pair@QAVUnitInterface@BWAPI@@UUnitInfo@UAlbertaBot@@@1@PAU?$_Tree_node@U?$pair@QAVUnitInterface@BWAPI@@UUnitInfo@UAlbertaBot@@@std@@PAX@1@@Z 10084a20 f i UnitData.obj
 0001:00083b90       ?IsMorphedBuildingType@UnitUtil@UAlbertaBot@@YA_NVUnitType@BWAPI@@@Z 10084b90 f   UnitUtil.obj
 0001:00083bd0       ?IsCompletedResourceDepot@UnitUtil@UAlbertaBot@@YA_NPAVUnitInterface@BWAPI@@@Z 10084bd0 f   UnitUtil.obj
 0001:00083c40       ?IsStaticDefense@UnitUtil@UAlbertaBot@@YA_NVUnitType@BWAPI@@@Z 10084c40 f   UnitUtil.obj
 0001:00083c80       ?IsCombatSimUnit@UnitUtil@UAlbertaBot@@YA_NABUUnitInfo@2@@Z 10084c80 f   UnitUtil.obj
 0001:00083d10       ?IsCombatSimUnit@UnitUtil@UAlbertaBot@@YA_NPAVUnitInterface@BWAPI@@@Z 10084d10 f   UnitUtil.obj
 0001:00083e50       ?IsValidUnit@UnitUtil@UAlbertaBot@@YA_NPAVUnitInterface@BWAPI@@@Z 10084e50 f   UnitUtil.obj
 0001:00083f20       ?TypeCanAttackAir@UnitUtil@UAlbertaBot@@YA_NVUnitType@BWAPI@@@Z 10084f20 f   UnitUtil.obj
 0001:00083f50       ?TypeCanAttackGround@UnitUtil@UAlbertaBot@@YA_NVUnitType@BWAPI@@@Z 10084f50 f   UnitUtil.obj
 0001:00083f80       ?TypeCanAttack@UnitUtil@UAlbertaBot@@YA_NVUnitType@BWAPI@@@Z 10084f80 f   UnitUtil.obj
 0001:00083fc0       ?GetGroundWeapon@UnitUtil@UAlbertaBot@@YA?AVWeaponType@BWAPI@@VUnitType@4@@Z 10084fc0 f   UnitUtil.obj
 0001:00084000       ?GetAirWeapon@UnitUtil@UAlbertaBot@@YA?AVWeaponType@BWAPI@@VUnitType@4@@Z 10085000 f   UnitUtil.obj
 0001:00084040       ?GetWeapon@UnitUtil@UAlbertaBot@@YA?AVWeaponType@BWAPI@@PAVUnitInterface@4@0@Z 10085040 f   UnitUtil.obj
 0001:00084100       ?GetWeapon@UnitUtil@UAlbertaBot@@YA?AVWeaponType@BWAPI@@VUnitType@4@0@Z 10085100 f   UnitUtil.obj
 0001:00084170       ?GetAttackRange@UnitUtil@UAlbertaBot@@YAHPAVUnitInterface@BWAPI@@0@Z 10085170 f   UnitUtil.obj
 0001:00084270       ?GetAttackRangeAssumingUpgrades@UnitUtil@UAlbertaBot@@YAHVUnitType@BWAPI@@0@Z 10085270 f   UnitUtil.obj
 0001:00084310       ?FramesToReachAttackRange@UnitUtil@UAlbertaBot@@YAHPAVUnitInterface@BWAPI@@0@Z 10085310 f   UnitUtil.obj
 0001:000843b0       ?ExpectedSurvivalTime@UnitUtil@UAlbertaBot@@YAHPAVUnitInterface@BWAPI@@@Z 100853b0 f   UnitUtil.obj
 0001:00084590       ?EnemyDetectorInRange@UnitUtil@UAlbertaBot@@YA_NV?$Point@H$00@BWAPI@@@Z 10085590 f   UnitUtil.obj
 0001:00084760       ?MobilizeUnit@UnitUtil@UAlbertaBot@@YA_NPAVUnitInterface@BWAPI@@@Z 10085760 f   UnitUtil.obj
 0001:00084850       ??0WorkerData@UAlbertaBot@@QAE@XZ 10085850 f   WorkerData.obj
 0001:00084ab0       ??1?$map@PAVUnitInterface@BWAPI@@W4WorkerJob@WorkerData@UAlbertaBot@@U?$less@PAVUnitInterface@BWAPI@@@std@@V?$allocator@U?$pair@QAVUnitInterface@BWAPI@@W4WorkerJob@WorkerData@UAlbertaBot@@@std@@@7@@std@@QAE@XZ 10085ab0 f i WorkerData.obj
 0001:00084ae0       ??1?$map@PAVUnitInterface@BWAPI@@PAV12@U?$less@PAVUnitInterface@BWAPI@@@std@@V?$allocator@U?$pair@QAVUnitInterface@BWAPI@@PAV12@@std@@@4@@std@@QAE@XZ 10085ae0 f i WorkerData.obj
 0001:00084ae0       ??1?$map@PAVUnitInterface@BWAPI@@HU?$less@PAVUnitInterface@BWAPI@@@std@@V?$allocator@U?$pair@QAVUnitInterface@BWAPI@@H@std@@@4@@std@@QAE@XZ 10085ae0 f i WorkerData.obj
 0001:00084b10       ??1?$map@PAVUnitInterface@BWAPI@@VWorkerPost@WorkerData@UAlbertaBot@@U?$less@PAVUnitInterface@BWAPI@@@std@@V?$allocator@U?$pair@QAVUnitInterface@BWAPI@@VWorkerPost@WorkerData@UAlbertaBot@@@std@@@7@@std@@QAE@XZ 10085b10 f i WorkerData.obj
 0001:00084b40       ?addWorker@WorkerData@UAlbertaBot@@QAEXPAVUnitInterface@BWAPI@@@Z 10085b40 f   WorkerData.obj
 0001:00084b90       ?addToMineralPatch@WorkerData@UAlbertaBot@@QAEXPAVUnitInterface@BWAPI@@H@Z 10085b90 f   WorkerData.obj
 0001:00084bf0       ?setWorkerJob@WorkerData@UAlbertaBot@@QAEXPAVUnitInterface@BWAPI@@W4WorkerJob@12@0@Z 10085bf0 f   WorkerData.obj
 0001:00084d80       ?resetWorkerPost@WorkerData@UAlbertaBot@@QAEXPAVUnitInterface@BWAPI@@W4WorkerJob@12@@Z 10085d80 f   WorkerData.obj
 0001:00084e60       ?clearPreviousJob@WorkerData@UAlbertaBot@@AAEXPAVUnitInterface@BWAPI@@@Z 10085e60 f   WorkerData.obj
 0001:00085150       ?getWorkerJob@WorkerData@UAlbertaBot@@QBE?AW4WorkerJob@12@PAVUnitInterface@BWAPI@@@Z 10086150 f   WorkerData.obj
 0001:000851b0       ?depotIsFull@WorkerData@UAlbertaBot@@QAE_NPAVUnitInterface@BWAPI@@@Z 100861b0 f   WorkerData.obj
 0001:00085260       ?getMineralPatchesNearDepot@WorkerData@UAlbertaBot@@QAE?AVUnitset@BWAPI@@PAVUnitInterface@4@@Z 10086260 f   WorkerData.obj
 0001:000853c0       ?getMineralToMine@WorkerData@UAlbertaBot@@AAEPAVUnitInterface@BWAPI@@PAV34@@Z 100863c0 f   WorkerData.obj
 0001:000855c0       ?getWorkerPostPosition@WorkerData@UAlbertaBot@@QAE?AV?$Point@H$00@BWAPI@@PAVUnitInterface@4@@Z 100865c0 f   WorkerData.obj
 0001:00085630       ?getNumAssignedWorkers@WorkerData@UAlbertaBot@@QBEHPAVUnitInterface@BWAPI@@@Z 10086630 f   WorkerData.obj
 0001:00085700       ?getGasWorkers@WorkerData@UAlbertaBot@@QAEXAAV?$set@PAVUnitInterface@BWAPI@@U?$less@PAVUnitInterface@BWAPI@@@std@@V?$allocator@PAVUnitInterface@BWAPI@@@4@@std@@@Z 10086700 f   WorkerData.obj
 0001:00085750       ?drawDepotDebugInfo@WorkerData@UAlbertaBot@@QAEXXZ 10086750 f   WorkerData.obj
 0001:00085a30       ?find@?$_Tree@V?$_Tmap_traits@PAVUnitInterface@BWAPI@@PAV12@U?$less@PAVUnitInterface@BWAPI@@@std@@V?$allocator@U?$pair@QAVUnitInterface@BWAPI@@PAV12@@std@@@4@$0A@@std@@@std@@QAE?AV?$_Tree_iterator@V?$_Tree_val@U?$_Tree_simple_types@U?$pair@QAVUnitInterface@BWAPI@@PAV12@@std@@@std@@@std@@@2@ABQAVUnitInterface@BWAPI@@@Z 10086a30 f i WorkerData.obj
 0001:00085a30       ?find@?$_Tree@V?$_Tmap_traits@PAVUnitInterface@BWAPI@@HU?$less@PAVUnitInterface@BWAPI@@@std@@V?$allocator@U?$pair@QAVUnitInterface@BWAPI@@H@std@@@4@$0A@@std@@@std@@QAE?AV?$_Tree_iterator@V?$_Tree_val@U?$_Tree_simple_types@U?$pair@QAVUnitInterface@BWAPI@@H@std@@@std@@@std@@@2@ABQAVUnitInterface@BWAPI@@@Z 10086a30 f i WorkerData.obj
 0001:00085a80       ??A?$map@PAVUnitInterface@BWAPI@@HU?$less@PAVUnitInterface@BWAPI@@@std@@V?$allocator@U?$pair@QAVUnitInterface@BWAPI@@H@std@@@4@@std@@QAEAAHABQAVUnitInterface@BWAPI@@@Z 10086a80 f i WorkerData.obj
 0001:00085a80       ??A?$map@PAVUnitInterface@BWAPI@@PAV12@U?$less@PAVUnitInterface@BWAPI@@@std@@V?$allocator@U?$pair@QAVUnitInterface@BWAPI@@PAV12@@std@@@4@@std@@QAEAAPAVUnitInterface@BWAPI@@ABQAV23@@Z 10086a80 f i WorkerData.obj
 0001:00085af0       ?erase@?$_Tree@V?$_Tmap_traits@PAVUnitInterface@BWAPI@@PAV12@U?$less@PAVUnitInterface@BWAPI@@@std@@V?$allocator@U?$pair@QAVUnitInterface@BWAPI@@PAV12@@std@@@4@$0A@@std@@@std@@QAEIABQAVUnitInterface@BWAPI@@@Z 10086af0 f i WorkerData.obj
 0001:00085b90       ??A?$map@PAVUnitInterface@BWAPI@@W4WorkerJob@WorkerData@UAlbertaBot@@U?$less@PAVUnitInterface@BWAPI@@@std@@V?$allocator@U?$pair@QAVUnitInterface@BWAPI@@W4WorkerJob@WorkerData@UAlbertaBot@@@std@@@7@@std@@QAEAAW4WorkerJob@WorkerData@UAlbertaBot@@ABQAVUnitInterface@BWAPI@@@Z 10086b90 f i WorkerData.obj
 0001:00085c00       ?erase@?$_Tree@V?$_Tmap_traits@PAVUnitInterface@BWAPI@@HU?$less@PAVUnitInterface@BWAPI@@@std@@V?$allocator@U?$pair@QAVUnitInterface@BWAPI@@H@std@@@4@$0A@@std@@@std@@QAE?AV?$_Tree_iterator@V?$_Tree_val@U?$_Tree_simple_types@U?$pair@QAVUnitInterface@BWAPI@@H@std@@@std@@@std@@@2@V?$_Tree_const_iterator@V?$_Tree_val@U?$_Tree_simple_types@U?$pair@QAVUnitInterface@BWAPI@@H@std@@@std@@@std@@@2@0@Z 10086c00 f i WorkerData.obj
 0001:00085c00       ?erase@?$_Tree@V?$_Tmap_traits@PAVUnitInterface@BWAPI@@PAV12@U?$less@PAVUnitInterface@BWAPI@@@std@@V?$allocator@U?$pair@QAVUnitInterface@BWAPI@@PAV12@@std@@@4@$0A@@std@@@std@@QAE?AV?$_Tree_iterator@V?$_Tree_val@U?$_Tree_simple_types@U?$pair@QAVUnitInterface@BWAPI@@PAV12@@std@@@std@@@std@@@2@V?$_Tree_const_iterator@V?$_Tree_val@U?$_Tree_simple_types@U?$pair@QAVUnitInterface@BWAPI@@PAV12@@std@@@std@@@std@@@2@0@Z 10086c00 f i WorkerData.obj
 0001:00085cf0       ?erase@?$_Tree@V?$_Tmap_traits@PAVUnitInterface@BWAPI@@VWorkerPost@WorkerData@UAlbertaBot@@U?$less@PAVUnitInterface@BWAPI@@@std@@V?$allocator@U?$pair@QAVUnitInterface@BWAPI@@VWorkerPost@WorkerData@UAlbertaBot@@@std@@@7@$0A@@std@@@std@@QAE?AV?$_Tree_iterator@V?$_Tree_val@U?$_Tree_simple_types@U?$pair@QAVUnitInterface@BWAPI@@VWorkerPost@WorkerData@UAlbertaBot@@@std@@@std@@@std@@@2@V?$_Tree_const_iterator@V?$_Tree_val@U?$_Tree_simple_types@U?$pair@QAVUnitInterface@BWAPI@@VWorkerPost@WorkerData@UAlbertaBot@@@std@@@std@@@std@@@2@0@Z 10086cf0 f i WorkerData.obj
 0001:00085e70       ?erase@?$_Tree@V?$_Tmap_traits@PAVUnitInterface@BWAPI@@W4WorkerJob@WorkerData@UAlbertaBot@@U?$less@PAVUnitInterface@BWAPI@@@std@@V?$allocator@U?$pair@QAVUnitInterface@BWAPI@@W4WorkerJob@WorkerData@UAlbertaBot@@@std@@@7@$0A@@std@@@std@@QAE?AV?$_Tree_iterator@V?$_Tree_val@U?$_Tree_simple_types@U?$pair@QAVUnitInterface@BWAPI@@W4WorkerJob@WorkerData@UAlbertaBot@@@std@@@std@@@std@@@2@V?$_Tree_const_iterator@V?$_Tree_val@U?$_Tree_simple_types@U?$pair@QAVUnitInterface@BWAPI@@W4WorkerJob@WorkerData@UAlbertaBot@@@std@@@std@@@std@@@2@0@Z 10086e70 f i WorkerData.obj
 0001:00085ff0       ??$_Insert_hint@AAU?$pair@QAVUnitInterface@BWAPI@@H@std@@PAU?$_Tree_node@U?$pair@QAVUnitInterface@BWAPI@@H@std@@PAX@2@@?$_Tree@V?$_Tmap_traits@PAVUnitInterface@BWAPI@@HU?$less@PAVUnitInterface@BWAPI@@@std@@V?$allocator@U?$pair@QAVUnitInterface@BWAPI@@H@std@@@4@$0A@@std@@@std@@IAE?AV?$_Tree_iterator@V?$_Tree_val@U?$_Tree_simple_types@U?$pair@QAVUnitInterface@BWAPI@@H@std@@@std@@@std@@@1@V?$_Tree_const_iterator@V?$_Tree_val@U?$_Tree_simple_types@U?$pair@QAVUnitInterface@BWAPI@@H@std@@@std@@@std@@@1@AAU?$pair@QAVUnitInterface@BWAPI@@H@1@PAU?$_Tree_node@U?$pair@QAVUnitInterface@BWAPI@@H@std@@PAX@1@@Z 10086ff0 f i WorkerData.obj
 0001:00085ff0       ??$_Insert_hint@AAU?$pair@QAVUnitInterface@BWAPI@@PAV12@@std@@PAU?$_Tree_node@U?$pair@QAVUnitInterface@BWAPI@@PAV12@@std@@PAX@2@@?$_Tree@V?$_Tmap_traits@PAVUnitInterface@BWAPI@@PAV12@U?$less@PAVUnitInterface@BWAPI@@@std@@V?$allocator@U?$pair@QAVUnitInterface@BWAPI@@PAV12@@std@@@4@$0A@@std@@@std@@IAE?AV?$_Tree_iterator@V?$_Tree_val@U?$_Tree_simple_types@U?$pair@QAVUnitInterface@BWAPI@@PAV12@@std@@@std@@@std@@@1@V?$_Tree_const_iterator@V?$_Tree_val@U?$_Tree_simple_types@U?$pair@QAVUnitInterface@BWAPI@@PAV12@@std@@@std@@@std@@@1@AAU?$pair@QAVUnitInterface@BWAPI@@PAV12@@1@PAU?$_Tree_node@U?$pair@QAVUnitInterface@BWAPI@@PAV12@@std@@PAX@1@@Z 10086ff0 f i WorkerData.obj
 0001:00086250       ??$_Buynode@ABUpiecewise_construct_t@std@@V?$tuple@ABQAVUnitInterface@BWAPI@@@2@V?$tuple@$$V@2@@?$_Tree_comp_alloc@V?$_Tmap_traits@PAVUnitInterface@BWAPI@@VWorkerPost@WorkerData@UAlbertaBot@@U?$less@PAVUnitInterface@BWAPI@@@std@@V?$allocator@U?$pair@QAVUnitInterface@BWAPI@@VWorkerPost@WorkerData@UAlbertaBot@@@std@@@7@$0A@@std@@@std@@QAEPAU?$_Tree_node@U?$pair@QAVUnitInterface@BWAPI@@VWorkerPost@WorkerData@UAlbertaBot@@@std@@PAX@1@ABUpiecewise_construct_t@1@$$QAV?$tuple@ABQAVUnitInterface@BWAPI@@@1@$$QAV?$tuple@$$V@1@@Z 10087250 f i WorkerData.obj
 0001:00086300       ??$_Insert_hint@AAU?$pair@QAVUnitInterface@BWAPI@@VWorkerPost@WorkerData@UAlbertaBot@@@std@@PAU?$_Tree_node@U?$pair@QAVUnitInterface@BWAPI@@VWorkerPost@WorkerData@UAlbertaBot@@@std@@PAX@2@@?$_Tree@V?$_Tmap_traits@PAVUnitInterface@BWAPI@@VWorkerPost@WorkerData@UAlbertaBot@@U?$less@PAVUnitInterface@BWAPI@@@std@@V?$allocator@U?$pair@QAVUnitInterface@BWAPI@@VWorkerPost@WorkerData@UAlbertaBot@@@std@@@7@$0A@@std@@@std@@IAE?AV?$_Tree_iterator@V?$_Tree_val@U?$_Tree_simple_types@U?$pair@QAVUnitInterface@BWAPI@@VWorkerPost@WorkerData@UAlbertaBot@@@std@@@std@@@std@@@1@V?$_Tree_const_iterator@V?$_Tree_val@U?$_Tree_simple_types@U?$pair@QAVUnitInterface@BWAPI@@VWorkerPost@WorkerData@UAlbertaBot@@@std@@@std@@@std@@@1@AAU?$pair@QAVUnitInterface@BWAPI@@VWorkerPost@WorkerData@UAlbertaBot@@@1@PAU?$_Tree_node@U?$pair@QAVUnitInterface@BWAPI@@VWorkerPost@WorkerData@UAlbertaBot@@@std@@PAX@1@@Z 10087300 f i WorkerData.obj
 0001:00086590       ??1WorkerData@UAlbertaBot@@QAE@XZ 10087590 f i WorkerManager.obj
 0001:00086720       ?Instance@WorkerManager@UAlbertaBot@@SAAAV12@XZ 10087720 f   WorkerManager.obj
 0001:00086860       ?update@WorkerManager@UAlbertaBot@@QAEXXZ 10087860 f   WorkerManager.obj
 0001:00086c30       ?updateWorkerStatus@WorkerManager@UAlbertaBot@@QAEXXZ 10087c30 f   WorkerManager.obj
 0001:00087420       ?clearBlockingMinerals@WorkerManager@UAlbertaBot@@AAEXXZ 10088420 f   WorkerManager.obj
 0001:00087770       ?handleGasWorkers@WorkerManager@UAlbertaBot@@AAEXXZ 10088770 f   WorkerManager.obj
 0001:00087e20       ?handleRepairWorkers@WorkerManager@UAlbertaBot@@AAEXXZ 10088e20 f   WorkerManager.obj
 0001:00088240       ?handleMineralWorkers@WorkerManager@UAlbertaBot@@AAEXXZ 10089240 f   WorkerManager.obj
 0001:00088500       ?handleUnblockWorkers@WorkerManager@UAlbertaBot@@AAEXXZ 10089500 f   WorkerManager.obj
 0001:00088810       ?maybeFleeDanger@WorkerManager@UAlbertaBot@@AAE_NPAVUnitInterface@BWAPI@@H@Z 10089810 f   WorkerManager.obj
 0001:00088970       ?inIrradiateDanger@WorkerManager@UAlbertaBot@@ABE_NPAVUnitInterface@BWAPI@@@Z 10089970 f   WorkerManager.obj
 0001:00088ad0       ?findEnemyTargetForWorker@WorkerManager@UAlbertaBot@@ABEPAVUnitInterface@BWAPI@@PAV34@@Z 10089ad0 f   WorkerManager.obj
 0001:00088c90       ?getAnyClosestDepot@WorkerManager@UAlbertaBot@@AAEPAVUnitInterface@BWAPI@@PAV34@@Z 10089c90 f   WorkerManager.obj
 0001:00088da0       ?getClosestNonFullDepot@WorkerManager@UAlbertaBot@@AAEPAVUnitInterface@BWAPI@@PAV34@@Z 10089da0 f   WorkerManager.obj
 0001:00089030       ?finishedWithWorker@WorkerManager@UAlbertaBot@@QAEXPAVUnitInterface@BWAPI@@@Z 1008a030 f   WorkerManager.obj
 0001:000890b0       ?getAnyWorker@WorkerManager@UAlbertaBot@@AAEPAVUnitInterface@BWAPI@@ABV?$Point@H$00@4@H@Z 1008a0b0 f   WorkerManager.obj
 0001:00089180       ?getUnencumberedWorker@WorkerManager@UAlbertaBot@@AAEPAVUnitInterface@BWAPI@@ABV?$Point@H$00@4@H@Z 1008a180 f   WorkerManager.obj
 0001:00089280       ?getBuilder@WorkerManager@UAlbertaBot@@QAEPAVUnitInterface@BWAPI@@ABVBuilding@2@@Z 1008a280 f   WorkerManager.obj
 0001:00089570       ?setBuildWorker@WorkerManager@UAlbertaBot@@QAEXPAVUnitInterface@BWAPI@@@Z 1008a570 f   WorkerManager.obj
 0001:00089600       ?willHaveResources@WorkerManager@UAlbertaBot@@QAE_NHHN@Z 1008a600 f   WorkerManager.obj
 0001:000897a0       ?postWorker@WorkerManager@UAlbertaBot@@QAEPAVUnitInterface@BWAPI@@V?$Point@H$0CA@@4@@Z 1008a7a0 f   WorkerManager.obj
 0001:00089930       ?onUnitDestroy@WorkerManager@UAlbertaBot@@QAEXPAVUnitInterface@BWAPI@@@Z 1008a930 f   WorkerManager.obj
 0001:00089bc0       ?drawWorkerInformation@WorkerManager@UAlbertaBot@@AAEXXZ 1008abc0 f   WorkerManager.obj
 0001:00089df0       ?init@ActionTypes@BOSS@@YAXXZ 1008adf0 f   BOSS:ActionType.obj
 0001:0008a8b0       ?GetActionType@ActionTypes@BOSS@@YAABVActionType@2@ABV?$basic_string@DU?$char_traits@D@std@@V?$allocator@D@2@@std@@@Z 1008b8b0 f   BOSS:ActionType.obj
 0001:0008a900       ?TypeExists@ActionTypes@BOSS@@YA?B_NABV?$basic_string@DU?$char_traits@D@std@@V?$allocator@D@2@@std@@@Z 1008b900 f   BOSS:ActionType.obj
 0001:0008a960       ??A?$map@V?$basic_string@DU?$char_traits@D@std@@V?$allocator@D@2@@std@@VActionType@BOSS@@U?$less@V?$basic_string@DU?$char_traits@D@std@@V?$allocator@D@2@@std@@@2@V?$allocator@U?$pair@$$CBV?$basic_string@DU?$char_traits@D@std@@V?$allocator@D@2@@std@@VActionType@BOSS@@@std@@@2@@std@@QAEAAVActionType@BOSS@@ABV?$basic_string@DU?$char_traits@D@std@@V?$allocator@D@2@@1@@Z 1008b960 f i BOSS:ActionType.obj
 0001:0008a9e0       ?lower_bound@?$_Tree@V?$_Tmap_traits@V?$basic_string@DU?$char_traits@D@std@@V?$allocator@D@2@@std@@VActionType@BOSS@@U?$less@V?$basic_string@DU?$char_traits@D@std@@V?$allocator@D@2@@std@@@2@V?$allocator@U?$pair@$$CBV?$basic_string@DU?$char_traits@D@std@@V?$allocator@D@2@@std@@VActionType@BOSS@@@std@@@2@$0A@@std@@@std@@QAE?AV?$_Tree_iterator@V?$_Tree_val@U?$_Tree_simple_types@U?$pair@$$CBV?$basic_string@DU?$char_traits@D@std@@V?$allocator@D@2@@std@@VActionType@BOSS@@@std@@@std@@@std@@@2@ABV?$basic_string@DU?$char_traits@D@std@@V?$allocator@D@2@@2@@Z 1008b9e0 f i BOSS:ActionType.obj
 0001:0008aa50       ?erase@?$_Tree@V?$_Tmap_traits@V?$basic_string@DU?$char_traits@D@std@@V?$allocator@D@2@@std@@VActionType@BOSS@@U?$less@V?$basic_string@DU?$char_traits@D@std@@V?$allocator@D@2@@std@@@2@V?$allocator@U?$pair@$$CBV?$basic_string@DU?$char_traits@D@std@@V?$allocator@D@2@@std@@VActionType@BOSS@@@std@@@2@$0A@@std@@@std@@QAE?AV?$_Tree_iterator@V?$_Tree_val@U?$_Tree_simple_types@U?$pair@$$CBV?$basic_string@DU?$char_traits@D@std@@V?$allocator@D@2@@std@@VActionType@BOSS@@@std@@@std@@@std@@@2@V?$_Tree_const_iterator@V?$_Tree_val@U?$_Tree_simple_types@U?$pair@$$CBV?$basic_string@DU?$char_traits@D@std@@V?$allocator@D@2@@std@@VActionType@BOSS@@@std@@@std@@@std@@@2@0@Z 1008ba50 f i BOSS:ActionType.obj
 0001:0008ac00       ?_Erase@?$_Tree@V?$_Tmap_traits@V?$basic_string@DU?$char_traits@D@std@@V?$allocator@D@2@@std@@VActionType@BOSS@@U?$less@V?$basic_string@DU?$char_traits@D@std@@V?$allocator@D@2@@std@@@2@V?$allocator@U?$pair@$$CBV?$basic_string@DU?$char_traits@D@std@@V?$allocator@D@2@@std@@VActionType@BOSS@@@std@@@2@$0A@@std@@@std@@IAEXPAU?$_Tree_node@U?$pair@$$CBV?$basic_string@DU?$char_traits@D@std@@V?$allocator@D@2@@std@@VActionType@BOSS@@@std@@PAX@2@@Z 1008bc00 f i BOSS:ActionType.obj
 0001:0008ac90       ??$_Emplace_reallocate@V?$vector@VActionType@BOSS@@V?$allocator@VActionType@BOSS@@@std@@@std@@@?$vector@V?$vector@VActionType@BOSS@@V?$allocator@VActionType@BOSS@@@std@@@std@@V?$allocator@V?$vector@VActionType@BOSS@@V?$allocator@VActionType@BOSS@@@std@@@std@@@2@@std@@QAEPAV?$vector@VActionType@BOSS@@V?$allocator@VActionType@BOSS@@@std@@@1@QAV21@$$QAV21@@Z 1008bc90 f i BOSS:ActionType.obj
 0001:0008ae80       ??$_Emplace_reallocate@ABVActionType@BOSS@@@?$vector@VActionType@BOSS@@V?$allocator@VActionType@BOSS@@@std@@@std@@QAEPAVActionType@BOSS@@QAV23@ABV23@@Z 1008be80 f i BOSS:ActionType.obj
 0001:0008b010       ??$_Destroy_range@V?$allocator@V?$vector@VActionType@BOSS@@V?$allocator@VActionType@BOSS@@@std@@@std@@@std@@@std@@YAXPAV?$vector@VActionType@BOSS@@V?$allocator@VActionType@BOSS@@@std@@@0@0AAV?$allocator@V?$vector@VActionType@BOSS@@V?$allocator@VActionType@BOSS@@@std@@@std@@@0@@Z 1008c010 f i BOSS:ActionType.obj
 0001:0008b080       ??$_Uninitialized_move@PAV?$vector@VActionType@BOSS@@V?$allocator@VActionType@BOSS@@@std@@@std@@PAV12@V?$allocator@V?$vector@VActionType@BOSS@@V?$allocator@VActionType@BOSS@@@std@@@std@@@2@@std@@YAPAV?$vector@VActionType@BOSS@@V?$allocator@VActionType@BOSS@@@std@@@0@QAV10@0PAV10@AAV?$allocator@V?$vector@VActionType@BOSS@@V?$allocator@VActionType@BOSS@@@std@@@std@@@0@@Z 1008c080 f i BOSS:ActionType.obj
 0001:0008b100       ??$_Buynode@ABUpiecewise_construct_t@std@@V?$tuple@ABV?$basic_string@DU?$char_traits@D@std@@V?$allocator@D@2@@std@@@2@V?$tuple@$$V@2@@?$_Tree_comp_alloc@V?$_Tmap_traits@V?$basic_string@DU?$char_traits@D@std@@V?$allocator@D@2@@std@@VActionType@BOSS@@U?$less@V?$basic_string@DU?$char_traits@D@std@@V?$allocator@D@2@@std@@@2@V?$allocator@U?$pair@$$CBV?$basic_string@DU?$char_traits@D@std@@V?$allocator@D@2@@std@@VActionType@BOSS@@@std@@@2@$0A@@std@@@std@@QAEPAU?$_Tree_node@U?$pair@$$CBV?$basic_string@DU?$char_traits@D@std@@V?$allocator@D@2@@std@@VActionType@BOSS@@@std@@PAX@1@ABUpiecewise_construct_t@1@$$QAV?$tuple@ABV?$basic_string@DU?$char_traits@D@std@@V?$allocator@D@2@@std@@@1@$$QAV?$tuple@$$V@1@@Z 1008c100 f i BOSS:ActionType.obj
 0001:0008b180       ??$_Insert_hint@AAU?$pair@$$CBV?$basic_string@DU?$char_traits@D@std@@V?$allocator@D@2@@std@@VActionType@BOSS@@@std@@PAU?$_Tree_node@U?$pair@$$CBV?$basic_string@DU?$char_traits@D@std@@V?$allocator@D@2@@std@@VActionType@BOSS@@@std@@PAX@2@@?$_Tree@V?$_Tmap_traits@V?$basic_string@DU?$char_traits@D@std@@V?$allocator@D@2@@std@@VActionType@BOSS@@U?$less@V?$basic_string@DU?$char_traits@D@std@@V?$allocator@D@2@@std@@@2@V?$allocator@U?$pair@$$CBV?$basic_string@DU?$char_traits@D@std@@V?$allocator@D@2@@std@@VActionType@BOSS@@@std@@@2@$0A@@std@@@std@@IAE?AV?$_Tree_iterator@V?$_Tree_val@U?$_Tree_simple_types@U?$pair@$$CBV?$basic_string@DU?$char_traits@D@std@@V?$allocator@D@2@@std@@VActionType@BOSS@@@std@@@std@@@std@@@1@V?$_Tree_const_iterator@V?$_Tree_val@U?$_Tree_simple_types@U?$pair@$$CBV?$basic_string@DU?$char_traits@D@std@@V?$allocator@D@2@@std@@VActionType@BOSS@@@std@@@std@@@std@@@1@AAU?$pair@$$CBV?$basic_string@DU?$char_traits@D@std@@V?$allocator@D@2@@std@@VActionType@BOSS@@@1@PAU?$_Tree_node@U?$pair@$$CBV?$basic_string@DU?$char_traits@D@std@@V?$allocator@D@2@@std@@VActionType@BOSS@@@std@@PAX@1@@Z 1008c180 f i BOSS:ActionType.obj
 0001:0008b4c0       ?_Freenode0@?$_Tree_comp_alloc@V?$_Tmap_traits@V?$basic_string@DU?$char_traits@D@std@@V?$allocator@D@2@@std@@VActionType@BOSS@@U?$less@V?$basic_string@DU?$char_traits@D@std@@V?$allocator@D@2@@std@@@2@V?$allocator@U?$pair@$$CBV?$basic_string@DU?$char_traits@D@std@@V?$allocator@D@2@@std@@VActionType@BOSS@@@std@@@2@$0A@@std@@@std@@QAEXPAU?$_Tree_node@U?$pair@$$CBV?$basic_string@DU?$char_traits@D@std@@V?$allocator@D@2@@std@@VActionType@BOSS@@@std@@PAX@2@@Z 1008c4c0 f i BOSS:ActionType.obj
 0001:0008b4e0       ?_Buynode0@?$_Tree_comp_alloc@V?$_Tmap_traits@V?$basic_string@DU?$char_traits@D@std@@V?$allocator@D@2@@std@@VActionType@BOSS@@U?$less@V?$basic_string@DU?$char_traits@D@std@@V?$allocator@D@2@@std@@@2@V?$allocator@U?$pair@$$CBV?$basic_string@DU?$char_traits@D@std@@V?$allocator@D@2@@std@@VActionType@BOSS@@@std@@@2@$0A@@std@@@std@@QAEPAU?$_Tree_node@U?$pair@$$CBV?$basic_string@DU?$char_traits@D@std@@V?$allocator@D@2@@std@@VActionType@BOSS@@@std@@PAX@2@XZ 1008c4e0 f i BOSS:ActionType.obj
 0001:0008b510       ?_Destroy_if_node@?$_Tree@V?$_Tmap_traits@V?$basic_string@DU?$char_traits@D@std@@V?$allocator@D@2@@std@@VActionType@BOSS@@U?$less@V?$basic_string@DU?$char_traits@D@std@@V?$allocator@D@2@@std@@@2@V?$allocator@U?$pair@$$CBV?$basic_string@DU?$char_traits@D@std@@V?$allocator@D@2@@std@@VActionType@BOSS@@@std@@@2@$0A@@std@@@std@@IAEXPAU?$_Tree_node@U?$pair@$$CBV?$basic_string@DU?$char_traits@D@std@@V?$allocator@D@2@@std@@VActionType@BOSS@@@std@@PAX@2@@Z 1008c510 f i BOSS:ActionType.obj
 0001:0008b570       ??$_Insert_at@AAU?$pair@$$CBV?$basic_string@DU?$char_traits@D@std@@V?$allocator@D@2@@std@@VActionType@BOSS@@@std@@PAU?$_Tree_node@U?$pair@$$CBV?$basic_string@DU?$char_traits@D@std@@V?$allocator@D@2@@std@@VActionType@BOSS@@@std@@PAX@2@@?$_Tree@V?$_Tmap_traits@V?$basic_string@DU?$char_traits@D@std@@V?$allocator@D@2@@std@@VActionType@BOSS@@U?$less@V?$basic_string@DU?$char_traits@D@std@@V?$allocator@D@2@@std@@@2@V?$allocator@U?$pair@$$CBV?$basic_string@DU?$char_traits@D@std@@V?$allocator@D@2@@std@@VActionType@BOSS@@@std@@@2@$0A@@std@@@std@@IAE?AV?$_Tree_iterator@V?$_Tree_val@U?$_Tree_simple_types@U?$pair@$$CBV?$basic_string@DU?$char_traits@D@std@@V?$allocator@D@2@@std@@VActionType@BOSS@@@std@@@std@@@std@@@1@_NPAU?$_Tree_node@U?$pair@$$CBV?$basic_string@DU?$char_traits@D@std@@V?$allocator@D@2@@std@@VActionType@BOSS@@@std@@PAX@1@AAU?$pair@$$CBV?$basic_string@DU?$char_traits@D@std@@V?$allocator@D@2@@std@@VActionType@BOSS@@@1@1@Z 1008c570 f i BOSS:ActionType.obj
 0001:0008b7b0       ??$_Insert_nohint@AAU?$pair@$$CBV?$basic_string@DU?$char_traits@D@std@@V?$allocator@D@2@@std@@VActionType@BOSS@@@std@@PAU?$_Tree_node@U?$pair@$$CBV?$basic_string@DU?$char_traits@D@std@@V?$allocator@D@2@@std@@VActionType@BOSS@@@std@@PAX@2@@?$_Tree@V?$_Tmap_traits@V?$basic_string@DU?$char_traits@D@std@@V?$allocator@D@2@@std@@VActionType@BOSS@@U?$less@V?$basic_string@DU?$char_traits@D@std@@V?$allocator@D@2@@std@@@2@V?$allocator@U?$pair@$$CBV?$basic_string@DU?$char_traits@D@std@@V?$allocator@D@2@@std@@VActionType@BOSS@@@std@@@2@$0A@@std@@@std@@IAE?AU?$pair@V?$_Tree_iterator@V?$_Tree_val@U?$_Tree_simple_types@U?$pair@$$CBV?$basic_string@DU?$char_traits@D@std@@V?$allocator@D@2@@std@@VActionType@BOSS@@@std@@@std@@@std@@@std@@_N@1@_NAAU?$pair@$$CBV?$basic_string@DU?$char_traits@D@std@@V?$allocator@D@2@@std@@VActionType@BOSS@@@1@PAU?$_Tree_node@U?$pair@$$CBV?$basic_string@DU?$char_traits@D@std@@V?$allocator@D@2@@std@@VActionType@BOSS@@@std@@PAX@1@@Z 1008c7b0 f i BOSS:ActionType.obj
 0001:0008b970       ??0ActionTypeData@BOSS@@AAE@VUnitType@BWAPI@@E@Z 1008c970 f   BOSS:ActionTypeData.obj
 0001:0008bc10       ??0ActionTypeData@BOSS@@AAE@VUpgradeType@BWAPI@@E@Z 1008cc10 f   BOSS:ActionTypeData.obj
 0001:0008bdd0       ??0ActionTypeData@BOSS@@AAE@VTechType@BWAPI@@E@Z 1008cdd0 f   BOSS:ActionTypeData.obj
 0001:0008bf90       ?setShortName@ActionTypeData@BOSS@@AAEXXZ 1008cf90 f   BOSS:ActionTypeData.obj
 0001:0008c170       ?AddActions@ActionTypeData@BOSS@@CAXXZ 1008d170 f   BOSS:ActionTypeData.obj
 0001:0008caa0       ??1ActionTypeData@BOSS@@QAE@XZ 1008daa0 f i BOSS:ActionTypeData.obj
 0001:0008cb80       ?GetActionID@ActionTypeData@BOSS@@SAEABVUnitType@BWAPI@@@Z 1008db80 f   BOSS:ActionTypeData.obj
 0001:0008cc80       ?GetActionID@ActionTypeData@BOSS@@SAEABVTechType@BWAPI@@@Z 1008dc80 f   BOSS:ActionTypeData.obj
 0001:0008cda0       ??0ActionTypeData@BOSS@@QAE@ABV01@@Z 1008dda0 f i BOSS:ActionTypeData.obj
 0001:0008cf50       ??0PrerequisiteSet@BOSS@@QAE@ABV01@@Z 1008df50 f i BOSS:ActionTypeData.obj
 0001:0008cf50       ??0PrerequisiteSet@BOSS@@QAE@$$QAV01@@Z 1008df50 f i BOSS:ActionTypeData.obj
 0001:0008cfa0       ?AddPrerequisites@ActionTypeData@BOSS@@CAXXZ 1008dfa0 f   BOSS:ActionTypeData.obj
 0001:0008d3d0       ?CalculatePrerequisites@ActionTypeData@BOSS@@CA?AVPrerequisiteSet@2@ABV12@@Z 1008e3d0 f   BOSS:ActionTypeData.obj
 0001:0008d6b0       ?CalculateRecursivePrerequisites@ActionTypeData@BOSS@@CAXAAVPrerequisiteSet@2@ABV12@@Z 1008e6b0 f   BOSS:ActionTypeData.obj
 0001:0008d890       ??0?$vector@V?$vector@VActionTypeData@BOSS@@V?$allocator@VActionTypeData@BOSS@@@std@@@std@@V?$allocator@V?$vector@VActionTypeData@BOSS@@V?$allocator@VActionTypeData@BOSS@@@std@@@std@@@2@@std@@QAE@IABV?$allocator@V?$vector@VActionTypeData@BOSS@@V?$allocator@VActionTypeData@BOSS@@@std@@@std@@@1@@Z 1008e890 f i BOSS:ActionTypeData.obj
 0001:0008d920       ?_Tidy@?$vector@V?$vector@VActionTypeData@BOSS@@V?$allocator@VActionTypeData@BOSS@@@std@@@std@@V?$allocator@V?$vector@VActionTypeData@BOSS@@V?$allocator@VActionTypeData@BOSS@@@std@@@std@@@2@@std@@AAEXXZ 1008e920 f i BOSS:ActionTypeData.obj
 0001:0008d9b0       ??$construct@VActionTypeData@BOSS@@V12@@?$_Default_allocator_traits@V?$allocator@VActionTypeData@BOSS@@@std@@@std@@SAXAAV?$allocator@VActionTypeData@BOSS@@@1@QAVActionTypeData@BOSS@@$$QAV34@@Z 1008e9b0 f i BOSS:ActionTypeData.obj
 0001:0008db90       ??$_Emplace_reallocate@VActionTypeData@BOSS@@@?$vector@VActionTypeData@BOSS@@V?$allocator@VActionTypeData@BOSS@@@std@@@std@@QAEPAVActionTypeData@BOSS@@QAV23@$$QAV23@@Z 1008eb90 f i BOSS:ActionTypeData.obj
 0001:0008de40       ??$_Destroy_range@V?$allocator@V?$vector@VActionTypeData@BOSS@@V?$allocator@VActionTypeData@BOSS@@@std@@@std@@@std@@@std@@YAXPAV?$vector@VActionTypeData@BOSS@@V?$allocator@VActionTypeData@BOSS@@@std@@@0@0AAV?$allocator@V?$vector@VActionTypeData@BOSS@@V?$allocator@VActionTypeData@BOSS@@@std@@@std@@@0@@Z 1008ee40 f i BOSS:ActionTypeData.obj
 0001:0008def0       ?_Destroy@?$vector@VActionTypeData@BOSS@@V?$allocator@VActionTypeData@BOSS@@@std@@@std@@AAEXPAVActionTypeData@BOSS@@0@Z 1008eef0 f i BOSS:ActionTypeData.obj
 0001:0008df20       ?deallocate@?$allocator@VActionTypeData@BOSS@@@std@@QAEXQAVActionTypeData@BOSS@@I@Z 1008ef20 f i BOSS:ActionTypeData.obj
 0001:0008df60       ??1?$_Uninitialized_backout_al@PAVActionTypeData@BOSS@@V?$allocator@VActionTypeData@BOSS@@@std@@@std@@QAE@XZ 1008ef60 f i BOSS:ActionTypeData.obj
 0001:0008df90       ?contains@PrerequisiteSet@BOSS@@QBE?B_NABVActionType@2@@Z 1008ef90 f   BOSS:PrerequisiteSet.obj
 0001:0008e000       ?add@PrerequisiteSet@BOSS@@QAEXABVActionType@2@G@Z 1008f000 f   BOSS:PrerequisiteSet.obj
 0001:0008e060       ?size@?$Vec@VActionCountPair@BOSS@@$0GE@@BOSS@@QBEABIXZ 1008f060 f i BOSS:PrerequisiteSet.obj
 0001:0008e070       __vsnprintf_l              1008f070 f i BOSS:BOSSAssert.obj
 0001:0008e0b0       _vsprintf                  1008f0b0 f i BOSS:BOSSAssert.obj
 0001:0008e0d0       ?ReportFailure@Assert@BOSS@@YAXPBVGameState@2@PBD1H1ZZ 1008f0d0 f   BOSS:BOSSAssert.obj
 0001:0008e280       ??0BOSSException@BOSS@@QAE@ABV01@@Z 1008f280 f i BOSS:BOSSAssert.obj
 0001:0008e300       ??_GBOSSException@BOSS@@UAEPAXI@Z 1008f300 f i BOSS:BOSSAssert.obj
 0001:0008e300       ??_EBOSSException@BOSS@@UAEPAXI@Z 1008f300 f i * CIL library *:* CIL module *
 0001:0008e380       ??0BOSSException@BOSS@@QAE@V?$basic_string@DU?$char_traits@D@std@@V?$allocator@D@2@@std@@@Z 1008f380 f   BOSS:BOSSException.obj
 0001:0008e430       ??1BOSSException@BOSS@@UAE@XZ 1008f430 f   BOSS:BOSSException.obj
 0001:0008e4a0       ?what@BOSSException@BOSS@@UBEPBDXZ 1008f4a0 f   BOSS:BOSSException.obj
 0001:0008e4b0       ??0?$SetContainer@VUnitType@BWAPI@@U?$hash@H@std@@@BWAPI@@QAE@V?$initializer_list@VUnitType@BWAPI@@@std@@@Z 1008f4b0 f i BWAPILIB:UnitType.obj
 0001:0008e4b0       ??0?$SetContainer@VUpgradeType@BWAPI@@U?$hash@H@std@@@BWAPI@@QAE@V?$initializer_list@VUpgradeType@BWAPI@@@std@@@Z 1008f4b0 f i BWAPILIB:UnitType.obj
 0001:0008e4b0       ??0?$SetContainer@VTechType@BWAPI@@U?$hash@H@std@@@BWAPI@@QAE@V?$initializer_list@VTechType@BWAPI@@@std@@@Z 1008f4b0 f i BWAPILIB:UnitType.obj
 0001:0008e4b0       ??0?$SetContainer@VWeaponType@BWAPI@@U?$hash@H@std@@@BWAPI@@QAE@V?$initializer_list@VWeaponType@BWAPI@@@std@@@Z 1008f4b0 f i BWAPILIB:WeaponType.obj
 0001:0008e5c0       ?whatBuilds@UnitType@BWAPI@@QBE?BU?$pair@VUnitType@BWAPI@@H@std@@XZ 1008f5c0 f   BWAPILIB:UnitType.obj
 0001:0008e630       ?reqUnitsInit@BWAPI@@YA?AV?$vector@V?$map@VUnitType@BWAPI@@HU?$less@VUnitType@BWAPI@@@std@@V?$allocator@U?$pair@$$CBVUnitType@BWAPI@@H@std@@@4@@std@@V?$allocator@V?$map@VUnitType@BWAPI@@HU?$less@VUnitType@BWAPI@@@std@@V?$allocator@U?$pair@$$CBVUnitType@BWAPI@@H@std@@@4@@std@@@2@@std@@XZ 1008f630 f   BWAPILIB:UnitType.obj
 0001:0008f4c0       ?requiredUnits@UnitType@BWAPI@@QBEABV?$map@VUnitType@BWAPI@@HU?$less@VUnitType@BWAPI@@@std@@V?$allocator@U?$pair@$$CBVUnitType@BWAPI@@H@std@@@4@@std@@XZ 100904c0 f   BWAPILIB:UnitType.obj
 0001:0008f520       ?topSpeed@UnitType@BWAPI@@QBENXZ 10090520 f   BWAPILIB:UnitType.obj
 0001:0008f530       ?canAttack@UnitType@BWAPI@@QBE_NXZ 10090530 f   BWAPILIB:UnitType.obj
 0001:0008f630       ?isSpell@UnitType@BWAPI@@QBE_NXZ 10090630 f   BWAPILIB:UnitType.obj
 0001:0008f650       ?isMineralField@UnitType@BWAPI@@QBE_NXZ 10090650 f   BWAPILIB:UnitType.obj
 0001:0008f670       ??R<lambda_3b68910d29f027af2c1a7db1c8ed951a>@@QBEPAV?$map@VUnitType@BWAPI@@HU?$less@VUnitType@BWAPI@@@std@@V?$allocator@U?$pair@$$CBVUnitType@BWAPI@@H@std@@@4@@std@@PAV12@I@Z 10090670 f i BWAPILIB:UnitType.obj
 0001:0008f6f0       ??0?$unordered_set@VUnitType@BWAPI@@U?$hash@H@std@@U?$equal_to@VUnitType@BWAPI@@@4@V?$allocator@VUnitType@BWAPI@@@4@@std@@QAE@XZ 100906f0 f i BWAPILIB:UnitType.obj
 0001:0008f6f0       ??0?$unordered_set@VTechType@BWAPI@@U?$hash@H@std@@U?$equal_to@VTechType@BWAPI@@@4@V?$allocator@VTechType@BWAPI@@@4@@std@@QAE@XZ 100906f0 f i BWAPILIB:UnitType.obj
 0001:0008f6f0       ??0?$unordered_set@VUpgradeType@BWAPI@@U?$hash@H@std@@U?$equal_to@VUpgradeType@BWAPI@@@4@V?$allocator@VUpgradeType@BWAPI@@@4@@std@@QAE@XZ 100906f0 f i BWAPILIB:UnitType.obj
 0001:0008f780       ??0?$_Hash@V?$_Uset_traits@VUpgradeType@BWAPI@@V?$_Uhash_compare@VUpgradeType@BWAPI@@U?$hash@H@std@@U?$equal_to@VUpgradeType@BWAPI@@@4@@std@@V?$allocator@VUpgradeType@BWAPI@@@4@$0A@@std@@@std@@QAE@ABV?$_Uhash_compare@VUpgradeType@BWAPI@@U?$hash@H@std@@U?$equal_to@VUpgradeType@BWAPI@@@4@@1@ABV?$allocator@VUpgradeType@BWAPI@@@1@@Z 10090780 f i BWAPILIB:UnitType.obj
 0001:0008f780       ??0?$_Hash@V?$_Uset_traits@VTechType@BWAPI@@V?$_Uhash_compare@VTechType@BWAPI@@U?$hash@H@std@@U?$equal_to@VTechType@BWAPI@@@4@@std@@V?$allocator@VTechType@BWAPI@@@4@$0A@@std@@@std@@QAE@ABV?$_Uhash_compare@VTechType@BWAPI@@U?$hash@H@std@@U?$equal_to@VTechType@BWAPI@@@4@@1@ABV?$allocator@VTechType@BWAPI@@@1@@Z 10090780 f i BWAPILIB:UnitType.obj
 0001:0008f810       ?_Init@?$_Hash@V?$_Uset_traits@VUnitType@BWAPI@@V?$_Uhash_compare@VUnitType@BWAPI@@U?$hash@H@std@@U?$equal_to@VUnitType@BWAPI@@@4@@std@@V?$allocator@VUnitType@BWAPI@@@4@$0A@@std@@@std@@IAEXI@Z 10090810 f i BWAPILIB:UnitType.obj
 0001:0008f810       ?_Init@?$_Hash@V?$_Uset_traits@VWeaponType@BWAPI@@V?$_Uhash_compare@VWeaponType@BWAPI@@U?$hash@H@std@@U?$equal_to@VWeaponType@BWAPI@@@4@@std@@V?$allocator@VWeaponType@BWAPI@@@4@$0A@@std@@@std@@IAEXI@Z 10090810 f i BWAPILIB:WeaponType.obj
 0001:0008f810       ?_Init@?$_Hash@V?$_Uset_traits@VTechType@BWAPI@@V?$_Uhash_compare@VTechType@BWAPI@@U?$hash@H@std@@U?$equal_to@VTechType@BWAPI@@@4@@std@@V?$allocator@VTechType@BWAPI@@@4@$0A@@std@@@std@@IAEXI@Z 10090810 f i BWAPILIB:UnitType.obj
 0001:0008f810       ?_Init@?$_Hash@V?$_Uset_traits@VOrder@BWAPI@@V?$_Uhash_compare@VOrder@BWAPI@@U?$hash@H@std@@U?$equal_to@VOrder@BWAPI@@@4@@std@@V?$allocator@VOrder@BWAPI@@@4@$0A@@std@@@std@@IAEXI@Z 10090810 f i BWAPILIB:Order.obj
 0001:0008f810       ?_Init@?$_Hash@V?$_Uset_traits@VBulletType@BWAPI@@V?$_Uhash_compare@VBulletType@BWAPI@@U?$hash@H@std@@U?$equal_to@VBulletType@BWAPI@@@4@@std@@V?$allocator@VBulletType@BWAPI@@@4@$0A@@std@@@std@@IAEXI@Z 10090810 f i BWAPILIB:BulletType.obj
 0001:0008f810       ?_Init@?$_Hash@V?$_Uset_traits@VUpgradeType@BWAPI@@V?$_Uhash_compare@VUpgradeType@BWAPI@@U?$hash@H@std@@U?$equal_to@VUpgradeType@BWAPI@@@4@@std@@V?$allocator@VUpgradeType@BWAPI@@@4@$0A@@std@@@std@@IAEXI@Z 10090810 f i BWAPILIB:UnitType.obj
 0001:0008f810       ?_Init@?$_Hash@V?$_Uset_traits@VRace@BWAPI@@V?$_Uhash_compare@VRace@BWAPI@@U?$hash@H@std@@U?$equal_to@VRace@BWAPI@@@4@@std@@V?$allocator@VRace@BWAPI@@@4@$0A@@std@@@std@@IAEXI@Z 10090810 f i BWAPILIB:Race.obj
 0001:0008f870       ??0?$vector@V?$_List_unchecked_const_iterator@V?$_List_val@U?$_List_simple_types@VUnitType@BWAPI@@@std@@@std@@U_Iterator_base0@2@@std@@V?$allocator@V?$_List_unchecked_const_iterator@V?$_List_val@U?$_List_simple_types@VUnitType@BWAPI@@@std@@@std@@U_Iterator_base0@2@@std@@@2@@std@@QAE@ABV?$allocator@V?$_List_unchecked_const_iterator@V?$_List_val@U?$_List_simple_types@VUnitType@BWAPI@@@std@@@std@@U_Iterator_base0@2@@std@@@1@@Z 10090870 f i BWAPILIB:UnitType.obj
 0001:0008f890       ??0?$list@VUnitType@BWAPI@@V?$allocator@VUnitType@BWAPI@@@std@@@std@@QAE@ABV?$allocator@VUnitType@BWAPI@@@1@@Z 10090890 f i BWAPILIB:UnitType.obj
 0001:0008f8c0       ?assign@?$vector@V?$_List_unchecked_const_iterator@V?$_List_val@U?$_List_simple_types@VTechType@BWAPI@@@std@@@std@@U_Iterator_base0@2@@std@@V?$allocator@V?$_List_unchecked_const_iterator@V?$_List_val@U?$_List_simple_types@VTechType@BWAPI@@@std@@@std@@U_Iterator_base0@2@@std@@@2@@std@@QAEXIABV?$_List_unchecked_const_iterator@V?$_List_val@U?$_List_simple_types@VTechType@BWAPI@@@std@@@std@@U_Iterator_base0@2@@2@@Z 100908c0 f i BWAPILIB:UnitType.obj
 0001:0008f8c0       ?assign@?$vector@V?$_List_unchecked_const_iterator@V?$_List_val@U?$_List_simple_types@VRace@BWAPI@@@std@@@std@@U_Iterator_base0@2@@std@@V?$allocator@V?$_List_unchecked_const_iterator@V?$_List_val@U?$_List_simple_types@VRace@BWAPI@@@std@@@std@@U_Iterator_base0@2@@std@@@2@@std@@QAEXIABV?$_List_unchecked_const_iterator@V?$_List_val@U?$_List_simple_types@VRace@BWAPI@@@std@@@std@@U_Iterator_base0@2@@2@@Z 100908c0 f i BWAPILIB:Race.obj
 0001:0008f8c0       ?assign@?$vector@V?$_List_unchecked_const_iterator@V?$_List_val@U?$_List_simple_types@VWeaponType@BWAPI@@@std@@@std@@U_Iterator_base0@2@@std@@V?$allocator@V?$_List_unchecked_const_iterator@V?$_List_val@U?$_List_simple_types@VWeaponType@BWAPI@@@std@@@std@@U_Iterator_base0@2@@std@@@2@@std@@QAEXIABV?$_List_unchecked_const_iterator@V?$_List_val@U?$_List_simple_types@VWeaponType@BWAPI@@@std@@@std@@U_Iterator_base0@2@@2@@Z 100908c0 f i BWAPILIB:WeaponType.obj
 0001:0008f8c0       ?assign@?$vector@V?$_List_unchecked_const_iterator@V?$_List_val@U?$_List_simple_types@VUnitType@BWAPI@@@std@@@std@@U_Iterator_base0@2@@std@@V?$allocator@V?$_List_unchecked_const_iterator@V?$_List_val@U?$_List_simple_types@VUnitType@BWAPI@@@std@@@std@@U_Iterator_base0@2@@std@@@2@@std@@QAEXIABV?$_List_unchecked_const_iterator@V?$_List_val@U?$_List_simple_types@VUnitType@BWAPI@@@std@@@std@@U_Iterator_base0@2@@2@@Z 100908c0 f i BWAPILIB:UnitType.obj
 0001:0008f8c0       ?assign@?$vector@V?$_List_unchecked_const_iterator@V?$_List_val@U?$_List_simple_types@VBulletType@BWAPI@@@std@@@std@@U_Iterator_base0@2@@std@@V?$allocator@V?$_List_unchecked_const_iterator@V?$_List_val@U?$_List_simple_types@VBulletType@BWAPI@@@std@@@std@@U_Iterator_base0@2@@std@@@2@@std@@QAEXIABV?$_List_unchecked_const_iterator@V?$_List_val@U?$_List_simple_types@VBulletType@BWAPI@@@std@@@std@@U_Iterator_base0@2@@2@@Z 100908c0 f i BWAPILIB:BulletType.obj
 0001:0008f8c0       ?assign@?$vector@V?$_List_unchecked_const_iterator@V?$_List_val@U?$_List_simple_types@VOrder@BWAPI@@@std@@@std@@U_Iterator_base0@2@@std@@V?$allocator@V?$_List_unchecked_const_iterator@V?$_List_val@U?$_List_simple_types@VOrder@BWAPI@@@std@@@std@@U_Iterator_base0@2@@std@@@2@@std@@QAEXIABV?$_List_unchecked_const_iterator@V?$_List_val@U?$_List_simple_types@VOrder@BWAPI@@@std@@@std@@U_Iterator_base0@2@@2@@Z 100908c0 f i BWAPILIB:Order.obj
 0001:0008f8c0       ?assign@?$vector@V?$_List_unchecked_const_iterator@V?$_List_val@U?$_List_simple_types@VUpgradeType@BWAPI@@@std@@@std@@U_Iterator_base0@2@@std@@V?$allocator@V?$_List_unchecked_const_iterator@V?$_List_val@U?$_List_simple_types@VUpgradeType@BWAPI@@@std@@@std@@U_Iterator_base0@2@@std@@@2@@std@@QAEXIABV?$_List_unchecked_const_iterator@V?$_List_val@U?$_List_simple_types@VUpgradeType@BWAPI@@@std@@@std@@U_Iterator_base0@2@@2@@Z 100908c0 f i BWAPILIB:UnitType.obj
 0001:0008fa20       ?_Reallocate_exactly@?$vector@V?$_List_unchecked_const_iterator@V?$_List_val@U?$_List_simple_types@VUpgradeType@BWAPI@@@std@@@std@@U_Iterator_base0@2@@std@@V?$allocator@V?$_List_unchecked_const_iterator@V?$_List_val@U?$_List_simple_types@VUpgradeType@BWAPI@@@std@@@std@@U_Iterator_base0@2@@std@@@2@@std@@AAEXI@Z 10090a20 f i BWAPILIB:UnitType.obj
 0001:0008fa20       ?_Reallocate_exactly@?$vector@V?$_List_unchecked_const_iterator@V?$_List_val@U?$_List_simple_types@VTechType@BWAPI@@@std@@@std@@U_Iterator_base0@2@@std@@V?$allocator@V?$_List_unchecked_const_iterator@V?$_List_val@U?$_List_simple_types@VTechType@BWAPI@@@std@@@std@@U_Iterator_base0@2@@std@@@2@@std@@AAEXI@Z 10090a20 f i BWAPILIB:UnitType.obj
 0001:0008fa20       ?_Reallocate_exactly@?$vector@V?$_List_unchecked_const_iterator@V?$_List_val@U?$_List_simple_types@VUnitType@BWAPI@@@std@@@std@@U_Iterator_base0@2@@std@@V?$allocator@V?$_List_unchecked_const_iterator@V?$_List_val@U?$_List_simple_types@VUnitType@BWAPI@@@std@@@std@@U_Iterator_base0@2@@std@@@2@@std@@AAEXI@Z 10090a20 f i BWAPILIB:UnitType.obj
 0001:0008fa20       ?_Reallocate_exactly@?$vector@V?$_List_unchecked_const_iterator@V?$_List_val@U?$_List_simple_types@VRace@BWAPI@@@std@@@std@@U_Iterator_base0@2@@std@@V?$allocator@V?$_List_unchecked_const_iterator@V?$_List_val@U?$_List_simple_types@VRace@BWAPI@@@std@@@std@@U_Iterator_base0@2@@std@@@2@@std@@AAEXI@Z 10090a20 f i BWAPILIB:Race.obj
 0001:0008fa20       ?_Reallocate_exactly@?$vector@V?$_List_unchecked_const_iterator@V?$_List_val@U?$_List_simple_types@VBulletType@BWAPI@@@std@@@std@@U_Iterator_base0@2@@std@@V?$allocator@V?$_List_unchecked_const_iterator@V?$_List_val@U?$_List_simple_types@VBulletType@BWAPI@@@std@@@std@@U_Iterator_base0@2@@std@@@2@@std@@AAEXI@Z 10090a20 f i BWAPILIB:BulletType.obj
 0001:0008fa20       ?_Reallocate_exactly@?$vector@V?$_List_unchecked_const_iterator@V?$_List_val@U?$_List_simple_types@VOrder@BWAPI@@@std@@@std@@U_Iterator_base0@2@@std@@V?$allocator@V?$_List_unchecked_const_iterator@V?$_List_val@U?$_List_simple_types@VOrder@BWAPI@@@std@@@std@@U_Iterator_base0@2@@std@@@2@@std@@AAEXI@Z 10090a20 f i BWAPILIB:Order.obj
 0001:0008fa20       ?_Reallocate_exactly@?$vector@V?$_List_unchecked_const_iterator@V?$_List_val@U?$_List_simple_types@VWeaponType@BWAPI@@@std@@@std@@U_Iterator_base0@2@@std@@V?$allocator@V?$_List_unchecked_const_iterator@V?$_List_val@U?$_List_simple_types@VWeaponType@BWAPI@@@std@@@std@@U_Iterator_base0@2@@std@@@2@@std@@AAEXI@Z 10090a20 f i BWAPILIB:WeaponType.obj
 0001:0008fb20       ??$?0PBH@?$SetContainer@VUpgradeType@BWAPI@@U?$hash@H@std@@@BWAPI@@QAE@PBH0@Z 10090b20 f i BWAPILIB:UnitType.obj
 0001:0008fc20       ??$?0PBH@?$SetContainer@VTechType@BWAPI@@U?$hash@H@std@@@BWAPI@@QAE@PBH0@Z 10090c20 f i BWAPILIB:UnitType.obj
 0001:0008fd20       ??$_Resize@V<lambda_3b68910d29f027af2c1a7db1c8ed951a>@@@?$vector@V?$map@VUnitType@BWAPI@@HU?$less@VUnitType@BWAPI@@@std@@V?$allocator@U?$pair@$$CBVUnitType@BWAPI@@H@std@@@4@@std@@V?$allocator@V?$map@VUnitType@BWAPI@@HU?$less@VUnitType@BWAPI@@@std@@V?$allocator@U?$pair@$$CBVUnitType@BWAPI@@H@std@@@4@@std@@@2@@std@@AAEXIV<lambda_3b68910d29f027af2c1a7db1c8ed951a>@@@Z 10090d20 f i BWAPILIB:UnitType.obj
 0001:0008fed0       ??$_Fill_unchecked@PAV?$_List_unchecked_const_iterator@V?$_List_val@U?$_List_simple_types@VWeaponType@BWAPI@@@std@@@std@@U_Iterator_base0@2@@std@@V12@@std@@YAXPAV?$_List_unchecked_const_iterator@V?$_List_val@U?$_List_simple_types@VWeaponType@BWAPI@@@std@@@std@@U_Iterator_base0@2@@0@0ABV10@@Z 10090ed0 f i BWAPILIB:WeaponType.obj
 0001:0008fed0       ??$_Fill_unchecked@PAV?$_List_unchecked_const_iterator@V?$_List_val@U?$_List_simple_types@VRace@BWAPI@@@std@@@std@@U_Iterator_base0@2@@std@@V12@@std@@YAXPAV?$_List_unchecked_const_iterator@V?$_List_val@U?$_List_simple_types@VRace@BWAPI@@@std@@@std@@U_Iterator_base0@2@@0@0ABV10@@Z 10090ed0 f i BWAPILIB:Race.obj
 0001:0008fed0       ??$_Fill_unchecked@PAV?$_List_unchecked_const_iterator@V?$_List_val@U?$_List_simple_types@VTechType@BWAPI@@@std@@@std@@U_Iterator_base0@2@@std@@V12@@std@@YAXPAV?$_List_unchecked_const_iterator@V?$_List_val@U?$_List_simple_types@VTechType@BWAPI@@@std@@@std@@U_Iterator_base0@2@@0@0ABV10@@Z 10090ed0 f i BWAPILIB:UnitType.obj
 0001:0008fed0       ??$_Fill_unchecked@PAV?$_List_unchecked_const_iterator@V?$_List_val@U?$_List_simple_types@VOrder@BWAPI@@@std@@@std@@U_Iterator_base0@2@@std@@V12@@std@@YAXPAV?$_List_unchecked_const_iterator@V?$_List_val@U?$_List_simple_types@VOrder@BWAPI@@@std@@@std@@U_Iterator_base0@2@@0@0ABV10@@Z 10090ed0 f i BWAPILIB:Order.obj
 0001:0008fed0       ??$_Fill_unchecked@PAV?$_List_unchecked_const_iterator@V?$_List_val@U?$_List_simple_types@VUpgradeType@BWAPI@@@std@@@std@@U_Iterator_base0@2@@std@@V12@@std@@YAXPAV?$_List_unchecked_const_iterator@V?$_List_val@U?$_List_simple_types@VUpgradeType@BWAPI@@@std@@@std@@U_Iterator_base0@2@@0@0ABV10@@Z 10090ed0 f i BWAPILIB:UnitType.obj
 0001:0008fed0       ??$_Fill_unchecked@PAV?$_List_unchecked_const_iterator@V?$_List_val@U?$_List_simple_types@VUnitType@BWAPI@@@std@@@std@@U_Iterator_base0@2@@std@@V12@@std@@YAXPAV?$_List_unchecked_const_iterator@V?$_List_val@U?$_List_simple_types@VUnitType@BWAPI@@@std@@@std@@U_Iterator_base0@2@@0@0ABV10@@Z 10090ed0 f i BWAPILIB:UnitType.obj
 0001:0008fed0       ??$_Fill_unchecked@PAV?$_List_unchecked_const_iterator@V?$_List_val@U?$_List_simple_types@VBulletType@BWAPI@@@std@@@std@@U_Iterator_base0@2@@std@@V12@@std@@YAXPAV?$_List_unchecked_const_iterator@V?$_List_val@U?$_List_simple_types@VBulletType@BWAPI@@@std@@@std@@U_Iterator_base0@2@@0@0ABV10@@Z 10090ed0 f i BWAPILIB:BulletType.obj
 0001:0008ff50       ?_Buynode0@?$_List_alloc@U?$_List_base_types@VTechType@BWAPI@@V?$allocator@VTechType@BWAPI@@@std@@@std@@@std@@QAEPAU?$_List_node@VTechType@BWAPI@@PAX@2@PAU32@0@Z 10090f50 f i BWAPILIB:UnitType.obj
 0001:0008ff50       ?_Buynode0@?$_List_alloc@U?$_List_base_types@VUpgradeType@BWAPI@@V?$allocator@VUpgradeType@BWAPI@@@std@@@std@@@std@@QAEPAU?$_List_node@VUpgradeType@BWAPI@@PAX@2@PAU32@0@Z 10090f50 f i BWAPILIB:UnitType.obj
 0001:0008ff50       ?_Buynode0@?$_List_alloc@U?$_List_base_types@VBulletType@BWAPI@@V?$allocator@VBulletType@BWAPI@@@std@@@std@@@std@@QAEPAU?$_List_node@VBulletType@BWAPI@@PAX@2@PAU32@0@Z 10090f50 f i BWAPILIB:BulletType.obj
 0001:0008ff50       ?_Buynode0@?$_List_alloc@U?$_List_base_types@VUnitType@BWAPI@@V?$allocator@VUnitType@BWAPI@@@std@@@std@@@std@@QAEPAU?$_List_node@VUnitType@BWAPI@@PAX@2@PAU32@0@Z 10090f50 f i BWAPILIB:UnitType.obj
 0001:0008ff50       ?_Buynode0@?$_List_alloc@U?$_List_base_types@VOrder@BWAPI@@V?$allocator@VOrder@BWAPI@@@std@@@std@@@std@@QAEPAU?$_List_node@VOrder@BWAPI@@PAX@2@PAU32@0@Z 10090f50 f i BWAPILIB:Order.obj
 0001:0008ff50       ?_Buynode0@?$_List_alloc@U?$_List_base_types@VRace@BWAPI@@V?$allocator@VRace@BWAPI@@@std@@@std@@@std@@QAEPAU?$_List_node@VRace@BWAPI@@PAX@2@PAU32@0@Z 10090f50 f i BWAPILIB:Race.obj
 0001:0008ff50       ?_Buynode0@?$_List_alloc@U?$_List_base_types@VWeaponType@BWAPI@@V?$allocator@VWeaponType@BWAPI@@@std@@@std@@@std@@QAEPAU?$_List_node@VWeaponType@BWAPI@@PAX@2@PAU32@0@Z 10090f50 f i BWAPILIB:WeaponType.obj
 0001:0008ff80       ??$_Buynode@AAU?$pair@VUnitType@BWAPI@@H@std@@@?$_Tree_comp_alloc@V?$_Tmap_traits@VUnitType@BWAPI@@HU?$less@VUnitType@BWAPI@@@std@@V?$allocator@U?$pair@$$CBVUnitType@BWAPI@@H@std@@@4@$0A@@std@@@std@@QAEPAU?$_Tree_node@U?$pair@$$CBVUnitType@BWAPI@@H@std@@PAX@1@AAU?$pair@VUnitType@BWAPI@@H@1@@Z 10090f80 f i BWAPILIB:UnitType.obj
 0001:0008ffa0       ??$_Insert@AAVTechType@BWAPI@@V?$_List_unchecked_const_iterator@V?$_List_val@U?$_List_simple_types@VTechType@BWAPI@@@std@@@std@@U_Iterator_base0@2@@std@@@?$_Hash@V?$_Uset_traits@VTechType@BWAPI@@V?$_Uhash_compare@VTechType@BWAPI@@U?$hash@H@std@@U?$equal_to@VTechType@BWAPI@@@4@@std@@V?$allocator@VTechType@BWAPI@@@4@$0A@@std@@@std@@IAE?AU?$pair@V?$_List_const_iterator@V?$_List_val@U?$_List_simple_types@VTechType@BWAPI@@@std@@@std@@@std@@_N@1@AAVTechType@BWAPI@@V?$_List_unchecked_const_iterator@V?$_List_val@U?$_List_simple_types@VTechType@BWAPI@@@std@@@std@@U_Iterator_base0@2@@1@@Z 10090fa0 f i BWAPILIB:UnitType.obj
 0001:0008ffa0       ??$_Insert@ABVWeaponType@BWAPI@@V?$_List_unchecked_const_iterator@V?$_List_val@U?$_List_simple_types@VWeaponType@BWAPI@@@std@@@std@@U_Iterator_base0@2@@std@@@?$_Hash@V?$_Uset_traits@VWeaponType@BWAPI@@V?$_Uhash_compare@VWeaponType@BWAPI@@U?$hash@H@std@@U?$equal_to@VWeaponType@BWAPI@@@4@@std@@V?$allocator@VWeaponType@BWAPI@@@4@$0A@@std@@@std@@IAE?AU?$pair@V?$_List_const_iterator@V?$_List_val@U?$_List_simple_types@VWeaponType@BWAPI@@@std@@@std@@@std@@_N@1@ABVWeaponType@BWAPI@@V?$_List_unchecked_const_iterator@V?$_List_val@U?$_List_simple_types@VWeaponType@BWAPI@@@std@@@std@@U_Iterator_base0@2@@1@@Z 10090fa0 f i BWAPILIB:WeaponType.obj
 0001:0008ffa0       ??$_Insert@AAVUpgradeType@BWAPI@@V?$_List_unchecked_const_iterator@V?$_List_val@U?$_List_simple_types@VUpgradeType@BWAPI@@@std@@@std@@U_Iterator_base0@2@@std@@@?$_Hash@V?$_Uset_traits@VUpgradeType@BWAPI@@V?$_Uhash_compare@VUpgradeType@BWAPI@@U?$hash@H@std@@U?$equal_to@VUpgradeType@BWAPI@@@4@@std@@V?$allocator@VUpgradeType@BWAPI@@@4@$0A@@std@@@std@@IAE?AU?$pair@V?$_List_const_iterator@V?$_List_val@U?$_List_simple_types@VUpgradeType@BWAPI@@@std@@@std@@@std@@_N@1@AAVUpgradeType@BWAPI@@V?$_List_unchecked_const_iterator@V?$_List_val@U?$_List_simple_types@VUpgradeType@BWAPI@@@std@@@std@@U_Iterator_base0@2@@1@@Z 10090fa0 f i BWAPILIB:UnitType.obj
 0001:0008ffa0       ??$_Insert@AAVWeaponType@BWAPI@@V?$_List_unchecked_const_iterator@V?$_List_val@U?$_List_simple_types@VWeaponType@BWAPI@@@std@@@std@@U_Iterator_base0@2@@std@@@?$_Hash@V?$_Uset_traits@VWeaponType@BWAPI@@V?$_Uhash_compare@VWeaponType@BWAPI@@U?$hash@H@std@@U?$equal_to@VWeaponType@BWAPI@@@4@@std@@V?$allocator@VWeaponType@BWAPI@@@4@$0A@@std@@@std@@IAE?AU?$pair@V?$_List_const_iterator@V?$_List_val@U?$_List_simple_types@VWeaponType@BWAPI@@@std@@@std@@@std@@_N@1@AAVWeaponType@BWAPI@@V?$_List_unchecked_const_iterator@V?$_List_val@U?$_List_simple_types@VWeaponType@BWAPI@@@std@@@std@@U_Iterator_base0@2@@1@@Z 10090fa0 f i BWAPILIB:WeaponType.obj
 0001:0008ffa0       ??$_Insert@ABVUpgradeType@BWAPI@@V?$_List_unchecked_const_iterator@V?$_List_val@U?$_List_simple_types@VUpgradeType@BWAPI@@@std@@@std@@U_Iterator_base0@2@@std@@@?$_Hash@V?$_Uset_traits@VUpgradeType@BWAPI@@V?$_Uhash_compare@VUpgradeType@BWAPI@@U?$hash@H@std@@U?$equal_to@VUpgradeType@BWAPI@@@4@@std@@V?$allocator@VUpgradeType@BWAPI@@@4@$0A@@std@@@std@@IAE?AU?$pair@V?$_List_const_iterator@V?$_List_val@U?$_List_simple_types@VUpgradeType@BWAPI@@@std@@@std@@@std@@_N@1@ABVUpgradeType@BWAPI@@V?$_List_unchecked_const_iterator@V?$_List_val@U?$_List_simple_types@VUpgradeType@BWAPI@@@std@@@std@@U_Iterator_base0@2@@1@@Z 10090fa0 f i BWAPILIB:UnitType.obj
 0001:0008ffa0       ??$_Insert@AAVUnitType@BWAPI@@V?$_List_unchecked_const_iterator@V?$_List_val@U?$_List_simple_types@VUnitType@BWAPI@@@std@@@std@@U_Iterator_base0@2@@std@@@?$_Hash@V?$_Uset_traits@VUnitType@BWAPI@@V?$_Uhash_compare@VUnitType@BWAPI@@U?$hash@H@std@@U?$equal_to@VUnitType@BWAPI@@@4@@std@@V?$allocator@VUnitType@BWAPI@@@4@$0A@@std@@@std@@IAE?AU?$pair@V?$_List_const_iterator@V?$_List_val@U?$_List_simple_types@VUnitType@BWAPI@@@std@@@std@@@std@@_N@1@AAVUnitType@BWAPI@@V?$_List_unchecked_const_iterator@V?$_List_val@U?$_List_simple_types@VUnitType@BWAPI@@@std@@@std@@U_Iterator_base0@2@@1@@Z 10090fa0 f i BWAPILIB:UnitType.obj
 0001:0008ffa0       ??$_Insert@ABVUnitType@BWAPI@@V?$_List_unchecked_const_iterator@V?$_List_val@U?$_List_simple_types@VUnitType@BWAPI@@@std@@@std@@U_Iterator_base0@2@@std@@@?$_Hash@V?$_Uset_traits@VUnitType@BWAPI@@V?$_Uhash_compare@VUnitType@BWAPI@@U?$hash@H@std@@U?$equal_to@VUnitType@BWAPI@@@4@@std@@V?$allocator@VUnitType@BWAPI@@@4@$0A@@std@@@std@@IAE?AU?$pair@V?$_List_const_iterator@V?$_List_val@U?$_List_simple_types@VUnitType@BWAPI@@@std@@@std@@@std@@_N@1@ABVUnitType@BWAPI@@V?$_List_unchecked_const_iterator@V?$_List_val@U?$_List_simple_types@VUnitType@BWAPI@@@std@@@std@@U_Iterator_base0@2@@1@@Z 10090fa0 f i BWAPILIB:UnitType.obj
 0001:0008ffa0       ??$_Insert@ABVBulletType@BWAPI@@V?$_List_unchecked_const_iterator@V?$_List_val@U?$_List_simple_types@VBulletType@BWAPI@@@std@@@std@@U_Iterator_base0@2@@std@@@?$_Hash@V?$_Uset_traits@VBulletType@BWAPI@@V?$_Uhash_compare@VBulletType@BWAPI@@U?$hash@H@std@@U?$equal_to@VBulletType@BWAPI@@@4@@std@@V?$allocator@VBulletType@BWAPI@@@4@$0A@@std@@@std@@IAE?AU?$pair@V?$_List_const_iterator@V?$_List_val@U?$_List_simple_types@VBulletType@BWAPI@@@std@@@std@@@std@@_N@1@ABVBulletType@BWAPI@@V?$_List_unchecked_const_iterator@V?$_List_val@U?$_List_simple_types@VBulletType@BWAPI@@@std@@@std@@U_Iterator_base0@2@@1@@Z 10090fa0 f i BWAPILIB:BulletType.obj
 0001:0008ffa0       ??$_Insert@ABVTechType@BWAPI@@V?$_List_unchecked_const_iterator@V?$_List_val@U?$_List_simple_types@VTechType@BWAPI@@@std@@@std@@U_Iterator_base0@2@@std@@@?$_Hash@V?$_Uset_traits@VTechType@BWAPI@@V?$_Uhash_compare@VTechType@BWAPI@@U?$hash@H@std@@U?$equal_to@VTechType@BWAPI@@@4@@std@@V?$allocator@VTechType@BWAPI@@@4@$0A@@std@@@std@@IAE?AU?$pair@V?$_List_const_iterator@V?$_List_val@U?$_List_simple_types@VTechType@BWAPI@@@std@@@std@@@std@@_N@1@ABVTechType@BWAPI@@V?$_List_unchecked_const_iterator@V?$_List_val@U?$_List_simple_types@VTechType@BWAPI@@@std@@@std@@U_Iterator_base0@2@@1@@Z 10090fa0 f i BWAPILIB:UnitType.obj
 0001:0008ffa0       ??$_Insert@ABVOrder@BWAPI@@V?$_List_unchecked_const_iterator@V?$_List_val@U?$_List_simple_types@VOrder@BWAPI@@@std@@@std@@U_Iterator_base0@2@@std@@@?$_Hash@V?$_Uset_traits@VOrder@BWAPI@@V?$_Uhash_compare@VOrder@BWAPI@@U?$hash@H@std@@U?$equal_to@VOrder@BWAPI@@@4@@std@@V?$allocator@VOrder@BWAPI@@@4@$0A@@std@@@std@@IAE?AU?$pair@V?$_List_const_iterator@V?$_List_val@U?$_List_simple_types@VOrder@BWAPI@@@std@@@std@@@std@@_N@1@ABVOrder@BWAPI@@V?$_List_unchecked_const_iterator@V?$_List_val@U?$_List_simple_types@VOrder@BWAPI@@@std@@@std@@U_Iterator_base0@2@@1@@Z 10090fa0 f i BWAPILIB:Order.obj
 0001:0008ffa0       ??$_Insert@ABVRace@BWAPI@@V?$_List_unchecked_const_iterator@V?$_List_val@U?$_List_simple_types@VRace@BWAPI@@@std@@@std@@U_Iterator_base0@2@@std@@@?$_Hash@V?$_Uset_traits@VRace@BWAPI@@V?$_Uhash_compare@VRace@BWAPI@@U?$hash@H@std@@U?$equal_to@VRace@BWAPI@@@4@@std@@V?$allocator@VRace@BWAPI@@@4@$0A@@std@@@std@@IAE?AU?$pair@V?$_List_const_iterator@V?$_List_val@U?$_List_simple_types@VRace@BWAPI@@@std@@@std@@@std@@_N@1@ABVRace@BWAPI@@V?$_List_unchecked_const_iterator@V?$_List_val@U?$_List_simple_types@VRace@BWAPI@@@std@@@std@@U_Iterator_base0@2@@1@@Z 10090fa0 f i BWAPILIB:Race.obj
 0001:00090110       ?_Check_size@?$_Hash@V?$_Uset_traits@VWeaponType@BWAPI@@V?$_Uhash_compare@VWeaponType@BWAPI@@U?$hash@H@std@@U?$equal_to@VWeaponType@BWAPI@@@4@@std@@V?$allocator@VWeaponType@BWAPI@@@4@$0A@@std@@@std@@IAEXXZ 10091110 f i BWAPILIB:WeaponType.obj
 0001:00090110       ?_Check_size@?$_Hash@V?$_Uset_traits@VUnitType@BWAPI@@V?$_Uhash_compare@VUnitType@BWAPI@@U?$hash@H@std@@U?$equal_to@VUnitType@BWAPI@@@4@@std@@V?$allocator@VUnitType@BWAPI@@@4@$0A@@std@@@std@@IAEXXZ 10091110 f i BWAPILIB:UnitType.obj
 0001:00090110       ?_Check_size@?$_Hash@V?$_Uset_traits@VOrder@BWAPI@@V?$_Uhash_compare@VOrder@BWAPI@@U?$hash@H@std@@U?$equal_to@VOrder@BWAPI@@@4@@std@@V?$allocator@VOrder@BWAPI@@@4@$0A@@std@@@std@@IAEXXZ 10091110 f i BWAPILIB:Order.obj
 0001:00090110       ?_Check_size@?$_Hash@V?$_Uset_traits@VBulletType@BWAPI@@V?$_Uhash_compare@VBulletType@BWAPI@@U?$hash@H@std@@U?$equal_to@VBulletType@BWAPI@@@4@@std@@V?$allocator@VBulletType@BWAPI@@@4@$0A@@std@@@std@@IAEXXZ 10091110 f i BWAPILIB:BulletType.obj
 0001:00090110       ?_Check_size@?$_Hash@V?$_Uset_traits@VRace@BWAPI@@V?$_Uhash_compare@VRace@BWAPI@@U?$hash@H@std@@U?$equal_to@VRace@BWAPI@@@4@@std@@V?$allocator@VRace@BWAPI@@@4@$0A@@std@@@std@@IAEXXZ 10091110 f i BWAPILIB:Race.obj
 0001:00090110       ?_Check_size@?$_Hash@V?$_Uset_traits@VTechType@BWAPI@@V?$_Uhash_compare@VTechType@BWAPI@@U?$hash@H@std@@U?$equal_to@VTechType@BWAPI@@@4@@std@@V?$allocator@VTechType@BWAPI@@@4@$0A@@std@@@std@@IAEXXZ 10091110 f i BWAPILIB:UnitType.obj
 0001:00090110       ?_Check_size@?$_Hash@V?$_Uset_traits@VUpgradeType@BWAPI@@V?$_Uhash_compare@VUpgradeType@BWAPI@@U?$hash@H@std@@U?$equal_to@VUpgradeType@BWAPI@@@4@@std@@V?$allocator@VUpgradeType@BWAPI@@@4@$0A@@std@@@std@@IAEXXZ 10091110 f i BWAPILIB:UnitType.obj
 0001:000901b0       ?_Insert_bucket@?$_Hash@V?$_Uset_traits@VUpgradeType@BWAPI@@V?$_Uhash_compare@VUpgradeType@BWAPI@@U?$hash@H@std@@U?$equal_to@VUpgradeType@BWAPI@@@4@@std@@V?$allocator@VUpgradeType@BWAPI@@@4@$0A@@std@@@std@@IAEXV?$_List_unchecked_const_iterator@V?$_List_val@U?$_List_simple_types@VUpgradeType@BWAPI@@@std@@@std@@U_Iterator_base0@2@@2@0I@Z 100911b0 f i BWAPILIB:UnitType.obj
 0001:000901b0       ?_Insert_bucket@?$_Hash@V?$_Uset_traits@VWeaponType@BWAPI@@V?$_Uhash_compare@VWeaponType@BWAPI@@U?$hash@H@std@@U?$equal_to@VWeaponType@BWAPI@@@4@@std@@V?$allocator@VWeaponType@BWAPI@@@4@$0A@@std@@@std@@IAEXV?$_List_unchecked_const_iterator@V?$_List_val@U?$_List_simple_types@VWeaponType@BWAPI@@@std@@@std@@U_Iterator_base0@2@@2@0I@Z 100911b0 f i BWAPILIB:WeaponType.obj
 0001:000901b0       ?_Insert_bucket@?$_Hash@V?$_Uset_traits@VBulletType@BWAPI@@V?$_Uhash_compare@VBulletType@BWAPI@@U?$hash@H@std@@U?$equal_to@VBulletType@BWAPI@@@4@@std@@V?$allocator@VBulletType@BWAPI@@@4@$0A@@std@@@std@@IAEXV?$_List_unchecked_const_iterator@V?$_List_val@U?$_List_simple_types@VBulletType@BWAPI@@@std@@@std@@U_Iterator_base0@2@@2@0I@Z 100911b0 f i BWAPILIB:BulletType.obj
 0001:000901b0       ?_Insert_bucket@?$_Hash@V?$_Uset_traits@VRace@BWAPI@@V?$_Uhash_compare@VRace@BWAPI@@U?$hash@H@std@@U?$equal_to@VRace@BWAPI@@@4@@std@@V?$allocator@VRace@BWAPI@@@4@$0A@@std@@@std@@IAEXV?$_List_unchecked_const_iterator@V?$_List_val@U?$_List_simple_types@VRace@BWAPI@@@std@@@std@@U_Iterator_base0@2@@2@0I@Z 100911b0 f i BWAPILIB:Race.obj
 0001:000901b0       ?_Insert_bucket@?$_Hash@V?$_Uset_traits@VUnitType@BWAPI@@V?$_Uhash_compare@VUnitType@BWAPI@@U?$hash@H@std@@U?$equal_to@VUnitType@BWAPI@@@4@@std@@V?$allocator@VUnitType@BWAPI@@@4@$0A@@std@@@std@@IAEXV?$_List_unchecked_const_iterator@V?$_List_val@U?$_List_simple_types@VUnitType@BWAPI@@@std@@@std@@U_Iterator_base0@2@@2@0I@Z 100911b0 f i BWAPILIB:UnitType.obj
 0001:000901b0       ?_Insert_bucket@?$_Hash@V?$_Uset_traits@VTechType@BWAPI@@V?$_Uhash_compare@VTechType@BWAPI@@U?$hash@H@std@@U?$equal_to@VTechType@BWAPI@@@4@@std@@V?$allocator@VTechType@BWAPI@@@4@$0A@@std@@@std@@IAEXV?$_List_unchecked_const_iterator@V?$_List_val@U?$_List_simple_types@VTechType@BWAPI@@@std@@@std@@U_Iterator_base0@2@@2@0I@Z 100911b0 f i BWAPILIB:UnitType.obj
 0001:000901b0       ?_Insert_bucket@?$_Hash@V?$_Uset_traits@VOrder@BWAPI@@V?$_Uhash_compare@VOrder@BWAPI@@U?$hash@H@std@@U?$equal_to@VOrder@BWAPI@@@4@@std@@V?$allocator@VOrder@BWAPI@@@4@$0A@@std@@@std@@IAEXV?$_List_unchecked_const_iterator@V?$_List_val@U?$_List_simple_types@VOrder@BWAPI@@@std@@@std@@U_Iterator_base0@2@@2@0I@Z 100911b0 f i BWAPILIB:Order.obj
 0001:00090210       ?erase@?$_Hash@V?$_Uset_traits@VWeaponType@BWAPI@@V?$_Uhash_compare@VWeaponType@BWAPI@@U?$hash@H@std@@U?$equal_to@VWeaponType@BWAPI@@@4@@std@@V?$allocator@VWeaponType@BWAPI@@@4@$0A@@std@@@std@@QAE?AV?$_List_const_iterator@V?$_List_val@U?$_List_simple_types@VWeaponType@BWAPI@@@std@@@std@@@2@V32@@Z 10091210 f i BWAPILIB:WeaponType.obj
 0001:00090210       ?erase@?$_Hash@V?$_Uset_traits@VUpgradeType@BWAPI@@V?$_Uhash_compare@VUpgradeType@BWAPI@@U?$hash@H@std@@U?$equal_to@VUpgradeType@BWAPI@@@4@@std@@V?$allocator@VUpgradeType@BWAPI@@@4@$0A@@std@@@std@@QAE?AV?$_List_const_iterator@V?$_List_val@U?$_List_simple_types@VUpgradeType@BWAPI@@@std@@@std@@@2@V32@@Z 10091210 f i BWAPILIB:UnitType.obj
 0001:00090210       ?erase@?$_Hash@V?$_Uset_traits@VUnitType@BWAPI@@V?$_Uhash_compare@VUnitType@BWAPI@@U?$hash@H@std@@U?$equal_to@VUnitType@BWAPI@@@4@@std@@V?$allocator@VUnitType@BWAPI@@@4@$0A@@std@@@std@@QAE?AV?$_List_const_iterator@V?$_List_val@U?$_List_simple_types@VUnitType@BWAPI@@@std@@@std@@@2@V32@@Z 10091210 f i BWAPILIB:UnitType.obj
 0001:00090210       ?erase@?$_Hash@V?$_Uset_traits@VTechType@BWAPI@@V?$_Uhash_compare@VTechType@BWAPI@@U?$hash@H@std@@U?$equal_to@VTechType@BWAPI@@@4@@std@@V?$allocator@VTechType@BWAPI@@@4@$0A@@std@@@std@@QAE?AV?$_List_const_iterator@V?$_List_val@U?$_List_simple_types@VTechType@BWAPI@@@std@@@std@@@2@V32@@Z 10091210 f i BWAPILIB:UnitType.obj
 0001:00090210       ?erase@?$_Hash@V?$_Uset_traits@VOrder@BWAPI@@V?$_Uhash_compare@VOrder@BWAPI@@U?$hash@H@std@@U?$equal_to@VOrder@BWAPI@@@4@@std@@V?$allocator@VOrder@BWAPI@@@4@$0A@@std@@@std@@QAE?AV?$_List_const_iterator@V?$_List_val@U?$_List_simple_types@VOrder@BWAPI@@@std@@@std@@@2@V32@@Z 10091210 f i BWAPILIB:Order.obj
 0001:00090210       ?erase@?$_Hash@V?$_Uset_traits@VBulletType@BWAPI@@V?$_Uhash_compare@VBulletType@BWAPI@@U?$hash@H@std@@U?$equal_to@VBulletType@BWAPI@@@4@@std@@V?$allocator@VBulletType@BWAPI@@@4@$0A@@std@@@std@@QAE?AV?$_List_const_iterator@V?$_List_val@U?$_List_simple_types@VBulletType@BWAPI@@@std@@@std@@@2@V32@@Z 10091210 f i BWAPILIB:BulletType.obj
 0001:00090210       ?erase@?$_Hash@V?$_Uset_traits@VRace@BWAPI@@V?$_Uhash_compare@VRace@BWAPI@@U?$hash@H@std@@U?$equal_to@VRace@BWAPI@@@4@@std@@V?$allocator@VRace@BWAPI@@@4@$0A@@std@@@std@@QAE?AV?$_List_const_iterator@V?$_List_val@U?$_List_simple_types@VRace@BWAPI@@@std@@@std@@@2@V32@@Z 10091210 f i BWAPILIB:Race.obj
 0001:000902d0       ?_Make_iter@?$_Hash@V?$_Uset_traits@VUpgradeType@BWAPI@@V?$_Uhash_compare@VUpgradeType@BWAPI@@U?$hash@H@std@@U?$equal_to@VUpgradeType@BWAPI@@@4@@std@@V?$allocator@VUpgradeType@BWAPI@@@4@$0A@@std@@@std@@QBE?AV?$_List_const_iterator@V?$_List_val@U?$_List_simple_types@VUpgradeType@BWAPI@@@std@@@std@@@2@V?$_List_unchecked_const_iterator@V?$_List_val@U?$_List_simple_types@VUpgradeType@BWAPI@@@std@@@std@@U_Iterator_base0@2@@2@@Z 100912d0 f i BWAPILIB:UnitType.obj
 0001:000902d0       ?_Make_iter@?$_Hash@V?$_Uset_traits@VWeaponType@BWAPI@@V?$_Uhash_compare@VWeaponType@BWAPI@@U?$hash@H@std@@U?$equal_to@VWeaponType@BWAPI@@@4@@std@@V?$allocator@VWeaponType@BWAPI@@@4@$0A@@std@@@std@@QBE?AV?$_List_const_iterator@V?$_List_val@U?$_List_simple_types@VWeaponType@BWAPI@@@std@@@std@@@2@V?$_List_unchecked_const_iterator@V?$_List_val@U?$_List_simple_types@VWeaponType@BWAPI@@@std@@@std@@U_Iterator_base0@2@@2@@Z 100912d0 f i BWAPILIB:WeaponType.obj
 0001:000902d0       ?_Make_iter@?$_Hash@V?$_Uset_traits@VRace@BWAPI@@V?$_Uhash_compare@VRace@BWAPI@@U?$hash@H@std@@U?$equal_to@VRace@BWAPI@@@4@@std@@V?$allocator@VRace@BWAPI@@@4@$0A@@std@@@std@@QBE?AV?$_List_const_iterator@V?$_List_val@U?$_List_simple_types@VRace@BWAPI@@@std@@@std@@@2@V?$_List_unchecked_const_iterator@V?$_List_val@U?$_List_simple_types@VRace@BWAPI@@@std@@@std@@U_Iterator_base0@2@@2@@Z 100912d0 f i BWAPILIB:Race.obj
 0001:000902d0       ?_Make_iter@?$_Hash@V?$_Uset_traits@VOrder@BWAPI@@V?$_Uhash_compare@VOrder@BWAPI@@U?$hash@H@std@@U?$equal_to@VOrder@BWAPI@@@4@@std@@V?$allocator@VOrder@BWAPI@@@4@$0A@@std@@@std@@QBE?AV?$_List_const_iterator@V?$_List_val@U?$_List_simple_types@VOrder@BWAPI@@@std@@@std@@@2@V?$_List_unchecked_const_iterator@V?$_List_val@U?$_List_simple_types@VOrder@BWAPI@@@std@@@std@@U_Iterator_base0@2@@2@@Z 100912d0 f i BWAPILIB:Order.obj
 0001:000902d0       ?_Make_iter@?$_Hash@V?$_Uset_traits@VBulletType@BWAPI@@V?$_Uhash_compare@VBulletType@BWAPI@@U?$hash@H@std@@U?$equal_to@VBulletType@BWAPI@@@4@@std@@V?$allocator@VBulletType@BWAPI@@@4@$0A@@std@@@std@@QBE?AV?$_List_const_iterator@V?$_List_val@U?$_List_simple_types@VBulletType@BWAPI@@@std@@@std@@@2@V?$_List_unchecked_const_iterator@V?$_List_val@U?$_List_simple_types@VBulletType@BWAPI@@@std@@@std@@U_Iterator_base0@2@@2@@Z 100912d0 f i BWAPILIB:BulletType.obj
 0001:000902d0       ?_Make_iter@?$_Hash@V?$_Uset_traits@VTechType@BWAPI@@V?$_Uhash_compare@VTechType@BWAPI@@U?$hash@H@std@@U?$equal_to@VTechType@BWAPI@@@4@@std@@V?$allocator@VTechType@BWAPI@@@4@$0A@@std@@@std@@QBE?AV?$_List_const_iterator@V?$_List_val@U?$_List_simple_types@VTechType@BWAPI@@@std@@@std@@@2@V?$_List_unchecked_const_iterator@V?$_List_val@U?$_List_simple_types@VTechType@BWAPI@@@std@@@std@@U_Iterator_base0@2@@2@@Z 100912d0 f i BWAPILIB:UnitType.obj
 0001:000902d0       ?_Make_iter@?$_Hash@V?$_Uset_traits@VUnitType@BWAPI@@V?$_Uhash_compare@VUnitType@BWAPI@@U?$hash@H@std@@U?$equal_to@VUnitType@BWAPI@@@4@@std@@V?$allocator@VUnitType@BWAPI@@@4@$0A@@std@@@std@@QBE?AV?$_List_const_iterator@V?$_List_val@U?$_List_simple_types@VUnitType@BWAPI@@@std@@@std@@@2@V?$_List_unchecked_const_iterator@V?$_List_val@U?$_List_simple_types@VUnitType@BWAPI@@@std@@@std@@U_Iterator_base0@2@@2@@Z 100912d0 f i BWAPILIB:UnitType.obj
 0001:000902e0       ??$_Buynode@ABVUpgradeType@BWAPI@@@?$_List_buy@VUpgradeType@BWAPI@@V?$allocator@VUpgradeType@BWAPI@@@std@@@std@@QAEPAU?$_List_node@VUpgradeType@BWAPI@@PAX@1@PAU21@0ABVUpgradeType@BWAPI@@@Z 100912e0 f i BWAPILIB:UnitType.obj
 0001:000902e0       ??$_Buynode@ABVBulletType@BWAPI@@@?$_List_buy@VBulletType@BWAPI@@V?$allocator@VBulletType@BWAPI@@@std@@@std@@QAEPAU?$_List_node@VBulletType@BWAPI@@PAX@1@PAU21@0ABVBulletType@BWAPI@@@Z 100912e0 f i BWAPILIB:BulletType.obj
 0001:000902e0       ??$_Buynode@ABVRace@BWAPI@@@?$_List_buy@VRace@BWAPI@@V?$allocator@VRace@BWAPI@@@std@@@std@@QAEPAU?$_List_node@VRace@BWAPI@@PAX@1@PAU21@0ABVRace@BWAPI@@@Z 100912e0 f i BWAPILIB:Race.obj
 0001:000902e0       ??$_Buynode@ABVWeaponType@BWAPI@@@?$_List_buy@VWeaponType@BWAPI@@V?$allocator@VWeaponType@BWAPI@@@std@@@std@@QAEPAU?$_List_node@VWeaponType@BWAPI@@PAX@1@PAU21@0ABVWeaponType@BWAPI@@@Z 100912e0 f i BWAPILIB:WeaponType.obj
 0001:000902e0       ??$_Buynode@ABVOrder@BWAPI@@@?$_List_buy@VOrder@BWAPI@@V?$allocator@VOrder@BWAPI@@@std@@@std@@QAEPAU?$_List_node@VOrder@BWAPI@@PAX@1@PAU21@0ABVOrder@BWAPI@@@Z 100912e0 f i BWAPILIB:Order.obj
 0001:000902e0       ??$_Buynode@ABVTechType@BWAPI@@@?$_List_buy@VTechType@BWAPI@@V?$allocator@VTechType@BWAPI@@@std@@@std@@QAEPAU?$_List_node@VTechType@BWAPI@@PAX@1@PAU21@0ABVTechType@BWAPI@@@Z 100912e0 f i BWAPILIB:UnitType.obj
 0001:000902e0       ??$_Buynode@ABVUnitType@BWAPI@@@?$_List_buy@VUnitType@BWAPI@@V?$allocator@VUnitType@BWAPI@@@std@@@std@@QAEPAU?$_List_node@VUnitType@BWAPI@@PAX@1@PAU21@0ABVUnitType@BWAPI@@@Z 100912e0 f i BWAPILIB:UnitType.obj
 0001:00090300       ??$_Buynode@ABH@?$_List_buy@VUpgradeType@BWAPI@@V?$allocator@VUpgradeType@BWAPI@@@std@@@std@@QAEPAU?$_List_node@VUpgradeType@BWAPI@@PAX@1@PAU21@0ABH@Z 10091300 f i BWAPILIB:UnitType.obj
 0001:00090330       ??$_Buynode@ABH@?$_List_buy@VTechType@BWAPI@@V?$allocator@VTechType@BWAPI@@@std@@@std@@QAEPAU?$_List_node@VTechType@BWAPI@@PAX@1@PAU21@0ABH@Z 10091330 f i BWAPILIB:UnitType.obj
 0001:00090360       ?getTilePosition@UnitInterface@BWAPI@@QBE?AV?$Point@H$0CA@@2@XZ 10091360 f   BWAPILIB:Unit.obj
 0001:00090400       ?getDistance@UnitInterface@BWAPI@@QBEHV?$Point@H$00@2@@Z 10091400 f   BWAPILIB:Unit.obj
 0001:00090530       ?getDistance@UnitInterface@BWAPI@@QBEHPAV12@@Z 10091530 f   BWAPILIB:Unit.obj
 0001:00090620       ?getLeft@UnitInterface@BWAPI@@QBEHXZ 10091620 f   BWAPILIB:Unit.obj
 0001:00090660       ?getTop@UnitInterface@BWAPI@@QBEHXZ 10091660 f   BWAPILIB:Unit.obj
 0001:000906a0       ?getRight@UnitInterface@BWAPI@@QBEHXZ 100916a0 f   BWAPILIB:Unit.obj
 0001:000906e0       ?getBottom@UnitInterface@BWAPI@@QBEHXZ 100916e0 f   BWAPILIB:Unit.obj
 0001:00090720       ?isBeingConstructed@UnitInterface@BWAPI@@QBE_NXZ 10091720 f   BWAPILIB:Unit.obj
 0001:00090780       ?isFlying@UnitInterface@BWAPI@@QBE_NXZ 10091780 f   BWAPILIB:Unit.obj
 0001:000907c0       ?isInWeaponRange@UnitInterface@BWAPI@@QBE_NPAV12@@Z 100917c0 f   BWAPILIB:Unit.obj
 0001:00090890       ?isRepairing@UnitInterface@BWAPI@@QBE_NXZ 10091890 f   BWAPILIB:Unit.obj
 0001:000908b0       ?isResearching@UnitInterface@BWAPI@@QBE_NXZ 100918b0 f   BWAPILIB:Unit.obj
 0001:000908d0       ?isSieged@UnitInterface@BWAPI@@QBE_NXZ 100918d0 f   BWAPILIB:Unit.obj
 0001:000908f0       ?getSpaceRemaining@UnitInterface@BWAPI@@QBEHXZ 100918f0 f   BWAPILIB:Unit.obj
 0001:00090980       ?buildAddon@UnitInterface@BWAPI@@QAE_NVUnitType@2@@Z 10091980 f   BWAPILIB:Unit.obj
 0001:000909e0       ?train@UnitInterface@BWAPI@@QAE_NVUnitType@2@@Z 100919e0 f   BWAPILIB:Unit.obj
 0001:00090aa0       ?rightClick@UnitInterface@BWAPI@@QAE_NPAV12@_N@Z 10091aa0 f   BWAPILIB:Unit.obj
 0001:00090b00       ?useTech@UnitInterface@BWAPI@@QAE_NVTechType@2@V?$Point@H$00@2@@Z 10091b00 f   BWAPILIB:Unit.obj
 0001:00090b80       ?useTech@UnitInterface@BWAPI@@QAE_NVTechType@2@PAV12@@Z 10091b80 f   BWAPILIB:Unit.obj
 0001:00090c20       ?isValid@?$Point@H$00@BWAPI@@QBE_NXZ 10091c20 f i BWAPILIB:Position.obj
 0001:00090c80       ?makeValid@?$Point@H$00@BWAPI@@QAEAAV12@XZ 10091c80 f i BWAPILIB:Position.obj
 0001:00090d10       ?isValid@?$Point@H$0CA@@BWAPI@@QBE_NXZ 10091d10 f i BWAPILIB:Position.obj
 0001:00090d80       ?makeValid@?$Point@H$0CA@@BWAPI@@QAEAAV12@XZ 10091d80 f i BWAPILIB:Position.obj
 0001:00090e20       ?sendText@Game@BWAPI@@QAAXPBDZZ 10091e20 f   BWAPILIB:Game.obj
 0001:00090e40       ?printf@Game@BWAPI@@QAAXPBDZZ 10091e40 f   BWAPILIB:Game.obj
 0001:00090e60       ?getUnitsOnTile@Game@BWAPI@@QBE?AVUnitset@2@V?$Point@H$0CA@@2@ABV?$UnaryFilter@PAVUnitInterface@BWAPI@@V?$function@$$A6A_NPAVUnitInterface@BWAPI@@@Z@std@@@2@@Z 10091e60 f   BWAPILIB:Game.obj
 0001:00090f30       ?getUnitsInRadius@Game@BWAPI@@QBE?AVUnitset@2@V?$Point@H$00@2@HABV?$UnaryFilter@PAVUnitInterface@BWAPI@@V?$function@$$A6A_NPAVUnitInterface@BWAPI@@@Z@std@@@2@@Z 10091f30 f   BWAPILIB:Game.obj
 0001:00091010       ?getClosestUnit@Game@BWAPI@@QBEPAVUnitInterface@2@V?$Point@H$00@2@ABV?$UnaryFilter@PAVUnitInterface@BWAPI@@V?$function@$$A6A_NPAVUnitInterface@BWAPI@@@Z@std@@@2@H@Z 10092010 f   BWAPILIB:Game.obj
 0001:000910d0       ?drawTextMap@Game@BWAPI@@QAAXHHPBDZZ 100920d0 f   BWAPILIB:Game.obj
 0001:000910d0       ?drawTextMap@Game@BWAPI@@QAAXV?$Point@H$00@2@PBDZZ 100920d0 f   BWAPILIB:Game.obj
 0001:000910f0       ?drawTextScreen@Game@BWAPI@@QAAXHHPBDZZ 100920f0 f   BWAPILIB:Game.obj
 0001:00091110       ?drawLineMap@Game@BWAPI@@QAEXV?$Point@H$00@2@0VColor@2@@Z 10092110 f   BWAPILIB:Game.obj
 0001:00091140       ??_G?$basic_ostringstream@DU?$char_traits@D@std@@V?$allocator@D@2@@std@@UAEPAXI@Z 10092140 f i BWAPILIB:Game.obj
 0001:00091140       ??_E?$basic_ostringstream@DU?$char_traits@D@std@@V?$allocator@D@2@@std@@UAEPAXI@Z 10092140 f i * CIL library *:* CIL module *
 0001:0009130a       ??_E?$basic_ostringstream@DU?$char_traits@D@std@@V?$allocator@D@2@@std@@$4PPPPPPPM@A@AEPAXI@Z 1009230a f i BWAPILIB:Game.obj
 0001:00091320       ?IsTransportImpl@Filter@BWAPI@@YA_NPAVUnitInterface@2@@Z 10092320 f   BWAPILIB:Filters.obj
 0001:00091360       ?CanProduceImpl@Filter@BWAPI@@YA_NPAVUnitInterface@2@@Z 10092360 f   BWAPILIB:Filters.obj
 0001:00091380       ?CanAttackImpl@Filter@BWAPI@@YA_NPAVUnitInterface@2@@Z 10092380 f   BWAPILIB:Filters.obj
 0001:000913a0       ?CanMoveImpl@Filter@BWAPI@@YA_NPAVUnitInterface@2@@Z 100923a0 f   BWAPILIB:Filters.obj
 0001:000913c0       ?IsFlyerImpl@Filter@BWAPI@@YA_NPAVUnitInterface@2@@Z 100923c0 f   BWAPILIB:Filters.obj
 0001:000913e0       ?IsFlyingImpl@Filter@BWAPI@@YA_NPAVUnitInterface@2@@Z 100923e0 f   BWAPILIB:Filters.obj
 0001:00091420       ?RegeneratesHPImpl@Filter@BWAPI@@YA_NPAVUnitInterface@2@@Z 10092420 f   BWAPILIB:Filters.obj
 0001:00091440       ?IsSpellcasterImpl@Filter@BWAPI@@YA_NPAVUnitInterface@2@@Z 10092440 f   BWAPILIB:Filters.obj
 0001:00091460       ?HasPermanentCloakImpl@Filter@BWAPI@@YA_NPAVUnitInterface@2@@Z 10092460 f   BWAPILIB:Filters.obj
 0001:00091480       ?IsOrganicImpl@Filter@BWAPI@@YA_NPAVUnitInterface@2@@Z 10092480 f   BWAPILIB:Filters.obj
 0001:000914a0       ?IsMechanicalImpl@Filter@BWAPI@@YA_NPAVUnitInterface@2@@Z 100924a0 f   BWAPILIB:Filters.obj
 0001:000914c0       ?IsRoboticImpl@Filter@BWAPI@@YA_NPAVUnitInterface@2@@Z 100924c0 f   BWAPILIB:Filters.obj
 0001:000914e0       ?IsDetectorImpl@Filter@BWAPI@@YA_NPAVUnitInterface@2@@Z 100924e0 f   BWAPILIB:Filters.obj
 0001:00091500       ?IsResourceContainerImpl@Filter@BWAPI@@YA_NPAVUnitInterface@2@@Z 10092500 f   BWAPILIB:Filters.obj
 0001:00091520       ?IsResourceDepotImpl@Filter@BWAPI@@YA_NPAVUnitInterface@2@@Z 10092520 f   BWAPILIB:Filters.obj
 0001:00091540       ?IsRefineryImpl@Filter@BWAPI@@YA_NPAVUnitInterface@2@@Z 10092540 f   BWAPILIB:Filters.obj
 0001:00091570       ?IsWorkerImpl@Filter@BWAPI@@YA_NPAVUnitInterface@2@@Z 10092570 f   BWAPILIB:Filters.obj
 0001:00091590       ?RequiresPsiImpl@Filter@BWAPI@@YA_NPAVUnitInterface@2@@Z 10092590 f   BWAPILIB:Filters.obj
 0001:000915b0       ?RequiresCreepImpl@Filter@BWAPI@@YA_NPAVUnitInterface@2@@Z 100925b0 f   BWAPILIB:Filters.obj
 0001:000915d0       ?IsBurrowableImpl@Filter@BWAPI@@YA_NPAVUnitInterface@2@@Z 100925d0 f   BWAPILIB:Filters.obj
 0001:000915f0       ?IsCloakableImpl@Filter@BWAPI@@YA_NPAVUnitInterface@2@@Z 100925f0 f   BWAPILIB:Filters.obj
 0001:00091610       ?IsBuildingImpl@Filter@BWAPI@@YA_NPAVUnitInterface@2@@Z 10092610 f   BWAPILIB:Filters.obj
 0001:00091630       ?IsAddonImpl@Filter@BWAPI@@YA_NPAVUnitInterface@2@@Z 10092630 f   BWAPILIB:Filters.obj
 0001:00091650       ?IsFlyingBuildingImpl@Filter@BWAPI@@YA_NPAVUnitInterface@2@@Z 10092650 f   BWAPILIB:Filters.obj
 0001:00091670       ?IsNeutralImpl@Filter@BWAPI@@YA_NPAVUnitInterface@2@@Z 10092670 f   BWAPILIB:Filters.obj
 0001:000916e0       ?IsHeroImpl@Filter@BWAPI@@YA_NPAVUnitInterface@2@@Z 100926e0 f   BWAPILIB:Filters.obj
 0001:00091710       ?IsPowerupImpl@Filter@BWAPI@@YA_NPAVUnitInterface@2@@Z 10092710 f   BWAPILIB:Filters.obj
 0001:00091750       ?IsBeaconImpl@Filter@BWAPI@@YA_NPAVUnitInterface@2@@Z 10092750 f   BWAPILIB:Filters.obj
 0001:00091780       ?IsFlagBeaconImpl@Filter@BWAPI@@YA_NPAVUnitInterface@2@@Z 10092780 f   BWAPILIB:Filters.obj
 0001:000917b0       ?IsSpecialBuildingImpl@Filter@BWAPI@@YA_NPAVUnitInterface@2@@Z 100927b0 f   BWAPILIB:Filters.obj
 0001:000917f0       ?IsSpellImpl@Filter@BWAPI@@YA_NPAVUnitInterface@2@@Z 100927f0 f   BWAPILIB:Filters.obj
 0001:00091820       ?ProducesLarvaImpl@Filter@BWAPI@@YA_NPAVUnitInterface@2@@Z 10092820 f   BWAPILIB:Filters.obj
 0001:00091850       ?IsMineralFieldImpl@Filter@BWAPI@@YA_NPAVUnitInterface@2@@Z 10092850 f   BWAPILIB:Filters.obj
 0001:00091880       ?IsCritterImpl@Filter@BWAPI@@YA_NPAVUnitInterface@2@@Z 10092880 f   BWAPILIB:Filters.obj
 0001:000918c0       ?CanBuildAddonImpl@Filter@BWAPI@@YA_NPAVUnitInterface@2@@Z 100928c0 f   BWAPILIB:Filters.obj
 0001:000918f0       ?HPImpl@Filter@BWAPI@@YAHPAVUnitInterface@2@@Z 100928f0 f   BWAPILIB:Filters.obj
 0001:00091900       ?MaxHPImpl@Filter@BWAPI@@YAHPAVUnitInterface@2@@Z 10092900 f   BWAPILIB:Filters.obj
 0001:00091920       ?HP_PercentImpl@Filter@BWAPI@@YAHPAVUnitInterface@2@@Z 10092920 f   BWAPILIB:Filters.obj
 0001:00091970       ?ShieldsImpl@Filter@BWAPI@@YAHPAVUnitInterface@2@@Z 10092970 f   BWAPILIB:Filters.obj
 0001:00091980       ?MaxShieldsImpl@Filter@BWAPI@@YAHPAVUnitInterface@2@@Z 10092980 f   BWAPILIB:Filters.obj
 0001:000919a0       ?Shields_PercentImpl@Filter@BWAPI@@YAHPAVUnitInterface@2@@Z 100929a0 f   BWAPILIB:Filters.obj
 0001:000919f0       ?EnergyImpl@Filter@BWAPI@@YAHPAVUnitInterface@2@@Z 100929f0 f   BWAPILIB:Filters.obj
 0001:00091a00       ?MaxEnergyImpl@Filter@BWAPI@@YAHPAVUnitInterface@2@@Z 10092a00 f   BWAPILIB:Filters.obj
 0001:00091a30       ?Energy_PercentImpl@Filter@BWAPI@@YAHPAVUnitInterface@2@@Z 10092a30 f   BWAPILIB:Filters.obj
 0001:00091a90       ?ArmorImpl@Filter@BWAPI@@YAHPAVUnitInterface@2@@Z 10092a90 f   BWAPILIB:Filters.obj
 0001:00091af0       ?ArmorUpgradeImpl@Filter@BWAPI@@YA?AVUpgradeType@2@PAVUnitInterface@2@@Z 10092af0 f   BWAPILIB:Filters.obj
 0001:00091b10       ?MineralPriceImpl@Filter@BWAPI@@YAHPAVUnitInterface@2@@Z 10092b10 f   BWAPILIB:Filters.obj
 0001:00091b30       ?GasPriceImpl@Filter@BWAPI@@YAHPAVUnitInterface@2@@Z 10092b30 f   BWAPILIB:Filters.obj
 0001:00091b50       ?BuildTimeImpl@Filter@BWAPI@@YAHPAVUnitInterface@2@@Z 10092b50 f   BWAPILIB:Filters.obj
 0001:00091b70       ?SupplyRequiredImpl@Filter@BWAPI@@YAHPAVUnitInterface@2@@Z 10092b70 f   BWAPILIB:Filters.obj
 0001:00091b90       ?SupplyProvidedImpl@Filter@BWAPI@@YAHPAVUnitInterface@2@@Z 10092b90 f   BWAPILIB:Filters.obj
 0001:00091bb0       ?SpaceRequiredImpl@Filter@BWAPI@@YAHPAVUnitInterface@2@@Z 10092bb0 f   BWAPILIB:Filters.obj
 0001:00091bd0       ?SpaceRemainingImpl@Filter@BWAPI@@YAHPAVUnitInterface@2@@Z 10092bd0 f   BWAPILIB:Filters.obj
 0001:00091be0       ?SpaceProvidedImpl@Filter@BWAPI@@YAHPAVUnitInterface@2@@Z 10092be0 f   BWAPILIB:Filters.obj
 0001:00091c00       ?BuildScoreImpl@Filter@BWAPI@@YAHPAVUnitInterface@2@@Z 10092c00 f   BWAPILIB:Filters.obj
 0001:00091c20       ?DestroyScoreImpl@Filter@BWAPI@@YAHPAVUnitInterface@2@@Z 10092c20 f   BWAPILIB:Filters.obj
 0001:00091c40       ?TopSpeedImpl@Filter@BWAPI@@YANPAVUnitInterface@2@@Z 10092c40 f   BWAPILIB:Filters.obj
 0001:00091c80       ?SightRangeImpl@Filter@BWAPI@@YAHPAVUnitInterface@2@@Z 10092c80 f   BWAPILIB:Filters.obj
 0001:00091d10       ?MaxWeaponCooldownImpl@Filter@BWAPI@@YAHPAVUnitInterface@2@@Z 10092d10 f   BWAPILIB:Filters.obj
 0001:00091d80       ?SizeTypeImpl@Filter@BWAPI@@YA?AVUnitSizeType@2@PAVUnitInterface@2@@Z 10092d80 f   BWAPILIB:Filters.obj
 0001:00091da0       ?GroundWeaponImpl@Filter@BWAPI@@YA?AVWeaponType@2@PAVUnitInterface@2@@Z 10092da0 f   BWAPILIB:Filters.obj
 0001:00091dc0       ?AirWeaponImpl@Filter@BWAPI@@YA?AVWeaponType@2@PAVUnitInterface@2@@Z 10092dc0 f   BWAPILIB:Filters.obj
 0001:00091de0       ?GetTypeImpl@Filter@BWAPI@@YA?AVUnitType@2@PAVUnitInterface@2@@Z 10092de0 f   BWAPILIB:Filters.obj
 0001:00091e00       ?GetRaceImpl@Filter@BWAPI@@YA?AVRace@2@PAVUnitInterface@2@@Z 10092e00 f   BWAPILIB:Filters.obj
 0001:00091e20       ?GetPlayerImpl@Filter@BWAPI@@YAPAVPlayerInterface@2@PAVUnitInterface@2@@Z 10092e20 f   BWAPILIB:Filters.obj
 0001:00091e30       ?ResourcesImpl@Filter@BWAPI@@YAHPAVUnitInterface@2@@Z 10092e30 f   BWAPILIB:Filters.obj
 0001:00091e40       ?ResourceGroupImpl@Filter@BWAPI@@YAHPAVUnitInterface@2@@Z 10092e40 f   BWAPILIB:Filters.obj
 0001:00091e50       ?AcidSporeCountImpl@Filter@BWAPI@@YAHPAVUnitInterface@2@@Z 10092e50 f   BWAPILIB:Filters.obj
 0001:00091e60       ?InterceptorCountImpl@Filter@BWAPI@@YAHPAVUnitInterface@2@@Z 10092e60 f   BWAPILIB:Filters.obj
 0001:00091e70       ?ScarabCountImpl@Filter@BWAPI@@YAHPAVUnitInterface@2@@Z 10092e70 f   BWAPILIB:Filters.obj
 0001:00091e80       ?SpiderMineCountImpl@Filter@BWAPI@@YAHPAVUnitInterface@2@@Z 10092e80 f   BWAPILIB:Filters.obj
 0001:00091e90       ?WeaponCooldownImpl@Filter@BWAPI@@YAHPAVUnitInterface@2@@Z 10092e90 f   BWAPILIB:Filters.obj
 0001:00091ea0       ?SpellCooldownImpl@Filter@BWAPI@@YAHPAVUnitInterface@2@@Z 10092ea0 f   BWAPILIB:Filters.obj
 0001:00091eb0       ?DefenseMatrixPointsImpl@Filter@BWAPI@@YAHPAVUnitInterface@2@@Z 10092eb0 f   BWAPILIB:Filters.obj
 0001:00091ec0       ?DefenseMatrixTimeImpl@Filter@BWAPI@@YAHPAVUnitInterface@2@@Z 10092ec0 f   BWAPILIB:Filters.obj
 0001:00091ed0       ?EnsnareTimeImpl@Filter@BWAPI@@YAHPAVUnitInterface@2@@Z 10092ed0 f   BWAPILIB:Filters.obj
 0001:00091ee0       ?IrradiateTimeImpl@Filter@BWAPI@@YAHPAVUnitInterface@2@@Z 10092ee0 f   BWAPILIB:Filters.obj
 0001:00091ef0       ?LockdownTimeImpl@Filter@BWAPI@@YAHPAVUnitInterface@2@@Z 10092ef0 f   BWAPILIB:Filters.obj
 0001:00091f00       ?MaelstromTimeImpl@Filter@BWAPI@@YAHPAVUnitInterface@2@@Z 10092f00 f   BWAPILIB:Filters.obj
 0001:00091f10       ?OrderTimeImpl@Filter@BWAPI@@YAHPAVUnitInterface@2@@Z 10092f10 f   BWAPILIB:Filters.obj
 0001:00091f20       ?PlagueTimerImpl@Filter@BWAPI@@YAHPAVUnitInterface@2@@Z 10092f20 f   BWAPILIB:Filters.obj
 0001:00091f30       ?RemoveTimeImpl@Filter@BWAPI@@YAHPAVUnitInterface@2@@Z 10092f30 f   BWAPILIB:Filters.obj
 0001:00091f40       ?StasisTimeImpl@Filter@BWAPI@@YAHPAVUnitInterface@2@@Z 10092f40 f   BWAPILIB:Filters.obj
 0001:00091f50       ?StimTimeImpl@Filter@BWAPI@@YAHPAVUnitInterface@2@@Z 10092f50 f   BWAPILIB:Filters.obj
 0001:00091f60       ?BuildTypeImpl@Filter@BWAPI@@YA?AVUnitType@2@PAVUnitInterface@2@@Z 10092f60 f   BWAPILIB:Filters.obj
 0001:00091f80       ?RemainingBuildTimeImpl@Filter@BWAPI@@YAHPAVUnitInterface@2@@Z 10092f80 f   BWAPILIB:Filters.obj
 0001:00091f90       ?RemainingTrainTimeImpl@Filter@BWAPI@@YAHPAVUnitInterface@2@@Z 10092f90 f   BWAPILIB:Filters.obj
 0001:00091fa0       ?TargetImpl@Filter@BWAPI@@YAPAVUnitInterface@2@PAV32@@Z 10092fa0 f   BWAPILIB:Filters.obj
 0001:00091fb0       ?CurrentOrderImpl@Filter@BWAPI@@YA?AVOrder@2@PAVUnitInterface@2@@Z 10092fb0 f   BWAPILIB:Filters.obj
 0001:00091fd0       ?SecondaryOrderImpl@Filter@BWAPI@@YA?AVOrder@2@PAVUnitInterface@2@@Z 10092fd0 f   BWAPILIB:Filters.obj
 0001:00091ff0       ?OrderTargetImpl@Filter@BWAPI@@YAPAVUnitInterface@2@PAV32@@Z 10092ff0 f   BWAPILIB:Filters.obj
 0001:00092000       ?GetLeftImpl@Filter@BWAPI@@YAHPAVUnitInterface@2@@Z 10093000 f   BWAPILIB:Filters.obj
 0001:00092040       ?GetTopImpl@Filter@BWAPI@@YAHPAVUnitInterface@2@@Z 10093040 f   BWAPILIB:Filters.obj
 0001:00092080       ?GetRightImpl@Filter@BWAPI@@YAHPAVUnitInterface@2@@Z 10093080 f   BWAPILIB:Filters.obj
 0001:000920c0       ?GetBottomImpl@Filter@BWAPI@@YAHPAVUnitInterface@2@@Z 100930c0 f   BWAPILIB:Filters.obj
 0001:00092100       ?ExistsImpl@Filter@BWAPI@@YA_NPAVUnitInterface@2@@Z 10093100 f   BWAPILIB:Filters.obj
 0001:00092110       ?IsAttackingImpl@Filter@BWAPI@@YA_NPAVUnitInterface@2@@Z 10093110 f   BWAPILIB:Filters.obj
 0001:00092120       ?IsBeingConstructedImpl@Filter@BWAPI@@YA_NPAVUnitInterface@2@@Z 10093120 f   BWAPILIB:Filters.obj
 0001:00092130       ?IsBeingGatheredImpl@Filter@BWAPI@@YA_NPAVUnitInterface@2@@Z 10093130 f   BWAPILIB:Filters.obj
 0001:00092140       ?IsBeingHealedImpl@Filter@BWAPI@@YA_NPAVUnitInterface@2@@Z 10093140 f   BWAPILIB:Filters.obj
 0001:00092150       ?IsBlindImpl@Filter@BWAPI@@YA_NPAVUnitInterface@2@@Z 10093150 f   BWAPILIB:Filters.obj
 0001:00092160       ?IsBrakingImpl@Filter@BWAPI@@YA_NPAVUnitInterface@2@@Z 10093160 f   BWAPILIB:Filters.obj
 0001:00092170       ?IsBurrowedImpl@Filter@BWAPI@@YA_NPAVUnitInterface@2@@Z 10093170 f   BWAPILIB:Filters.obj
 0001:00092180       ?IsCarryingGasImpl@Filter@BWAPI@@YA_NPAVUnitInterface@2@@Z 10093180 f   BWAPILIB:Filters.obj
 0001:00092190       ?IsCarryingMineralsImpl@Filter@BWAPI@@YA_NPAVUnitInterface@2@@Z 10093190 f   BWAPILIB:Filters.obj
 0001:000921a0       ?IsCarryingSomethingImpl@Filter@BWAPI@@YA_NPAVUnitInterface@2@@Z 100931a0 f   BWAPILIB:Filters.obj
 0001:000921d0       ?IsCloakedImpl@Filter@BWAPI@@YA_NPAVUnitInterface@2@@Z 100931d0 f   BWAPILIB:Filters.obj
 0001:000921e0       ?IsCompletedImpl@Filter@BWAPI@@YA_NPAVUnitInterface@2@@Z 100931e0 f   BWAPILIB:Filters.obj
 0001:000921f0       ?IsConstructingImpl@Filter@BWAPI@@YA_NPAVUnitInterface@2@@Z 100931f0 f   BWAPILIB:Filters.obj
 0001:00092200       ?IsDefenseMatrixedImpl@Filter@BWAPI@@YA_NPAVUnitInterface@2@@Z 10093200 f   BWAPILIB:Filters.obj
 0001:00092220       ?IsDetectedImpl@Filter@BWAPI@@YA_NPAVUnitInterface@2@@Z 10093220 f   BWAPILIB:Filters.obj
 0001:00092230       ?IsEnsnaredImpl@Filter@BWAPI@@YA_NPAVUnitInterface@2@@Z 10093230 f   BWAPILIB:Filters.obj
 0001:00092250       ?IsFollowingImpl@Filter@BWAPI@@YA_NPAVUnitInterface@2@@Z 10093250 f   BWAPILIB:Filters.obj
 0001:00092270       ?IsGatheringGasImpl@Filter@BWAPI@@YA_NPAVUnitInterface@2@@Z 10093270 f   BWAPILIB:Filters.obj
 0001:00092280       ?IsGatheringMineralsImpl@Filter@BWAPI@@YA_NPAVUnitInterface@2@@Z 10093280 f   BWAPILIB:Filters.obj
 0001:00092290       ?IsHallucinationImpl@Filter@BWAPI@@YA_NPAVUnitInterface@2@@Z 10093290 f   BWAPILIB:Filters.obj
 0001:000922a0       ?IsHoldingPositionImpl@Filter@BWAPI@@YA_NPAVUnitInterface@2@@Z 100932a0 f   BWAPILIB:Filters.obj
 0001:000922c0       ?IsIdleImpl@Filter@BWAPI@@YA_NPAVUnitInterface@2@@Z 100932c0 f   BWAPILIB:Filters.obj
 0001:000922d0       ?IsInterruptibleImpl@Filter@BWAPI@@YA_NPAVUnitInterface@2@@Z 100932d0 f   BWAPILIB:Filters.obj
 0001:000922e0       ?IsInvincibleImpl@Filter@BWAPI@@YA_NPAVUnitInterface@2@@Z 100932e0 f   BWAPILIB:Filters.obj
 0001:000922f0       ?IsIrradiatedImpl@Filter@BWAPI@@YA_NPAVUnitInterface@2@@Z 100932f0 f   BWAPILIB:Filters.obj
 0001:00092310       ?IsLiftedImpl@Filter@BWAPI@@YA_NPAVUnitInterface@2@@Z 10093310 f   BWAPILIB:Filters.obj
 0001:00092320       ?IsLoadedImpl@Filter@BWAPI@@YA_NPAVUnitInterface@2@@Z 10093320 f   BWAPILIB:Filters.obj
 0001:00092340       ?IsLockedDownImpl@Filter@BWAPI@@YA_NPAVUnitInterface@2@@Z 10093340 f   BWAPILIB:Filters.obj
 0001:00092360       ?IsMaelstrommedImpl@Filter@BWAPI@@YA_NPAVUnitInterface@2@@Z 10093360 f   BWAPILIB:Filters.obj
 0001:00092380       ?IsMorphingImpl@Filter@BWAPI@@YA_NPAVUnitInterface@2@@Z 10093380 f   BWAPILIB:Filters.obj
 0001:00092390       ?IsMovingImpl@Filter@BWAPI@@YA_NPAVUnitInterface@2@@Z 10093390 f   BWAPILIB:Filters.obj
 0001:000923a0       ?IsParasitedImpl@Filter@BWAPI@@YA_NPAVUnitInterface@2@@Z 100933a0 f   BWAPILIB:Filters.obj
 0001:000923b0       ?IsPatrollingImpl@Filter@BWAPI@@YA_NPAVUnitInterface@2@@Z 100933b0 f   BWAPILIB:Filters.obj
 0001:000923d0       ?IsPlaguedImpl@Filter@BWAPI@@YA_NPAVUnitInterface@2@@Z 100933d0 f   BWAPILIB:Filters.obj
 0001:000923f0       ?IsRepairingImpl@Filter@BWAPI@@YA_NPAVUnitInterface@2@@Z 100933f0 f   BWAPILIB:Filters.obj
 0001:00092410       ?IsResearchingImpl@Filter@BWAPI@@YA_NPAVUnitInterface@2@@Z 10093410 f   BWAPILIB:Filters.obj
 0001:00092430       ?IsSiegedImpl@Filter@BWAPI@@YA_NPAVUnitInterface@2@@Z 10093430 f   BWAPILIB:Filters.obj
 0001:00092460       ?IsStartingAttackImpl@Filter@BWAPI@@YA_NPAVUnitInterface@2@@Z 10093460 f   BWAPILIB:Filters.obj
 0001:00092470       ?IsStasisedImpl@Filter@BWAPI@@YA_NPAVUnitInterface@2@@Z 10093470 f   BWAPILIB:Filters.obj
 0001:00092490       ?IsStimmedImpl@Filter@BWAPI@@YA_NPAVUnitInterface@2@@Z 10093490 f   BWAPILIB:Filters.obj
 0001:000924b0       ?IsStuckImpl@Filter@BWAPI@@YA_NPAVUnitInterface@2@@Z 100934b0 f   BWAPILIB:Filters.obj
 0001:000924c0       ?IsTrainingImpl@Filter@BWAPI@@YA_NPAVUnitInterface@2@@Z 100934c0 f   BWAPILIB:Filters.obj
 0001:000924d0       ?IsUnderAttackImpl@Filter@BWAPI@@YA_NPAVUnitInterface@2@@Z 100934d0 f   BWAPILIB:Filters.obj
 0001:000924e0       ?IsUnderDarkSwarmImpl@Filter@BWAPI@@YA_NPAVUnitInterface@2@@Z 100934e0 f   BWAPILIB:Filters.obj
 0001:000924f0       ?IsUnderDisruptionWebImpl@Filter@BWAPI@@YA_NPAVUnitInterface@2@@Z 100934f0 f   BWAPILIB:Filters.obj
 0001:00092500       ?IsUnderStormImpl@Filter@BWAPI@@YA_NPAVUnitInterface@2@@Z 10093500 f   BWAPILIB:Filters.obj
 0001:00092510       ?IsPoweredImpl@Filter@BWAPI@@YA_NPAVUnitInterface@2@@Z 10093510 f   BWAPILIB:Filters.obj
 0001:00092520       ?IsVisibleImpl@Filter@BWAPI@@YA_NPAVUnitInterface@2@@Z 10093520 f   BWAPILIB:Filters.obj
 0001:00092540       ?IsEnemyImpl@Filter@BWAPI@@YA_NPAVUnitInterface@2@@Z 10093540 f   BWAPILIB:Filters.obj
 0001:00092580       ?IsAllyImpl@Filter@BWAPI@@YA_NPAVUnitInterface@2@@Z 10093580 f   BWAPILIB:Filters.obj
 0001:000925c0       ?IsOwnedImpl@Filter@BWAPI@@YA_NPAVUnitInterface@2@@Z 100935c0 f   BWAPILIB:Filters.obj
 0001:000925f0       ?maxEnergy@PlayerInterface@BWAPI@@QBEHVUnitType@2@@Z 100935f0 f   BWAPILIB:Player.obj
 0001:00092790       ?topSpeed@PlayerInterface@BWAPI@@QBENVUnitType@2@@Z 10093790 f   BWAPILIB:Player.obj
 0001:000928f0       ?weaponMaxRange@PlayerInterface@BWAPI@@QBEHVWeaponType@2@@Z 100938f0 f   BWAPILIB:Player.obj
 0001:00092980       ?weaponDamageCooldown@PlayerInterface@BWAPI@@QBEHVUnitType@2@@Z 10093980 f   BWAPILIB:Player.obj
 0001:000929e0       ?initWeaponTypeSet@WeaponTypesSet@BWAPI@@YA?BV?$SetContainer@VWeaponType@BWAPI@@U?$hash@H@std@@@2@XZ 100939e0 f   BWAPILIB:WeaponType.obj
 0001:00092a70       ??$insert@V?$_List_const_iterator@V?$_List_val@U?$_List_simple_types@VWeaponType@BWAPI@@@std@@@std@@@std@@@?$_Hash@V?$_Uset_traits@VWeaponType@BWAPI@@V?$_Uhash_compare@VWeaponType@BWAPI@@U?$hash@H@std@@U?$equal_to@VWeaponType@BWAPI@@@4@@std@@V?$allocator@VWeaponType@BWAPI@@@4@$0A@@std@@@std@@QAEXV?$_List_const_iterator@V?$_List_val@U?$_List_simple_types@VWeaponType@BWAPI@@@std@@@std@@@1@0@Z 10093a70 f i BWAPILIB:WeaponType.obj
 0001:00092af0       ??1?$_Hash@V?$_Uset_traits@VOrder@BWAPI@@V?$_Uhash_compare@VOrder@BWAPI@@U?$hash@H@std@@U?$equal_to@VOrder@BWAPI@@@4@@std@@V?$allocator@VOrder@BWAPI@@@4@$0A@@std@@@std@@QAE@XZ 10093af0 f i BWAPILIB:Order.obj
 0001:00092ba0       ??$_Insert@AAVOrder@BWAPI@@V?$_List_unchecked_const_iterator@V?$_List_val@U?$_List_simple_types@VOrder@BWAPI@@@std@@@std@@U_Iterator_base0@2@@std@@@?$_Hash@V?$_Uset_traits@VOrder@BWAPI@@V?$_Uhash_compare@VOrder@BWAPI@@U?$hash@H@std@@U?$equal_to@VOrder@BWAPI@@@4@@std@@V?$allocator@VOrder@BWAPI@@@4@$0A@@std@@@std@@IAE?AU?$pair@V?$_List_const_iterator@V?$_List_val@U?$_List_simple_types@VOrder@BWAPI@@@std@@@std@@@std@@_N@1@AAVOrder@BWAPI@@V?$_List_unchecked_const_iterator@V?$_List_val@U?$_List_simple_types@VOrder@BWAPI@@@std@@@std@@U_Iterator_base0@2@@1@@Z 10093ba0 f i BWAPILIB:Order.obj
 0001:00092d10       ??$?0PBH@?$SetContainer@VUnitType@BWAPI@@U?$hash@H@std@@@BWAPI@@QAE@PBH0@Z 10093d10 f i BWAPILIB:UpgradeType.obj
 0001:00092e10       ??$_Buynode@ABH@?$_List_buy@VUnitType@BWAPI@@V?$allocator@VUnitType@BWAPI@@@std@@@std@@QAEPAU?$_List_node@VUnitType@BWAPI@@PAX@1@PAU21@0ABH@Z 10093e10 f i BWAPILIB:UpgradeType.obj
 0001:00092e40       ??1?$_Hash@V?$_Uset_traits@VBulletType@BWAPI@@V?$_Uhash_compare@VBulletType@BWAPI@@U?$hash@H@std@@U?$equal_to@VBulletType@BWAPI@@@4@@std@@V?$allocator@VBulletType@BWAPI@@@4@$0A@@std@@@std@@QAE@XZ 10093e40 f i BWAPILIB:BulletType.obj
 0001:00092ef0       ??$_Insert@AAVBulletType@BWAPI@@V?$_List_unchecked_const_iterator@V?$_List_val@U?$_List_simple_types@VBulletType@BWAPI@@@std@@@std@@U_Iterator_base0@2@@std@@@?$_Hash@V?$_Uset_traits@VBulletType@BWAPI@@V?$_Uhash_compare@VBulletType@BWAPI@@U?$hash@H@std@@U?$equal_to@VBulletType@BWAPI@@@4@@std@@V?$allocator@VBulletType@BWAPI@@@4@$0A@@std@@@std@@IAE?AU?$pair@V?$_List_const_iterator@V?$_List_val@U?$_List_simple_types@VBulletType@BWAPI@@@std@@@std@@@std@@_N@1@AAVBulletType@BWAPI@@V?$_List_unchecked_const_iterator@V?$_List_val@U?$_List_simple_types@VBulletType@BWAPI@@@std@@@std@@U_Iterator_base0@2@@1@@Z 10093ef0 f i BWAPILIB:BulletType.obj
 0001:00093060       ?useTech@UnitCommand@BWAPI@@SA?AV12@PAVUnitInterface@2@VTechType@2@@Z 10094060 f   BWAPILIB:UnitCommand.obj
 0001:000930f0       ?getTargetPosition@UnitCommand@BWAPI@@QBE?AV?$Point@H$00@2@XZ 100940f0 f   BWAPILIB:UnitCommand.obj
 0001:00093130       ??1?$_Hash@V?$_Uset_traits@VRace@BWAPI@@V?$_Uhash_compare@VRace@BWAPI@@U?$hash@H@std@@U?$equal_to@VRace@BWAPI@@@4@@std@@V?$allocator@VRace@BWAPI@@@4@$0A@@std@@@std@@QAE@XZ 10094130 f i BWAPILIB:Race.obj
 0001:000931e0       ??$_Insert@AAVRace@BWAPI@@V?$_List_unchecked_const_iterator@V?$_List_val@U?$_List_simple_types@VRace@BWAPI@@@std@@@std@@U_Iterator_base0@2@@std@@@?$_Hash@V?$_Uset_traits@VRace@BWAPI@@V?$_Uhash_compare@VRace@BWAPI@@U?$hash@H@std@@U?$equal_to@VRace@BWAPI@@@4@@std@@V?$allocator@VRace@BWAPI@@@4@$0A@@std@@@std@@IAE?AU?$pair@V?$_List_const_iterator@V?$_List_val@U?$_List_simple_types@VRace@BWAPI@@@std@@@std@@@std@@_N@1@AAVRace@BWAPI@@V?$_List_unchecked_const_iterator@V?$_List_val@U?$_List_simple_types@VRace@BWAPI@@@std@@@std@@U_Iterator_base0@2@@1@@Z 100941e0 f i BWAPILIB:Race.obj
 0001:00093350       ??_EAIModule@BWAPI@@UAEPAXI@Z 10094350 f i * CIL library *:* CIL module *
 0001:00093350       ??_GAIModule@BWAPI@@UAEPAXI@Z 10094350 f i BWAPILIB:AIModule.obj
 0001:00093380       ?onEnd@AIModule@BWAPI@@UAEX_N@Z 10094380 f   BWAPILIB:AIModule.obj
 0001:00093380       ?onUnitDiscover@AIModule@BWAPI@@UAEXPAVUnitInterface@2@@Z 10094380 f   BWAPILIB:AIModule.obj
 0001:00093380       ?onUnitHide@AIModule@BWAPI@@UAEXPAVUnitInterface@2@@Z 10094380 f   BWAPILIB:AIModule.obj
 0001:00093380       ?onUnitMorph@AIModule@BWAPI@@UAEXPAVUnitInterface@2@@Z 10094380 f   BWAPILIB:AIModule.obj
 0001:00093380       ?onUnitCreate@AIModule@BWAPI@@UAEXPAVUnitInterface@2@@Z 10094380 f   BWAPILIB:AIModule.obj
 0001:00093380       ?onUnitDestroy@AIModule@BWAPI@@UAEXPAVUnitInterface@2@@Z 10094380 f   BWAPILIB:AIModule.obj
 0001:00093380       ?onPlayerLeft@AIModule@BWAPI@@UAEXPAVPlayerInterface@2@@Z 10094380 f   BWAPILIB:AIModule.obj
 0001:00093380       ?onUnitRenegade@AIModule@BWAPI@@UAEXPAVUnitInterface@2@@Z 10094380 f   BWAPILIB:AIModule.obj
 0001:00093380       ?onUnitShow@AIModule@BWAPI@@UAEXPAVUnitInterface@2@@Z 10094380 f   BWAPILIB:AIModule.obj
 0001:00093380       ?onUnitEvade@AIModule@BWAPI@@UAEXPAVUnitInterface@2@@Z 10094380 f   BWAPILIB:AIModule.obj
 0001:00093380       ?onUnitComplete@AIModule@BWAPI@@UAEXPAVUnitInterface@2@@Z 10094380 f   BWAPILIB:AIModule.obj
 0001:00093390       ?onSendText@AIModule@BWAPI@@UAEXV?$basic_string@DU?$char_traits@D@std@@V?$allocator@D@2@@std@@@Z 10094390 f   BWAPILIB:AIModule.obj
 0001:00093390       ?onSaveGame@AIModule@BWAPI@@UAEXV?$basic_string@DU?$char_traits@D@std@@V?$allocator@D@2@@std@@@Z 10094390 f   BWAPILIB:AIModule.obj
 0001:000933d0       ?onReceiveText@AIModule@BWAPI@@UAEXPAVPlayerInterface@2@V?$basic_string@DU?$char_traits@D@std@@V?$allocator@D@2@@std@@@Z 100943d0 f   BWAPILIB:AIModule.obj
 0001:0009340b       ?_Lock@?$basic_streambuf@DU?$char_traits@D@std@@@std@@UAEXXZ 1009440b f   msvcprt:MSVCP140.dll
 0001:00093411       ?_Unlock@?$basic_streambuf@DU?$char_traits@D@std@@@std@@UAEXXZ 10094411 f   msvcprt:MSVCP140.dll
 0001:00093417       ?showmanyc@?$basic_streambuf@DU?$char_traits@D@std@@@std@@MAE_JXZ 10094417 f   msvcprt:MSVCP140.dll
 0001:0009341d       ?uflow@?$basic_streambuf@DU?$char_traits@D@std@@@std@@MAEHXZ 1009441d f   msvcprt:MSVCP140.dll
 0001:00093423       ?xsgetn@?$basic_streambuf@DU?$char_traits@D@std@@@std@@MAE_JPAD_J@Z 10094423 f   msvcprt:MSVCP140.dll
 0001:00093429       ?xsputn@?$basic_streambuf@DU?$char_traits@D@std@@@std@@MAE_JPBD_J@Z 10094429 f   msvcprt:MSVCP140.dll
 0001:0009342f       ?setbuf@?$basic_streambuf@DU?$char_traits@D@std@@@std@@MAEPAV12@PAD_J@Z 1009442f f   msvcprt:MSVCP140.dll
 0001:00093435       ?sync@?$basic_streambuf@DU?$char_traits@D@std@@@std@@MAEHXZ 10094435 f   msvcprt:MSVCP140.dll
 0001:0009343b       ?imbue@?$basic_streambuf@DU?$char_traits@D@std@@@std@@MAEXABVlocale@2@@Z 1009443b f   msvcprt:MSVCP140.dll
 0001:00093441       ??1_Fac_node@std@@QAE@XZ   10094441 f i msvcprt:locale0_implib.obj
 0001:000934a0       ??1_Fac_tidy_reg_t@std@@QAE@XZ 100944a0 f i msvcprt:locale0_implib.obj
 0001:000934c7       ?_Facet_Register@std@@YAXPAV_Facet_base@1@@Z 100944c7 f   msvcprt:locale0_implib.obj
 0001:000934f3       @__security_check_cookie@4 100944f3 f   MSVCRT:secchk.obj
 0001:0009352b       ??$__crt_fast_encode_pointer@P6GXPAU_RTL_CONDITION_VARIABLE@@@Z@@YAP6GXPAU_RTL_CONDITION_VARIABLE@@@ZQ6GX0@Z@Z 1009452b f i MSVCRT:thread_safe_statics.obj
 0001:0009352b       ??$__crt_fast_encode_pointer@P6GHPAU_RTL_CONDITION_VARIABLE@@PAU_RTL_CRITICAL_SECTION@@K@Z@@YAP6GHPAU_RTL_CONDITION_VARIABLE@@PAU_RTL_CRITICAL_SECTION@@K@ZQ6GH01K@Z@Z 1009452b f i MSVCRT:thread_safe_statics.obj
 0001:00093653       __Init_thread_abort        10094653 f   MSVCRT:thread_safe_statics.obj
 0001:00093677       __Init_thread_footer       10094677 f   MSVCRT:thread_safe_statics.obj
 0001:000936c1       __Init_thread_header       100946c1 f   MSVCRT:thread_safe_statics.obj
 0001:00093713       __Init_thread_notify       10094713 f   MSVCRT:thread_safe_statics.obj
 0001:00093755       __Init_thread_wait         10094755 f   MSVCRT:thread_safe_statics.obj
 0001:000937b5       ??2@YAPAXI@Z               100947b5 f   MSVCRT:new_scalar.obj
 0001:00093829       ___scrt_acquire_startup_lock 10094829 f   MSVCRT:utility.obj
 0001:0009385b       ___scrt_dllmain_after_initialize_c 1009485b f   MSVCRT:utility.obj
 0001:00093886       ___scrt_dllmain_before_initialize_c 10094886 f   MSVCRT:utility.obj
 0001:00093894       ___scrt_dllmain_crt_thread_attach 10094894 f   MSVCRT:utility.obj
 0001:000938b3       ___scrt_dllmain_crt_thread_detach 100948b3 f   MSVCRT:utility.obj
 0001:000938c0       ___scrt_dllmain_exception_filter 100948c0 f   MSVCRT:utility.obj
 0001:000938f4       ___scrt_dllmain_uninitialize_c 100948f4 f   MSVCRT:utility.obj
 0001:00093917       ___scrt_dllmain_uninitialize_critical 10094917 f   MSVCRT:utility.obj
 0001:00093924       ___scrt_initialize_crt     10094924 f   MSVCRT:utility.obj
 0001:0009395d       ___scrt_initialize_onexit_tables 1009495d f   MSVCRT:utility.obj
 0001:00093a02       ___scrt_is_nonwritable_in_current_image 10094a02 f   MSVCRT:utility.obj
 0001:00093a96       ___scrt_release_startup_lock 10094a96 f   MSVCRT:utility.obj
 0001:00093ab3       ___scrt_uninitialize_crt   10094ab3 f   MSVCRT:utility.obj
 0001:00093adb       __onexit                   10094adb f   MSVCRT:utility.obj
 0001:00093b16       _atexit                    10094b16 f   MSVCRT:utility.obj
 0001:00093b2b       ??3@YAXPAXI@Z              10094b2b f   MSVCRT:delete_scalar_size.obj
 0001:00093b39       ??_Gtype_info@@UAEPAXI@Z   10094b39 f i MSVCRT:std_type_info_static.obj
 0001:00093b39       ??_Etype_info@@UAEPAXI@Z   10094b39 f i MSVCRT:std_type_info_static.obj
 0001:00093b5c       ??2@YAPAXIABUnothrow_t@std@@@Z 10094b5c f   MSVCRT:new_scalar_nothrow.obj
 0001:00093bac       ??_M@YGXPAXIIP6EX0@Z@Z     10094bac f   MSVCRT:ehvecdtr.obj
 0001:00093c31       ?__ArrayUnwind@@YGXPAXIIP6EX0@Z@Z 10094c31 f   MSVCRT:ehvecdtr.obj
 0001:00093caa       ??3@YAXPAX@Z               10094caa f   MSVCRT:delete_scalar.obj
 0001:00093fcf       __DllMainCRTStartup@12     10094fcf f   MSVCRT:dll_dllmain.obj
 0001:00093ff2       ??_L@YGXPAXIIP6EX0@Z1@Z    10094ff2 f   MSVCRT:ehvecctr.obj
 0001:00094066       ___raise_securityfailure   10095066 f   MSVCRT:gs_report.obj
 0001:0009408e       ___report_gsfailure        1009508e f   MSVCRT:gs_report.obj
 0001:00094187       ___scrt_fastfail           10095187 f   MSVCRT:utility_desktop.obj
 0001:000942a1       __crt_debugger_hook        100952a1 f   MSVCRT:utility_desktop.obj
 0001:000942a9       ??0bad_alloc@std@@QAE@ABV01@@Z 100952a9 f i MSVCRT:throw_bad_alloc.obj
 0001:000942c4       ??0bad_alloc@std@@QAE@XZ   100952c4 f i MSVCRT:throw_bad_alloc.obj
 0001:000942dc       ??0bad_array_new_length@std@@QAE@ABV01@@Z 100952dc f i MSVCRT:throw_bad_alloc.obj
 0001:000942f7       ??0bad_array_new_length@std@@QAE@XZ 100952f7 f i MSVCRT:throw_bad_alloc.obj
 0001:0009430f       ??1bad_array_new_length@std@@UAE@XZ 1009530f f i MSVCRT:throw_bad_alloc.obj
 0001:0009430f       ??1bad_alloc@std@@UAE@XZ   1009530f f i MSVCRT:throw_bad_alloc.obj
 0001:00094320       ??_Gbad_alloc@std@@UAEPAXI@Z 10095320 f i MSVCRT:throw_bad_alloc.obj
 0001:00094320       ??_Gbad_array_new_length@std@@UAEPAXI@Z 10095320 f i MSVCRT:throw_bad_alloc.obj
 0001:00094320       ??_Ebad_array_new_length@std@@UAEPAXI@Z 10095320 f i MSVCRT:throw_bad_alloc.obj
 0001:00094320       ??_Ebad_alloc@std@@UAEPAXI@Z 10095320 f i MSVCRT:throw_bad_alloc.obj
 0001:0009434d       ?__scrt_throw_std_bad_alloc@@YAXXZ 1009534d f   MSVCRT:throw_bad_alloc.obj
 0001:0009436a       ?__scrt_throw_std_bad_array_new_length@@YAXXZ 1009536a f   MSVCRT:throw_bad_alloc.obj
 0001:00094387       ___isa_available_init      10095387 f   MSVCRT:cpu_disp.obj
 0001:0009451e       __get_startup_argv_mode    1009551e f   MSVCRT:argv_mode.obj
 0001:00094522       ___scrt_is_ucrt_dll_in_use 10095522 f   MSVCRT:ucrt_detection.obj
 0001:00094530       __SEH_prolog4              10095530 f   MSVCRT:sehprolg4.obj
 0001:00094576       __SEH_epilog4              10095576 f   MSVCRT:sehprolg4.obj
 0001:0009458b       __except_handler4          1009558b f   MSVCRT:chandler4gs.obj
 0001:000945fb       ___security_init_cookie    100955fb f   MSVCRT:gs_support.obj
 0001:00094646       ?__scrt_initialize_type_info@@YAXXZ 10095646 f   MSVCRT:tncleanup.obj
 0001:00094652       ?__scrt_uninitialize_type_info@@YAXXZ 10095652 f   MSVCRT:tncleanup.obj
 0001:0009465e       ___local_stdio_scanf_options 1009565e f i MSVCRT:default_local_stdio_options.obj
 0001:00094664       ___scrt_initialize_default_local_stdio_options 10095664 f   MSVCRT:default_local_stdio_options.obj
 0001:00094681       ___scrt_get_dyn_tls_init_callback 10095681 f   MSVCRT:dyn_tls_init.obj
 0001:00094687       __RTC_Initialize           10095687 f   MSVCRT:initsect.obj
 0001:000946b3       __RTC_Terminate            100956b3 f   MSVCRT:initsect.obj
 0001:000946df       ___CxxFrameHandler3        100956df f   vcruntime:VCRUNTIME140.dll
 0001:000946e5       ___std_terminate           100956e5 f   vcruntime:VCRUNTIME140.dll
 0001:000946eb       ___std_exception_destroy   100956eb f   vcruntime:VCRUNTIME140.dll
 0001:000946f1       __purecall                 100956f1 f   vcruntime:VCRUNTIME140.dll
 0001:000946f7       _memset                    100956f7 f   vcruntime:VCRUNTIME140.dll
 0001:000946fd       __CxxThrowException@8      100956fd f   vcruntime:VCRUNTIME140.dll
 0001:00094703       __except_handler4_common   10095703 f   vcruntime:VCRUNTIME140.dll
 0001:00094709       ___std_type_info_destroy_list 10095709 f   vcruntime:VCRUNTIME140.dll
