 Steamhammer

 Timestamp is 6671f448 (Tue Jun 18 16:55:36 2024)

 Preferred load address is 10000000

 Start         Length     Name                   Class
 0001:00000000 00023520H .text$di                CODE
 0001:00023520 0007fdc0H .text$mn                CODE
 0001:000a32e0 0000f0d0H .text$x                 CODE
 0001:000b23b0 00001b24H .text$yd                CODE
 0002:00000000 000002b4H .idata$5                DATA
 0002:000002b4 00000004H .00cfg                  DATA
 0002:000002b8 00000004H .CRT$XCA                DATA
 0002:000002bc 00000004H .CRT$XCL                DATA
 0002:000002c0 00000298H .CRT$XCU                DATA
 0002:00000558 00000004H .CRT$XCZ                DATA
 0002:0000055c 00000004H .CRT$XIA                DATA
 0002:00000560 00000004H .CRT$XIC                DATA
 0002:00000564 00000004H .CRT$XIZ                DATA
 0002:00000568 00000004H .CRT$XLA                DATA
 0002:0000056c 00000004H .CRT$XLZ                DATA
 0002:00000570 00000004H .CRT$XPA                DATA
 0002:00000574 00000004H .CRT$XPZ                DATA
 0002:00000578 00000004H .CRT$XTA                DATA
 0002:0000057c 00000004H .CRT$XTZ                DATA
 0002:00000580 00000000H .gfids$y                DATA
 0002:00000580 0001a060H .rdata                  DATA
 0002:0001a5e0 00000018H .rdata$T                DATA
 0002:0001a5f8 00001ae8H .rdata$r                DATA
 0002:0001c0e0 000007fcH .rdata$sxdata           DATA
 0002:0001c8dc 000003b4H .rdata$zzzdbg           DATA
 0002:0001cc90 00000004H .rtc$IAA                DATA
 0002:0001cc94 00000004H .rtc$IZZ                DATA
 0002:0001cc98 00000004H .rtc$TAA                DATA
 0002:0001cc9c 00000004H .rtc$TZZ                DATA
 0002:0001cca0 00000004H .tls                    DATA
 0002:0001cca4 00000004H .tls$                   DATA
 0002:0001cca8 00000008H .tls$ZZZ                DATA
 0002:0001ccb0 0000eed0H .xdata$x                DATA
 0002:0002bb80 00000064H .edata                  DATA
 0002:0002bbe4 00000104H .idata$2                DATA
 0002:0002bce8 00000014H .idata$3                DATA
 0002:0002bcfc 000002b4H .idata$4                DATA
 0002:0002bfb0 00001678H .idata$6                DATA
 0003:00000000 00006d18H .data                   DATA
 0003:00006d18 00001920H .data$r                 DATA
 0003:00008638 00011260H .bss                    DATA
 0004:00000000 00000060H .rsrc$01                DATA
 0004:00000060 00000180H .rsrc$02                DATA

  Address         Publics by Value              Rva+Base       Lib:Object

 0000:00000000       ___volatile_metadata       00000000     <absolute>
 0000:00000000       ___hybrid_auxiliary_iat    00000000     <absolute>
 0000:00000000       ___hybrid_code_map         00000000     <absolute>
 0000:00000000       ___guard_longjmp_count     00000000     <absolute>
 0000:00000000       ___dynamic_value_reloc_table 00000000     <absolute>
 0000:00000000       ___guard_iat_count         00000000     <absolute>
 0000:00000000       ___guard_iat_table         00000000     <absolute>
 0000:00000000       ___guard_fids_count        00000000     <absolute>
 0000:00000000       ___guard_longjmp_table     00000000     <absolute>
 0000:00000000       ___hybrid_code_map_count   00000000     <absolute>
 0000:00000000       ___guard_fids_table        00000000     <absolute>
 0000:00000000       ___enclave_config          00000000     <absolute>
 0000:0000002c       __tls_array                0000002c     <absolute>
 0000:00000100       ___guard_flags             00000100     <absolute>
 0000:000001ff       ___safe_se_handler_count   000001ff     <absolute>
 0000:00000000       ___ImageBase               10000000     <linker-defined>
 0001:00023520       ??1?$function@$$A6ANN@Z@std@@QAE@XZ 10024520 f i NodeEval.obj
 0001:00023520       ??1?$_Func_class@NN@std@@QAE@XZ 10024520 f i NodeEval.obj
 0001:00023520       ??1?$_Func_class@NABV?$vector@NV?$allocator@N@std@@@std@@@std@@QAE@XZ 10024520 f i NodeEval.obj
 0001:00023520       ??1?$function@$$A6A_NHW4parse_event_t@detail@json_abi_v3_11_3@nlohmann@@AAV?$basic_json@Vmap@std@@Vvector@2@V?$basic_string@DU?$char_traits@D@std@@V?$allocator@D@2@@2@_N_J_KNVallocator@2@Uadl_serializer@json_abi_v3_11_3@nlohmann@@V?$vector@EV?$allocator@E@std@@@2@X@34@@Z@std@@QAE@XZ 10024520 f i db.obj
 0001:00023520       ??1?$_Func_class@_NHW4parse_event_t@detail@json_abi_v3_11_3@nlohmann@@AAV?$basic_json@Vmap@std@@Vvector@2@V?$basic_string@DU?$char_traits@D@std@@V?$allocator@D@2@@2@_N_J_KNVallocator@2@Uadl_serializer@json_abi_v3_11_3@nlohmann@@V?$vector@EV?$allocator@E@std@@@2@X@34@@std@@QAE@XZ 10024520 f i db.obj
 0001:00023520       ??1?$UnaryFilter@PAVUnitInterface@BWAPI@@V?$function@$$A6A_NPAVUnitInterface@BWAPI@@@Z@std@@@BWAPI@@QAE@XZ 10024520 f i Base.obj
 0001:00023520       ??1?$function@$$A6ANABV?$vector@NV?$allocator@N@std@@@std@@@Z@std@@QAE@XZ 10024520 f i NodeEval.obj
 0001:00023520       ??1?$_Func_class@_NPAVUnitInterface@BWAPI@@@std@@QAE@XZ 10024520 f i Base.obj
 0001:00023580       ??4Unitset@BWAPI@@QAEAAV01@ABV01@@Z 10024580 f i Base.obj
 0001:00023650       ??1Unitset@BWAPI@@QAE@XZ   10024650 f i Base.obj
 0001:00023650       ??1?$SetContainer@VUnitType@BWAPI@@U?$hash@H@std@@@BWAPI@@QAE@XZ 10024650 f i BWAPILIB:UnitType.obj
 0001:00023650       ??1?$SetContainer@VTechType@BWAPI@@U?$hash@H@std@@@BWAPI@@QAE@XZ 10024650 f i BWAPILIB:UnitType.obj
 0001:00023650       ??1?$SetContainer@VWeaponType@BWAPI@@U?$hash@H@std@@@BWAPI@@QAE@XZ 10024650 f i BWAPILIB:WeaponType.obj
 0001:00023650       ??1Bulletset@BWAPI@@QAE@XZ 10024650 f i InformationManager.obj
 0001:00023650       ??1?$SetContainer@VUpgradeType@BWAPI@@U?$hash@H@std@@@BWAPI@@QAE@XZ 10024650 f i BWAPILIB:UnitType.obj
 0001:00023660       ??1?$_Hash@V?$_Uset_traits@PAVBulletInterface@BWAPI@@V?$_Uhash_compare@PAVBulletInterface@BWAPI@@U?$hash@PAX@std@@U?$equal_to@PAVBulletInterface@BWAPI@@@4@@std@@V?$allocator@PAVBulletInterface@BWAPI@@@4@$0A@@std@@@std@@QAE@XZ 10024660 f i InformationManager.obj
 0001:00023660       ??1?$_Hash@V?$_Uset_traits@VWeaponType@BWAPI@@V?$_Uhash_compare@VWeaponType@BWAPI@@U?$hash@H@std@@U?$equal_to@VWeaponType@BWAPI@@@4@@std@@V?$allocator@VWeaponType@BWAPI@@@4@$0A@@std@@@std@@QAE@XZ 10024660 f i BWAPILIB:WeaponType.obj
 0001:00023660       ??1?$_Hash@V?$_Uset_traits@VUnitType@BWAPI@@V?$_Uhash_compare@VUnitType@BWAPI@@U?$hash@H@std@@U?$equal_to@VUnitType@BWAPI@@@4@@std@@V?$allocator@VUnitType@BWAPI@@@4@$0A@@std@@@std@@QAE@XZ 10024660 f i BWAPILIB:UnitType.obj
 0001:00023660       ??1?$_Hash@V?$_Uset_traits@VTechType@BWAPI@@V?$_Uhash_compare@VTechType@BWAPI@@U?$hash@H@std@@U?$equal_to@VTechType@BWAPI@@@4@@std@@V?$allocator@VTechType@BWAPI@@@4@$0A@@std@@@std@@QAE@XZ 10024660 f i BWAPILIB:UnitType.obj
 0001:00023660       ??1?$_Hash@V?$_Uset_traits@PAVUnitInterface@BWAPI@@V?$_Uhash_compare@PAVUnitInterface@BWAPI@@U?$hash@PAX@std@@U?$equal_to@PAVUnitInterface@BWAPI@@@4@@std@@V?$allocator@PAVUnitInterface@BWAPI@@@4@$0A@@std@@@std@@QAE@XZ 10024660 f i Base.obj
 0001:00023660       ??1?$_Hash@V?$_Uset_traits@VUpgradeType@BWAPI@@V?$_Uhash_compare@VUpgradeType@BWAPI@@U?$hash@H@std@@U?$equal_to@VUpgradeType@BWAPI@@@4@@std@@V?$allocator@VUpgradeType@BWAPI@@@4@$0A@@std@@@std@@QAE@XZ 10024660 f i BWAPILIB:UnitType.obj
 0001:00023700       ?Root@The@UAlbertaBot@@SAAAV12@XZ 10024700 f i Base.obj
 0001:00023790       ??1Grid@UAlbertaBot@@QAE@XZ 10024790 f i Base.obj
 0001:00023790       ??1GroundAttacks@UAlbertaBot@@QAE@XZ 10024790 f i Base.obj
 0001:00023790       ??1GridInset@UAlbertaBot@@QAE@XZ 10024790 f i Base.obj
 0001:00023790       ??1GridTileRoom@UAlbertaBot@@QAE@XZ 10024790 f i Base.obj
 0001:00023790       ??1GridRoom@UAlbertaBot@@QAE@XZ 10024790 f i Base.obj
 0001:00023790       ??1AirAttacks@UAlbertaBot@@QAE@XZ 10024790 f i Base.obj
 0001:000237a0       ??1GridZone@UAlbertaBot@@QAE@XZ 100247a0 f i Base.obj
 0001:00023800       ??1MapPartitions@UAlbertaBot@@QAE@XZ 10024800 f i Base.obj
 0001:00023820       ??1MapTools@UAlbertaBot@@QAE@XZ 10024820 f i Base.obj
 0001:000238b0       ??1CombatSimulation@UAlbertaBot@@QAE@XZ 100248b0 f i Base.obj
 0001:000238d0       ??1Micro@UAlbertaBot@@QAE@XZ 100248d0 f i Base.obj
 0001:000238d0       ??1?$_Tree@V?$_Tmap_traits@PAVUnitInterface@BWAPI@@VMicroState@UAlbertaBot@@U?$less@PAVUnitInterface@BWAPI@@@std@@V?$allocator@U?$pair@QAVUnitInterface@BWAPI@@VMicroState@UAlbertaBot@@@std@@@6@$0A@@std@@@std@@QAE@XZ 100248d0 f i Base.obj
 0001:00023970       ??1BuildingPlacer@UAlbertaBot@@QAE@XZ 10024970 f i Base.obj
 0001:00023990       ??1OpsBoss@UAlbertaBot@@QAE@XZ 10024990 f i Base.obj
 0001:000239b0       ??1?$vector@V?$_List_unchecked_const_iterator@V?$_List_val@U?$_List_simple_types@PAVUnitInterface@BWAPI@@@std@@@std@@U_Iterator_base0@2@@std@@V?$allocator@V?$_List_unchecked_const_iterator@V?$_List_val@U?$_List_simple_types@PAVUnitInterface@BWAPI@@@std@@@std@@U_Iterator_base0@2@@std@@@2@@std@@QAE@XZ 100249b0 f i Base.obj
 0001:000239b0       ??1?$vector@V?$_List_unchecked_const_iterator@V?$_List_val@U?$_List_simple_types@VRace@BWAPI@@@std@@@std@@U_Iterator_base0@2@@std@@V?$allocator@V?$_List_unchecked_const_iterator@V?$_List_val@U?$_List_simple_types@VRace@BWAPI@@@std@@@std@@U_Iterator_base0@2@@std@@@2@@std@@QAE@XZ 100249b0 f i BWAPILIB:Race.obj
 0001:000239b0       ??1?$vector@V?$_List_unchecked_const_iterator@V?$_List_val@U?$_List_simple_types@VUnitType@BWAPI@@@std@@@std@@U_Iterator_base0@2@@std@@V?$allocator@V?$_List_unchecked_const_iterator@V?$_List_val@U?$_List_simple_types@VUnitType@BWAPI@@@std@@@std@@U_Iterator_base0@2@@std@@@2@@std@@QAE@XZ 100249b0 f i BWAPILIB:UnitType.obj
 0001:000239b0       ??1?$vector@V?$_List_unchecked_const_iterator@V?$_List_val@U?$_List_simple_types@VWeaponType@BWAPI@@@std@@@std@@U_Iterator_base0@2@@std@@V?$allocator@V?$_List_unchecked_const_iterator@V?$_List_val@U?$_List_simple_types@VWeaponType@BWAPI@@@std@@@std@@U_Iterator_base0@2@@std@@@2@@std@@QAE@XZ 100249b0 f i BWAPILIB:WeaponType.obj
 0001:000239b0       ??1?$vector@PAV?$basic_json@Vmap@std@@Vvector@2@V?$basic_string@DU?$char_traits@D@std@@V?$allocator@D@2@@2@_N_J_KNVallocator@2@Uadl_serializer@json_abi_v3_11_3@nlohmann@@V?$vector@EV?$allocator@E@std@@@2@X@json_abi_v3_11_3@nlohmann@@V?$allocator@PAV?$basic_json@Vmap@std@@Vvector@2@V?$basic_string@DU?$char_traits@D@std@@V?$allocator@D@2@@2@_N_J_KNVallocator@2@Uadl_serializer@json_abi_v3_11_3@nlohmann@@V?$vector@EV?$allocator@E@std@@@2@X@json_abi_v3_11_3@nlohmann@@@std@@@std@@QAE@XZ 100249b0 f i db.obj
 0001:000239b0       ?_Tidy@?$vector@PAVUnitInterface@BWAPI@@V?$allocator@PAVUnitInterface@BWAPI@@@std@@@std@@AAEXXZ 100249b0 f i CombatCommander.obj
 0001:000239b0       ??1?$vector@V?$_List_unchecked_iterator@V?$_List_val@U?$_List_simple_types@U?$pair@$$CBHN@std@@@std@@@std@@@std@@V?$allocator@V?$_List_unchecked_iterator@V?$_List_val@U?$_List_simple_types@U?$pair@$$CBHN@std@@@std@@@std@@@std@@@2@@std@@QAE@XZ 100249b0 f i NodeEval.obj
 0001:000239b0       ??1?$vector@VUnitType@BWAPI@@V?$allocator@VUnitType@BWAPI@@@std@@@std@@QAE@XZ 100249b0 f i BOSSManager.obj
 0001:000239b0       ??1?$vector@PAUGameSnapshot@UAlbertaBot@@V?$allocator@PAUGameSnapshot@UAlbertaBot@@@std@@@std@@QAE@XZ 100249b0 f i GameRecord.obj
 0001:000239b0       ??1?$vector@V?$_List_unchecked_const_iterator@V?$_List_val@U?$_List_simple_types@VUpgradeType@BWAPI@@@std@@@std@@U_Iterator_base0@2@@std@@V?$allocator@V?$_List_unchecked_const_iterator@V?$_List_val@U?$_List_simple_types@VUpgradeType@BWAPI@@@std@@@std@@U_Iterator_base0@2@@std@@@2@@std@@QAE@XZ 100249b0 f i BWAPILIB:UnitType.obj
 0001:000239b0       ??1?$vector@V?$_List_unchecked_const_iterator@V?$_List_val@U?$_List_simple_types@PAVBulletInterface@BWAPI@@@std@@@std@@U_Iterator_base0@2@@std@@V?$allocator@V?$_List_unchecked_const_iterator@V?$_List_val@U?$_List_simple_types@PAVBulletInterface@BWAPI@@@std@@@std@@U_Iterator_base0@2@@std@@@2@@std@@QAE@XZ 100249b0 f i InformationManager.obj
 0001:000239b0       ??1?$vector@PAVBase@UAlbertaBot@@V?$allocator@PAVBase@UAlbertaBot@@@std@@@std@@QAE@XZ 100249b0 f i Bases.obj
 0001:000239b0       ??1?$vector@V?$_List_unchecked_const_iterator@V?$_List_val@U?$_List_simple_types@VTechType@BWAPI@@@std@@@std@@U_Iterator_base0@2@@std@@V?$allocator@V?$_List_unchecked_const_iterator@V?$_List_val@U?$_List_simple_types@VTechType@BWAPI@@@std@@@std@@U_Iterator_base0@2@@std@@@2@@std@@QAE@XZ 100249b0 f i BWAPILIB:UnitType.obj
 0001:000239b0       ??1?$vector@V?$_List_unchecked_const_iterator@V?$_List_val@U?$_List_simple_types@VOrder@BWAPI@@@std@@@std@@U_Iterator_base0@2@@std@@V?$allocator@V?$_List_unchecked_const_iterator@V?$_List_val@U?$_List_simple_types@VOrder@BWAPI@@@std@@@std@@U_Iterator_base0@2@@std@@@2@@std@@QAE@XZ 100249b0 f i BWAPILIB:Order.obj
 0001:000239b0       ??1?$vector@V?$reference_wrapper@VBuilding@UAlbertaBot@@@std@@V?$allocator@V?$reference_wrapper@VBuilding@UAlbertaBot@@@std@@@2@@std@@QAE@XZ 100249b0 f i BuildingManager.obj
 0001:000239b0       ?_Tidy@?$vector@HV?$allocator@H@std@@@std@@AAEXXZ 100249b0 f i GameRecord.obj
 0001:000239b0       ??1SkillKit@UAlbertaBot@@QAE@XZ 100249b0 f i Base.obj
 0001:000239b0       ?_Tidy@?$vector@IV?$allocator@I@std@@@std@@AAEXXZ 100249b0 f i Base.obj
 0001:000239b0       ??1?$vector@PAVGameRecord@UAlbertaBot@@V?$allocator@PAVGameRecord@UAlbertaBot@@@std@@@std@@QAE@XZ 100249b0 f i OpponentModel.obj
 0001:000239b0       ??1?$vector@V?$_List_unchecked_const_iterator@V?$_List_val@U?$_List_simple_types@VBulletType@BWAPI@@@std@@@std@@U_Iterator_base0@2@@std@@V?$allocator@V?$_List_unchecked_const_iterator@V?$_List_val@U?$_List_simple_types@VBulletType@BWAPI@@@std@@@std@@U_Iterator_base0@2@@std@@@2@@std@@QAE@XZ 100249b0 f i BWAPILIB:BulletType.obj
 0001:00023a10       ??1My@UAlbertaBot@@QAE@XZ  10024a10 f i Base.obj
 0001:00023a50       ??1Your@UAlbertaBot@@QAE@XZ 10024a50 f i Base.obj
 0001:00023aa0       ??1PlayerSnapshot@UAlbertaBot@@QAE@XZ 10024aa0 f i Base.obj
 0001:00023ac0       ??1?$map@VUnitType@BWAPI@@HU?$less@VUnitType@BWAPI@@@std@@V?$allocator@U?$pair@$$CBVUnitType@BWAPI@@H@std@@@4@@std@@QAE@XZ 10024ac0 f i Base.obj
 0001:00023ac0       ??1?$map@PAVUnitInterface@BWAPI@@_NU?$less@PAVUnitInterface@BWAPI@@@std@@V?$allocator@U?$pair@QAVUnitInterface@BWAPI@@_N@std@@@4@@std@@QAE@XZ 10024ac0 f i Squad.obj
 0001:00023ae0       ?findFront@Base@UAlbertaBot@@ABE?AV?$Point@H$0CA@@BWAPI@@XZ 10024ae0 f   Base.obj
 0001:00023cf0       ??0Base@UAlbertaBot@@QAE@V?$Point@H$0CA@@BWAPI@@ABVUnitset@3@@Z 10024cf0 f   Base.obj
 0001:00024370       ??1GridDistances@UAlbertaBot@@QAE@XZ 10025370 f i Base.obj
 0001:00024390       ?isCompleted@Base@UAlbertaBot@@QBE_NXZ 10025390 f   Base.obj
 0001:00024540       ?setInferredEnemyBase@Base@UAlbertaBot@@QAEXXZ 10025540 f   Base.obj
 0001:00024580       ?getLastKnownMinerals@Base@UAlbertaBot@@QBEHXZ 10025580 f   Base.obj
 0001:00024690       ?getLastKnownGas@Base@UAlbertaBot@@QBEHXZ 10025690 f   Base.obj
 0001:000247a0       ?getPylon@Base@UAlbertaBot@@QBEPAVUnitInterface@BWAPI@@XZ 100257a0 f   Base.obj
 0001:00024940       ?isExplored@Base@UAlbertaBot@@QBE_NXZ 10025940 f   Base.obj
 0001:000249d0       ?isVisible@Base@UAlbertaBot@@QBE_NXZ 100259d0 f   Base.obj
 0001:00024a60       ?drawBaseInfo@Base@UAlbertaBot@@QBEXXZ 10025a60 f   Base.obj
 0001:00024e90       ??1?$vector@V?$vector@_NV?$allocator@_N@std@@@std@@V?$allocator@V?$vector@_NV?$allocator@_N@std@@@std@@@2@@std@@QAE@XZ 10025e90 f i Base.obj
 0001:00024ea0       ??1?$vector@V?$Point@H$00@BWAPI@@V?$allocator@V?$Point@H$00@BWAPI@@@std@@@std@@QAE@XZ 10025ea0 f i MicroTransports.obj
 0001:00024ea0       ??1?$vector@NV?$allocator@N@std@@@std@@QAE@XZ 10025ea0 f i NEATCommander.obj
 0001:00024ea0       ??1?$vector@V?$Point@H$0CA@@BWAPI@@V?$allocator@V?$Point@H$0CA@@BWAPI@@@std@@@std@@QAE@XZ 10025ea0 f i Base.obj
 0001:00024eb0       ??1?$list@VOrder@BWAPI@@V?$allocator@VOrder@BWAPI@@@std@@@std@@QAE@XZ 10025eb0 f i BWAPILIB:Order.obj
 0001:00024eb0       ??1?$list@VBulletType@BWAPI@@V?$allocator@VBulletType@BWAPI@@@std@@@std@@QAE@XZ 10025eb0 f i BWAPILIB:BulletType.obj
 0001:00024eb0       ??1?$list@VTechType@BWAPI@@V?$allocator@VTechType@BWAPI@@@std@@@std@@QAE@XZ 10025eb0 f i BWAPILIB:UnitType.obj
 0001:00024eb0       ??1?$list@VUpgradeType@BWAPI@@V?$allocator@VUpgradeType@BWAPI@@@std@@@std@@QAE@XZ 10025eb0 f i BWAPILIB:UnitType.obj
 0001:00024eb0       ??1?$list@PAVBulletInterface@BWAPI@@V?$allocator@PAVBulletInterface@BWAPI@@@std@@@std@@QAE@XZ 10025eb0 f i InformationManager.obj
 0001:00024eb0       ??1?$list@VWeaponType@BWAPI@@V?$allocator@VWeaponType@BWAPI@@@std@@@std@@QAE@XZ 10025eb0 f i BWAPILIB:WeaponType.obj
 0001:00024eb0       ??1?$list@VRace@BWAPI@@V?$allocator@VRace@BWAPI@@@std@@@std@@QAE@XZ 10025eb0 f i BWAPILIB:Race.obj
 0001:00024eb0       ??1?$list@VUnitType@BWAPI@@V?$allocator@VUnitType@BWAPI@@@std@@@std@@QAE@XZ 10025eb0 f i BWAPILIB:UnitType.obj
 0001:00024eb0       ??1?$list@PAVUnitInterface@BWAPI@@V?$allocator@PAVUnitInterface@BWAPI@@@std@@@std@@QAE@XZ 10025eb0 f i Base.obj
 0001:00024f00       ?clear@?$_Hash@V?$_Uset_traits@PAVBulletInterface@BWAPI@@V?$_Uhash_compare@PAVBulletInterface@BWAPI@@U?$hash@PAX@std@@U?$equal_to@PAVBulletInterface@BWAPI@@@4@@std@@V?$allocator@PAVBulletInterface@BWAPI@@@4@$0A@@std@@@std@@QAEXXZ 10025f00 f i InformationManager.obj
 0001:00024f00       ?clear@?$_Hash@V?$_Uset_traits@PAVUnitInterface@BWAPI@@V?$_Uhash_compare@PAVUnitInterface@BWAPI@@U?$hash@PAX@std@@U?$equal_to@PAVUnitInterface@BWAPI@@@4@@std@@V?$allocator@PAVUnitInterface@BWAPI@@@4@$0A@@std@@@std@@QAEXXZ 10025f00 f i Base.obj
 0001:00024f70       ?erase@?$_Hash@V?$_Uset_traits@PAVUnitInterface@BWAPI@@V?$_Uhash_compare@PAVUnitInterface@BWAPI@@U?$hash@PAX@std@@U?$equal_to@PAVUnitInterface@BWAPI@@@4@@std@@V?$allocator@PAVUnitInterface@BWAPI@@@4@$0A@@std@@@std@@QAEIABQAVUnitInterface@BWAPI@@@Z 10025f70 f i Base.obj
 0001:00025090       ?getName@?$Type@VUnitType@BWAPI@@$0OJ@@BWAPI@@QBEABV?$basic_string@DU?$char_traits@D@std@@V?$allocator@D@2@@std@@XZ 10026090 f i Base.obj
 0001:000250b0       ?c_str@?$basic_string@DU?$char_traits@D@std@@V?$allocator@D@2@@std@@QBEPBDXZ 100260b0 f i Base.obj
 0001:000250c0       ??1?$basic_string@DU?$char_traits@D@std@@V?$allocator@D@2@@std@@QAE@XZ 100260c0 f i Base.obj
 0001:000250c0       ??1?$pair@V?$basic_string@DU?$char_traits@D@std@@V?$allocator@D@2@@std@@N@std@@QAE@XZ 100260c0 f i OpponentModel.obj
 0001:000250c0       ?_Tidy_deallocate@?$basic_string@DU?$char_traits@D@std@@V?$allocator@D@2@@std@@QAEXXZ 100260c0 f i Base.obj
 0001:00025110       ??0?$basic_string@DU?$char_traits@D@std@@V?$allocator@D@2@@std@@QAE@QBD@Z 10026110 f i Base.obj
 0001:00025150       ?_Tidy@?$vector@VUnitCluster@UAlbertaBot@@V?$allocator@VUnitCluster@UAlbertaBot@@@std@@@std@@AAEXXZ 10026150 f i Base.obj
 0001:000251d0       ?_Tidy@?$vector@V?$vector@GV?$allocator@G@std@@@std@@V?$allocator@V?$vector@GV?$allocator@G@std@@@std@@@2@@std@@AAEXXZ 100261d0 f i Base.obj
 0001:000251d0       ?_Tidy@?$vector@V?$vector@FV?$allocator@F@std@@@std@@V?$allocator@V?$vector@FV?$allocator@F@std@@@std@@@2@@std@@AAEXXZ 100261d0 f i Base.obj
 0001:00025250       ??1?$_Tree_comp_alloc@V?$_Tmap_traits@PAVUnitInterface@BWAPI@@_NU?$less@PAVUnitInterface@BWAPI@@@std@@V?$allocator@U?$pair@QAVUnitInterface@BWAPI@@_N@std@@@4@$0A@@std@@@std@@QAE@XZ 10026250 f i Squad.obj
 0001:00025250       ??1?$_Tree_comp_alloc@V?$_Tmap_traits@VUnitType@BWAPI@@HU?$less@VUnitType@BWAPI@@@std@@V?$allocator@U?$pair@$$CBVUnitType@BWAPI@@H@std@@@4@$0A@@std@@@std@@QAE@XZ 10026250 f i Base.obj
 0001:00025260       ?_Tidy@?$_Tree@V?$_Tmap_traits@PAVUnitInterface@BWAPI@@_NU?$less@PAVUnitInterface@BWAPI@@@std@@V?$allocator@U?$pair@QAVUnitInterface@BWAPI@@_N@std@@@4@$0A@@std@@@std@@IAEXXZ 10026260 f i Squad.obj
 0001:00025260       ?_Tidy@?$_Tree@V?$_Tmap_traits@VUnitType@BWAPI@@HU?$less@VUnitType@BWAPI@@@std@@V?$allocator@U?$pair@$$CBVUnitType@BWAPI@@H@std@@@4@$0A@@std@@@std@@IAEXXZ 10026260 f i Base.obj
 0001:00025270       ?_Tidy@?$vector@V?$vector@_NV?$allocator@_N@std@@@std@@V?$allocator@V?$vector@_NV?$allocator@_N@std@@@std@@@2@@std@@AAEXXZ 10026270 f i Base.obj
 0001:000252e0       ?_Tidy@?$vector@V?$Point@H$00@BWAPI@@V?$allocator@V?$Point@H$00@BWAPI@@@std@@@std@@AAEXXZ 100262e0 f i MicroTransports.obj
 0001:000252e0       ??1?$vector@V?$Point@H$07@BWAPI@@V?$allocator@V?$Point@H$07@BWAPI@@@std@@@std@@QAE@XZ 100262e0 f i GridInset.obj
 0001:000252e0       ??1?$vector@V?$array@H$01@std@@V?$allocator@V?$array@H$01@std@@@2@@std@@QAE@XZ 100262e0 f i NEATCommander.obj
 0001:000252e0       ?_Tidy@?$vector@V?$Point@H$0CA@@BWAPI@@V?$allocator@V?$Point@H$0CA@@BWAPI@@@std@@@std@@AAEXXZ 100262e0 f i Base.obj
 0001:000252e0       ?_Tidy@?$vector@NV?$allocator@N@std@@@std@@AAEXXZ 100262e0 f i NEATCommander.obj
 0001:00025340       ?_Init@?$_Hash@V?$_Uset_traits@PAVUnitInterface@BWAPI@@V?$_Uhash_compare@PAVUnitInterface@BWAPI@@U?$hash@PAX@std@@U?$equal_to@PAVUnitInterface@BWAPI@@@4@@std@@V?$allocator@PAVUnitInterface@BWAPI@@@4@$0A@@std@@@std@@IAEXI@Z 10026340 f i Base.obj
 0001:00025340       ?_Init@?$_Hash@V?$_Uset_traits@PAVBulletInterface@BWAPI@@V?$_Uhash_compare@PAVBulletInterface@BWAPI@@U?$hash@PAX@std@@U?$equal_to@PAVBulletInterface@BWAPI@@@4@@std@@V?$allocator@PAVBulletInterface@BWAPI@@@4@$0A@@std@@@std@@IAEXI@Z 10026340 f i InformationManager.obj
 0001:00025340       ?_Init@?$_Hash@V?$_Umap_traits@HNV?$_Uhash_compare@HU?$hash@H@std@@U?$equal_to@H@2@@std@@V?$allocator@U?$pair@$$CBHN@std@@@2@$0A@@std@@@std@@IAEXI@Z 10026340 f i NEATCommander.obj
 0001:000253a0       ?assign@?$basic_string@DU?$char_traits@D@std@@V?$allocator@D@2@@std@@QAEAAV12@QBD@Z 100263a0 f i Base.obj
 0001:000253d0       ?assign@?$basic_string@DU?$char_traits@D@std@@V?$allocator@D@2@@std@@QAEAAV12@QBDI@Z 100263d0 f i Base.obj
 0001:00025500       ?execute@SkillBattles@UAlbertaBot@@UAEXXZ 10026500 f i SkillBattles.obj
 0001:00025500       ?execute@SkillUnitTimings@UAlbertaBot@@UAEXXZ 10026500 f i SkillUnitTimings.obj
 0001:00025500       ?_Orphan_all@?$_Vector_alloc@U?$_Vec_base_types@PAVSkill@UAlbertaBot@@V?$allocator@PAVSkill@UAlbertaBot@@@std@@@std@@@std@@QAEXXZ 10026500 f i Base.obj
 0001:00025500       ?execute@SkillOpeningTiming@UAlbertaBot@@UAEXXZ 10026500 f i SkillOpeningTiming.obj
 0001:00025500       ?onFrame@AIModule@BWAPI@@UAEXXZ 10026500 f i BWAPILIB:AIModule.obj
 0001:00025500       ??1?$GenericValue@U?$UTF8@D@rapidjson@@V?$MemoryPoolAllocator@VCrtAllocator@rapidjson@@@2@@rapidjson@@QAE@XZ 10026500 f i JSONTools.obj
 0001:00025500       ?draw@Skill@UAlbertaBot@@UBEXXZ 10026500 f i Skill.obj
 0001:00025500       @_guard_check_icall_nop@4  10026500 f i MSVCRT:guard_support.obj
 0001:00025500       ?onStart@AIModule@BWAPI@@UAEXXZ 10026500 f i BWAPILIB:AIModule.obj
 0001:00025500       ?execute@SkillLurkers@UAlbertaBot@@UAEXXZ 10026500 f i SkillLurkers.obj
 0001:00025510       ?_Destroy@?$vector@VUnitCluster@UAlbertaBot@@V?$allocator@VUnitCluster@UAlbertaBot@@@std@@@std@@AAEXPAVUnitCluster@UAlbertaBot@@0@Z 10026510 f i Base.obj
 0001:00025530       ?deallocate@?$allocator@VUnitCluster@UAlbertaBot@@@std@@QAEXQAVUnitCluster@UAlbertaBot@@I@Z 10026530 f i Base.obj
 0001:00025570       ?assign@?$vector@V?$_List_unchecked_iterator@V?$_List_val@U?$_List_simple_types@U?$pair@$$CBHN@std@@@std@@@std@@@std@@V?$allocator@V?$_List_unchecked_iterator@V?$_List_val@U?$_List_simple_types@U?$pair@$$CBHN@std@@@std@@@std@@@std@@@2@@std@@QAEXIABV?$_List_unchecked_iterator@V?$_List_val@U?$_List_simple_types@U?$pair@$$CBHN@std@@@std@@@std@@@2@@Z 10026570 f i NEATCommander.obj
 0001:00025570       ?assign@?$vector@V?$_List_unchecked_const_iterator@V?$_List_val@U?$_List_simple_types@PAVBulletInterface@BWAPI@@@std@@@std@@U_Iterator_base0@2@@std@@V?$allocator@V?$_List_unchecked_const_iterator@V?$_List_val@U?$_List_simple_types@PAVBulletInterface@BWAPI@@@std@@@std@@U_Iterator_base0@2@@std@@@2@@std@@QAEXIABV?$_List_unchecked_const_iterator@V?$_List_val@U?$_List_simple_types@PAVBulletInterface@BWAPI@@@std@@@std@@U_Iterator_base0@2@@2@@Z 10026570 f i InformationManager.obj
 0001:00025570       ?assign@?$vector@V?$_List_unchecked_const_iterator@V?$_List_val@U?$_List_simple_types@PAVUnitInterface@BWAPI@@@std@@@std@@U_Iterator_base0@2@@std@@V?$allocator@V?$_List_unchecked_const_iterator@V?$_List_val@U?$_List_simple_types@PAVUnitInterface@BWAPI@@@std@@@std@@U_Iterator_base0@2@@std@@@2@@std@@QAEXIABV?$_List_unchecked_const_iterator@V?$_List_val@U?$_List_simple_types@PAVUnitInterface@BWAPI@@@std@@@std@@U_Iterator_base0@2@@2@@Z 10026570 f i Base.obj
 0001:000256e0       ?erase@?$_Hash@V?$_Uset_traits@PAVUnitInterface@BWAPI@@V?$_Uhash_compare@PAVUnitInterface@BWAPI@@U?$hash@PAX@std@@U?$equal_to@PAVUnitInterface@BWAPI@@@4@@std@@V?$allocator@PAVUnitInterface@BWAPI@@@4@$0A@@std@@@std@@QAE?AV?$_List_const_iterator@V?$_List_val@U?$_List_simple_types@PAVUnitInterface@BWAPI@@@std@@@std@@@2@V32@@Z 100266e0 f i Base.obj
 0001:000256e0       ?erase@?$_Hash@V?$_Uset_traits@PAVBulletInterface@BWAPI@@V?$_Uhash_compare@PAVBulletInterface@BWAPI@@U?$hash@PAX@std@@U?$equal_to@PAVBulletInterface@BWAPI@@@4@@std@@V?$allocator@PAVBulletInterface@BWAPI@@@4@$0A@@std@@@std@@QAE?AV?$_List_const_iterator@V?$_List_val@U?$_List_simple_types@PAVBulletInterface@BWAPI@@@std@@@std@@@2@V32@@Z 100266e0 f i InformationManager.obj
 0001:000257a0       ?_Make_iter@?$_Hash@V?$_Uset_traits@PAVUnitInterface@BWAPI@@V?$_Uhash_compare@PAVUnitInterface@BWAPI@@U?$hash@PAX@std@@U?$equal_to@PAVUnitInterface@BWAPI@@@4@@std@@V?$allocator@PAVUnitInterface@BWAPI@@@4@$0A@@std@@@std@@QBE?AV?$_List_const_iterator@V?$_List_val@U?$_List_simple_types@PAVUnitInterface@BWAPI@@@std@@@std@@@2@V?$_List_unchecked_const_iterator@V?$_List_val@U?$_List_simple_types@PAVUnitInterface@BWAPI@@@std@@@std@@U_Iterator_base0@2@@2@@Z 100267a0 f i Base.obj
 0001:000257a0       ?_Make_iter@?$_Hash@V?$_Umap_traits@HNV?$_Uhash_compare@HU?$hash@H@std@@U?$equal_to@H@2@@std@@V?$allocator@U?$pair@$$CBHN@std@@@2@$0A@@std@@@std@@QBE?AV?$_List_iterator@V?$_List_val@U?$_List_simple_types@U?$pair@$$CBHN@std@@@std@@@std@@@2@V?$_List_unchecked_const_iterator@V?$_List_val@U?$_List_simple_types@U?$pair@$$CBHN@std@@@std@@@std@@U_Iterator_base0@2@@2@@Z 100267a0 f i NEATCommander.obj
 0001:000257a0       ?_Make_iter@?$_Hash@V?$_Uset_traits@PAVBulletInterface@BWAPI@@V?$_Uhash_compare@PAVBulletInterface@BWAPI@@U?$hash@PAX@std@@U?$equal_to@PAVBulletInterface@BWAPI@@@4@@std@@V?$allocator@PAVBulletInterface@BWAPI@@@4@$0A@@std@@@std@@QBE?AV?$_List_const_iterator@V?$_List_val@U?$_List_simple_types@PAVBulletInterface@BWAPI@@@std@@@std@@@2@V?$_List_unchecked_const_iterator@V?$_List_val@U?$_List_simple_types@PAVBulletInterface@BWAPI@@@std@@@std@@U_Iterator_base0@2@@2@@Z 100267a0 f i InformationManager.obj
 0001:000257b0       ?clear@?$_Tree@V?$_Tmap_traits@PAVUnitInterface@BWAPI@@_NU?$less@PAVUnitInterface@BWAPI@@@std@@V?$allocator@U?$pair@QAVUnitInterface@BWAPI@@_N@std@@@4@$0A@@std@@@std@@QAEXXZ 100267b0 f i Squad.obj
 0001:000257b0       ?clear@?$_Tree@V?$_Tmap_traits@VUnitType@BWAPI@@HU?$less@VUnitType@BWAPI@@@std@@V?$allocator@U?$pair@$$CBVUnitType@BWAPI@@H@std@@@4@$0A@@std@@@std@@QAEXXZ 100267b0 f i Base.obj
 0001:00025840       ?_Xlength@?$vector@U?$pair@W4LurkerTactic@UAlbertaBot@@V?$basic_string@DU?$char_traits@D@std@@V?$allocator@D@2@@std@@@std@@V?$allocator@U?$pair@W4LurkerTactic@UAlbertaBot@@V?$basic_string@DU?$char_traits@D@std@@V?$allocator@D@2@@std@@@std@@@2@@std@@CAXXZ 10026840 f i CombatCommander.obj
 0001:00025840       ?_Xlength@?$vector@V?$_List_unchecked_const_iterator@V?$_List_val@U?$_List_simple_types@VUpgradeType@BWAPI@@@std@@@std@@U_Iterator_base0@2@@std@@V?$allocator@V?$_List_unchecked_const_iterator@V?$_List_val@U?$_List_simple_types@VUpgradeType@BWAPI@@@std@@@std@@U_Iterator_base0@2@@std@@@2@@std@@CAXXZ 10026840 f i BWAPILIB:UnitType.obj
 0001:00025840       ?_Xlength@?$vector@VPotentialBase@UAlbertaBot@@V?$allocator@VPotentialBase@UAlbertaBot@@@std@@@std@@CAXXZ 10026840 f i Bases.obj
 0001:00025840       ?_Xlength@?$vector@V?$vector@FV?$allocator@F@std@@@std@@V?$allocator@V?$vector@FV?$allocator@F@std@@@std@@@2@@std@@CAXXZ 10026840 f i Grid.obj
 0001:00025840       ?_Xlength@?$vector@V?$_List_unchecked_const_iterator@V?$_List_val@U?$_List_simple_types@VWeaponType@BWAPI@@@std@@@std@@U_Iterator_base0@2@@std@@V?$allocator@V?$_List_unchecked_const_iterator@V?$_List_val@U?$_List_simple_types@VWeaponType@BWAPI@@@std@@@std@@U_Iterator_base0@2@@std@@@2@@std@@CAXXZ 10026840 f i BWAPILIB:WeaponType.obj
 0001:00025840       ?_Xlength@?$vector@VUnitCluster@UAlbertaBot@@V?$allocator@VUnitCluster@UAlbertaBot@@@std@@@std@@CAXXZ 10026840 f i OpsBoss.obj
 0001:00025840       ?_Xlength@?$vector@GV?$allocator@G@std@@@std@@CAXXZ 10026840 f i MapPartitions.obj
 0001:00025840       ?_Xlength@?$vector@UConnection@@V?$allocator@UConnection@@@std@@@std@@CAXXZ 10026840 f i NodeEval.obj
 0001:00025840       ?_Xlength@?$vector@V?$vector@GV?$allocator@G@std@@@std@@V?$allocator@V?$vector@GV?$allocator@G@std@@@std@@@2@@std@@CAXXZ 10026840 f i MapPartitions.obj
 0001:00025840       ?_Xlength@?$vector@V?$_List_unchecked_const_iterator@V?$_List_val@U?$_List_simple_types@VBulletType@BWAPI@@@std@@@std@@U_Iterator_base0@2@@std@@V?$allocator@V?$_List_unchecked_const_iterator@V?$_List_val@U?$_List_simple_types@VBulletType@BWAPI@@@std@@@std@@U_Iterator_base0@2@@std@@@2@@std@@CAXXZ 10026840 f i BWAPILIB:BulletType.obj
 0001:00025840       ?_Xlength@?$vector@PAUGameSnapshot@UAlbertaBot@@V?$allocator@PAUGameSnapshot@UAlbertaBot@@@std@@@std@@CAXXZ 10026840 f i GameRecord.obj
 0001:00025840       ?_Xlength@?$vector@HV?$allocator@H@std@@@std@@CAXXZ 10026840 f i GameRecord.obj
 0001:00025840       ?_Xlength@?$vector@UBattleRecord@SkillBattles@UAlbertaBot@@V?$allocator@UBattleRecord@SkillBattles@UAlbertaBot@@@std@@@std@@CAXXZ 10026840 f i SkillBattles.obj
 0001:00025840       ?_Xlength@?$vector@EV?$allocator@E@std@@@std@@CAXXZ 10026840 f i db.obj
 0001:00025840       ?_Xlength@?$vector@VMacroAct@UAlbertaBot@@V?$allocator@VMacroAct@UAlbertaBot@@@std@@@std@@CAXXZ 10026840 f i BOSSManager.obj
 0001:00025840       ?_Xlength@?$vector@V?$_List_unchecked_const_iterator@V?$_List_val@U?$_List_simple_types@PAVUnitInterface@BWAPI@@@std@@@std@@U_Iterator_base0@2@@std@@V?$allocator@V?$_List_unchecked_const_iterator@V?$_List_val@U?$_List_simple_types@PAVUnitInterface@BWAPI@@@std@@@std@@U_Iterator_base0@2@@std@@@2@@std@@CAXXZ 10026840 f i Base.obj
 0001:00025840       ?_Xlength@?$vector@PAVUnitInterface@BWAPI@@V?$allocator@PAVUnitInterface@BWAPI@@@std@@@std@@CAXXZ 10026840 f i CombatCommander.obj
 0001:00025840       ?_Xlength@?$vector@V?$_List_unchecked_iterator@V?$_List_val@U?$_List_simple_types@U?$pair@$$CBHN@std@@@std@@@std@@@std@@V?$allocator@V?$_List_unchecked_iterator@V?$_List_val@U?$_List_simple_types@U?$pair@$$CBHN@std@@@std@@@std@@@std@@@2@@std@@CAXXZ 10026840 f i NEATCommander.obj
 0001:00025840       ?_Xlength@?$vector@IV?$allocator@I@std@@@std@@CAXXZ 10026840 f i BOSSManager.obj
 0001:00025840       ?_Xlength@?$vector@NV?$allocator@N@std@@@std@@CAXXZ 10026840 f i NEATCommander.obj
 0001:00025840       ?_Xlength@?$vector@V?$array@H$01@std@@V?$allocator@V?$array@H$01@std@@@2@@std@@CAXXZ 10026840 f i NEATCommander.obj
 0001:00025840       ?_Xlength@?$vector@V?$_List_unchecked_const_iterator@V?$_List_val@U?$_List_simple_types@VTechType@BWAPI@@@std@@@std@@U_Iterator_base0@2@@std@@V?$allocator@V?$_List_unchecked_const_iterator@V?$_List_val@U?$_List_simple_types@VTechType@BWAPI@@@std@@@std@@U_Iterator_base0@2@@std@@@2@@std@@CAXXZ 10026840 f i BWAPILIB:UnitType.obj
 0001:00025840       ?_Xlength@?$vector@FV?$allocator@F@std@@@std@@CAXXZ 10026840 f i Grid.obj
 0001:00025840       ?_Xlength@?$vector@V?$Point@H$0CA@@BWAPI@@V?$allocator@V?$Point@H$0CA@@BWAPI@@@std@@@std@@CAXXZ 10026840 f i GridDistances.obj
 0001:00025840       ?_Xlength@?$vector@V?$_List_unchecked_const_iterator@V?$_List_val@U?$_List_simple_types@PAVBulletInterface@BWAPI@@@std@@@std@@U_Iterator_base0@2@@std@@V?$allocator@V?$_List_unchecked_const_iterator@V?$_List_val@U?$_List_simple_types@PAVBulletInterface@BWAPI@@@std@@@std@@U_Iterator_base0@2@@std@@@2@@std@@CAXXZ 10026840 f i InformationManager.obj
 0001:00025840       ?_Xlength@?$vector@V?$Point@H$00@BWAPI@@V?$allocator@V?$Point@H$00@BWAPI@@@std@@@std@@CAXXZ 10026840 f i MicroTransports.obj
 0001:00025840       ?_Xlength@?$vector@VGridCell@UAlbertaBot@@V?$allocator@VGridCell@UAlbertaBot@@@std@@@std@@CAXXZ 10026840 f i MapGrid.obj
 0001:00025840       ?_Xlength@?$vector@V?$vector@VActionType@BOSS@@V?$allocator@VActionType@BOSS@@@std@@@std@@V?$allocator@V?$vector@VActionType@BOSS@@V?$allocator@VActionType@BOSS@@@std@@@std@@@2@@std@@CAXXZ 10026840 f i BOSS:ActionType.obj
 0001:00025840       ?_Xlength@?$vector@UUnitInfo@UAlbertaBot@@V?$allocator@UUnitInfo@UAlbertaBot@@@std@@@std@@CAXXZ 10026840 f i InformationManager.obj
 0001:00025840       ?_Xlength@?$vector@V?$_List_unchecked_const_iterator@V?$_List_val@U?$_List_simple_types@VRace@BWAPI@@@std@@@std@@U_Iterator_base0@2@@std@@V?$allocator@V?$_List_unchecked_const_iterator@V?$_List_val@U?$_List_simple_types@VRace@BWAPI@@@std@@@std@@U_Iterator_base0@2@@std@@@2@@std@@CAXXZ 10026840 f i BWAPILIB:Race.obj
 0001:00025840       ?_Xlength@?$vector@VActionType@BOSS@@V?$allocator@VActionType@BOSS@@@std@@@std@@CAXXZ 10026840 f i BOSSManager.obj
 0001:00025840       ?_Xlength@?$vector@VUnitset@BWAPI@@V?$allocator@VUnitset@BWAPI@@@std@@@std@@CAXXZ 10026840 f i Bases.obj
 0001:00025840       ?_Xlength@?$vector@PAVGameRecord@UAlbertaBot@@V?$allocator@PAVGameRecord@UAlbertaBot@@@std@@@std@@CAXXZ 10026840 f i OpponentModel.obj
 0001:00025840       ?_Xlength@?$vector@V?$vector@_NV?$allocator@_N@std@@@std@@V?$allocator@V?$vector@_NV?$allocator@_N@std@@@std@@@2@@std@@CAXXZ 10026840 f i BuildingPlacer.obj
 0001:00025840       ?_Xlength@?$vector@U?$pair@W4OpeningPlan@UAlbertaBot@@V?$basic_string@DU?$char_traits@D@std@@V?$allocator@D@2@@std@@@std@@V?$allocator@U?$pair@W4OpeningPlan@UAlbertaBot@@V?$basic_string@DU?$char_traits@D@std@@V?$allocator@D@2@@std@@@std@@@2@@std@@CAXXZ 10026840 f i BuildingManager.obj
 0001:00025840       ?_Xlength@?$vector@V?$basic_string@DU?$char_traits@D@std@@V?$allocator@D@2@@std@@V?$allocator@V?$basic_string@DU?$char_traits@D@std@@V?$allocator@D@2@@std@@@2@@std@@CAXXZ 10026840 f i db.obj
 0001:00025840       ?_Xlength@?$vector@V?$reference_wrapper@VBuilding@UAlbertaBot@@@std@@V?$allocator@V?$reference_wrapper@VBuilding@UAlbertaBot@@@std@@@2@@std@@CAXXZ 10026840 f i BuildingManager.obj
 0001:00025840       ?_Xlength@?$vector@V?$_List_unchecked_const_iterator@V?$_List_val@U?$_List_simple_types@VUnitType@BWAPI@@@std@@@std@@U_Iterator_base0@2@@std@@V?$allocator@V?$_List_unchecked_const_iterator@V?$_List_val@U?$_List_simple_types@VUnitType@BWAPI@@@std@@@std@@U_Iterator_base0@2@@std@@@2@@std@@CAXXZ 10026840 f i BWAPILIB:UnitType.obj
 0001:00025840       ?_Xlength@?$vector@VBuilding@UAlbertaBot@@V?$allocator@VBuilding@UAlbertaBot@@@std@@@std@@CAXXZ 10026840 f i BuildingManager.obj
 0001:00025840       ?_Xlength@?$vector@U?$pair@V?$basic_string@DU?$char_traits@D@std@@V?$allocator@D@2@@std@@N@std@@V?$allocator@U?$pair@V?$basic_string@DU?$char_traits@D@std@@V?$allocator@D@2@@std@@N@std@@@2@@std@@CAXXZ 10026840 f i OpponentModel.obj
 0001:00025840       ?_Xlength@?$vector@VActionTypeData@BOSS@@V?$allocator@VActionTypeData@BOSS@@@std@@@std@@CAXXZ 10026840 f i BOSS:ActionTypeData.obj
 0001:00025840       ?_Xlength@?$vector@PAVBase@UAlbertaBot@@V?$allocator@PAVBase@UAlbertaBot@@@std@@@std@@CAXXZ 10026840 f i Bases.obj
 0001:00025840       ?_Xlength@?$vector@VUnitType@BWAPI@@V?$allocator@VUnitType@BWAPI@@@std@@@std@@CAXXZ 10026840 f i BuildingManager.obj
 0001:00025840       ?_Xlength@?$vector@PAVZone@UAlbertaBot@@V?$allocator@PAVZone@UAlbertaBot@@@std@@@std@@CAXXZ 10026840 f i GridZone.obj
 0001:00025840       ?_Xlength@?$vector@V?$Point@H$07@BWAPI@@V?$allocator@V?$Point@H$07@BWAPI@@@std@@@std@@CAXXZ 10026840 f i GridInset.obj
 0001:00025840       ?_Xlength@?$vector@DV?$allocator@D@std@@@std@@CAXXZ 10026840 f i db.obj
 0001:00025840       ?_Xlength@?$vector@V?$basic_json@Vmap@std@@Vvector@2@V?$basic_string@DU?$char_traits@D@std@@V?$allocator@D@2@@2@_N_J_KNVallocator@2@Uadl_serializer@json_abi_v3_11_3@nlohmann@@V?$vector@EV?$allocator@E@std@@@2@X@json_abi_v3_11_3@nlohmann@@V?$allocator@V?$basic_json@Vmap@std@@Vvector@2@V?$basic_string@DU?$char_traits@D@std@@V?$allocator@D@2@@2@_N_J_KNVallocator@2@Uadl_serializer@json_abi_v3_11_3@nlohmann@@V?$vector@EV?$allocator@E@std@@@2@X@json_abi_v3_11_3@nlohmann@@@std@@@std@@CAXXZ 10026840 f i db.obj
 0001:00025840       ?_Xlength@?$vector@VNodeEval@@V?$allocator@VNodeEval@@@std@@@std@@CAXXZ 10026840 f i NodeEval.obj
 0001:00025840       ?_Xlength@?$vector@V?$_List_unchecked_const_iterator@V?$_List_val@U?$_List_simple_types@VOrder@BWAPI@@@std@@@std@@U_Iterator_base0@2@@std@@V?$allocator@V?$_List_unchecked_const_iterator@V?$_List_val@U?$_List_simple_types@VOrder@BWAPI@@@std@@@std@@U_Iterator_base0@2@@std@@@2@@std@@CAXXZ 10026840 f i BWAPILIB:Order.obj
 0001:00025840       ?_Xlength@?$vector@PAVSkill@UAlbertaBot@@V?$allocator@PAVSkill@UAlbertaBot@@@std@@@std@@CAXXZ 10026840 f i SkillKit.obj
 0001:00025840       ?_Xlength@?$vector@PAV?$basic_json@Vmap@std@@Vvector@2@V?$basic_string@DU?$char_traits@D@std@@V?$allocator@D@2@@2@_N_J_KNVallocator@2@Uadl_serializer@json_abi_v3_11_3@nlohmann@@V?$vector@EV?$allocator@E@std@@@2@X@json_abi_v3_11_3@nlohmann@@V?$allocator@PAV?$basic_json@Vmap@std@@Vvector@2@V?$basic_string@DU?$char_traits@D@std@@V?$allocator@D@2@@2@_N_J_KNVallocator@2@Uadl_serializer@json_abi_v3_11_3@nlohmann@@V?$vector@EV?$allocator@E@std@@@2@X@json_abi_v3_11_3@nlohmann@@@std@@@std@@CAXXZ 10026840 f i db.obj
 0001:00025840       ?_Xlength@?$vector@UFAPUnit@FastAPproximation@UAlbertaBot@@V?$allocator@UFAPUnit@FastAPproximation@UAlbertaBot@@@std@@@std@@CAXXZ 10026840 f i FAP.obj
 0001:00025850       ?_Reallocate_exactly@?$vector@V?$_List_unchecked_iterator@V?$_List_val@U?$_List_simple_types@U?$pair@$$CBHN@std@@@std@@@std@@@std@@V?$allocator@V?$_List_unchecked_iterator@V?$_List_val@U?$_List_simple_types@U?$pair@$$CBHN@std@@@std@@@std@@@std@@@2@@std@@AAEXI@Z 10026850 f i NEATCommander.obj
 0001:00025850       ?_Reallocate_exactly@?$vector@V?$_List_unchecked_const_iterator@V?$_List_val@U?$_List_simple_types@PAVUnitInterface@BWAPI@@@std@@@std@@U_Iterator_base0@2@@std@@V?$allocator@V?$_List_unchecked_const_iterator@V?$_List_val@U?$_List_simple_types@PAVUnitInterface@BWAPI@@@std@@@std@@U_Iterator_base0@2@@std@@@2@@std@@AAEXI@Z 10026850 f i Base.obj
 0001:00025850       ?_Reallocate_exactly@?$vector@V?$_List_unchecked_const_iterator@V?$_List_val@U?$_List_simple_types@PAVBulletInterface@BWAPI@@@std@@@std@@U_Iterator_base0@2@@std@@V?$allocator@V?$_List_unchecked_const_iterator@V?$_List_val@U?$_List_simple_types@PAVBulletInterface@BWAPI@@@std@@@std@@U_Iterator_base0@2@@std@@@2@@std@@AAEXI@Z 10026850 f i InformationManager.obj
 0001:00025950       ?_Extract@?$_Tree_val@U?$_Tree_simple_types@U?$pair@QAVUnitInterface@BWAPI@@VCasterState@UAlbertaBot@@@std@@@std@@@std@@QAEPAU?$_Tree_node@U?$pair@QAVUnitInterface@BWAPI@@VCasterState@UAlbertaBot@@@std@@PAX@2@V?$_Tree_const_iterator@V?$_Tree_val@U?$_Tree_simple_types@U?$pair@QAVUnitInterface@BWAPI@@VCasterState@UAlbertaBot@@@std@@@std@@@std@@@2@@Z 10026950 f i MicroAirToAir.obj
 0001:00025950       ?_Extract@?$_Tree_val@U?$_Tree_simple_types@U?$pair@QAVPlayerInterface@BWAPI@@VUnitData@UAlbertaBot@@@std@@@std@@@std@@QAEPAU?$_Tree_node@U?$pair@QAVPlayerInterface@BWAPI@@VUnitData@UAlbertaBot@@@std@@PAX@2@V?$_Tree_const_iterator@V?$_Tree_val@U?$_Tree_simple_types@U?$pair@QAVPlayerInterface@BWAPI@@VUnitData@UAlbertaBot@@@std@@@std@@@std@@@2@@Z 10026950 f i InformationManager.obj
 0001:00025950       ?_Extract@?$_Tree_val@U?$_Tree_simple_types@U?$pair@QAVUnitInterface@BWAPI@@V?$Point@H$0CA@@2@@std@@@std@@@std@@QAEPAU?$_Tree_node@U?$pair@QAVUnitInterface@BWAPI@@V?$Point@H$0CA@@2@@std@@PAX@2@V?$_Tree_const_iterator@V?$_Tree_val@U?$_Tree_simple_types@U?$pair@QAVUnitInterface@BWAPI@@V?$Point@H$0CA@@2@@std@@@std@@@std@@@2@@Z 10026950 f i MicroOverlords.obj
 0001:00025950       ?_Extract@?$_Tree_val@U?$_Tree_simple_types@U?$pair@QAVSkill@UAlbertaBot@@V?$map@HV?$vector@HV?$allocator@H@std@@@std@@U?$less@H@2@V?$allocator@U?$pair@$$CBHV?$vector@HV?$allocator@H@std@@@std@@@std@@@2@@std@@@std@@@std@@@std@@QAEPAU?$_Tree_node@U?$pair@QAVSkill@UAlbertaBot@@V?$map@HV?$vector@HV?$allocator@H@std@@@std@@U?$less@H@2@V?$allocator@U?$pair@$$CBHV?$vector@HV?$allocator@H@std@@@std@@@std@@@2@@std@@@std@@PAX@2@V?$_Tree_const_iterator@V?$_Tree_val@U?$_Tree_simple_types@U?$pair@QAVSkill@UAlbertaBot@@V?$map@HV?$vector@HV?$allocator@H@std@@@std@@U?$less@H@2@V?$allocator@U?$pair@$$CBHV?$vector@HV?$allocator@H@std@@@std@@@std@@@2@@std@@@std@@@std@@@std@@@2@@Z 10026950 f i GameRecord.obj
 0001:00025950       ?_Extract@?$_Tree_val@U?$_Tree_simple_types@U?$pair@$$CBV?$basic_string@DU?$char_traits@D@std@@V?$allocator@D@2@@std@@VActionType@BOSS@@@std@@@std@@@std@@QAEPAU?$_Tree_node@U?$pair@$$CBV?$basic_string@DU?$char_traits@D@std@@V?$allocator@D@2@@std@@VActionType@BOSS@@@std@@PAX@2@V?$_Tree_const_iterator@V?$_Tree_val@U?$_Tree_simple_types@U?$pair@$$CBV?$basic_string@DU?$char_traits@D@std@@V?$allocator@D@2@@std@@VActionType@BOSS@@@std@@@std@@@std@@@2@@Z 10026950 f i BOSS:ActionType.obj
 0001:00025950       ?_Extract@?$_Tree_val@U?$_Tree_simple_types@U?$pair@QAVUnitInterface@BWAPI@@VWorkerPost@WorkerData@UAlbertaBot@@@std@@@std@@@std@@QAEPAU?$_Tree_node@U?$pair@QAVUnitInterface@BWAPI@@VWorkerPost@WorkerData@UAlbertaBot@@@std@@PAX@2@V?$_Tree_const_iterator@V?$_Tree_val@U?$_Tree_simple_types@U?$pair@QAVUnitInterface@BWAPI@@VWorkerPost@WorkerData@UAlbertaBot@@@std@@@std@@@std@@@2@@Z 10026950 f i WorkerData.obj
 0001:00025950       ?_Extract@?$_Tree_val@U?$_Tree_simple_types@U?$pair@QAVUnitInterface@BWAPI@@VMicroState@UAlbertaBot@@@std@@@std@@@std@@QAEPAU?$_Tree_node@U?$pair@QAVUnitInterface@BWAPI@@VMicroState@UAlbertaBot@@@std@@PAX@2@V?$_Tree_const_iterator@V?$_Tree_val@U?$_Tree_simple_types@U?$pair@QAVUnitInterface@BWAPI@@VMicroState@UAlbertaBot@@@std@@@std@@@std@@@2@@Z 10026950 f i Base.obj
 0001:00025950       ?_Extract@?$_Tree_val@U?$_Tree_simple_types@U?$pair@QAVUnitInterface@BWAPI@@W4WorkerJob@WorkerData@UAlbertaBot@@@std@@@std@@@std@@QAEPAU?$_Tree_node@U?$pair@QAVUnitInterface@BWAPI@@W4WorkerJob@WorkerData@UAlbertaBot@@@std@@PAX@2@V?$_Tree_const_iterator@V?$_Tree_val@U?$_Tree_simple_types@U?$pair@QAVUnitInterface@BWAPI@@W4WorkerJob@WorkerData@UAlbertaBot@@@std@@@std@@@std@@@2@@Z 10026950 f i WorkerData.obj
 0001:00025d80       ?_Erase@?$_Tree@V?$_Tmap_traits@PAVUnitInterface@BWAPI@@VMicroState@UAlbertaBot@@U?$less@PAVUnitInterface@BWAPI@@@std@@V?$allocator@U?$pair@QAVUnitInterface@BWAPI@@VMicroState@UAlbertaBot@@@std@@@6@$0A@@std@@@std@@IAEXPAU?$_Tree_node@U?$pair@QAVUnitInterface@BWAPI@@VMicroState@UAlbertaBot@@@std@@PAX@2@@Z 10026d80 f i Base.obj
 0001:00025dc0       ?_Erase@?$_Tree@V?$_Tmap_traits@V?$Point@H$0CA@@BWAPI@@VGridDistances@UAlbertaBot@@U?$less@V?$Point@H$0CA@@BWAPI@@@std@@V?$allocator@U?$pair@$$CBV?$Point@H$0CA@@BWAPI@@VGridDistances@UAlbertaBot@@@std@@@6@$0A@@std@@@std@@IAEXPAU?$_Tree_node@U?$pair@$$CBV?$Point@H$0CA@@BWAPI@@VGridDistances@UAlbertaBot@@@std@@PAX@2@@Z 10026dc0 f i Base.obj
 0001:00025e10       ?_Erase@?$_Tree@V?$_Tmap_traits@PAVUnitInterface@BWAPI@@PAVBase@UAlbertaBot@@U?$less@PAVUnitInterface@BWAPI@@@std@@V?$allocator@U?$pair@QAVUnitInterface@BWAPI@@PAVBase@UAlbertaBot@@@std@@@6@$0A@@std@@@std@@IAEXPAU?$_Tree_node@U?$pair@QAVUnitInterface@BWAPI@@PAVBase@UAlbertaBot@@@std@@PAX@2@@Z 10026e10 f i Bases.obj
 0001:00025e10       ?_Erase@?$_Tree@V?$_Tmap_traits@VUnitType@BWAPI@@HU?$less@VUnitType@BWAPI@@@std@@V?$allocator@U?$pair@$$CBVUnitType@BWAPI@@H@std@@@4@$0A@@std@@@std@@IAEXPAU?$_Tree_node@U?$pair@$$CBVUnitType@BWAPI@@H@std@@PAX@2@@Z 10026e10 f i Base.obj
 0001:00025e10       ?_Erase@?$_Tree@V?$_Tset_traits@V?$Point@H$0CA@@BWAPI@@U?$less@V?$Point@H$0CA@@BWAPI@@@std@@V?$allocator@V?$Point@H$0CA@@BWAPI@@@4@$0A@@std@@@std@@IAEXPAU?$_Tree_node@V?$Point@H$0CA@@BWAPI@@PAX@2@@Z 10026e10 f i MicroOverlords.obj
 0001:00025e10       ?_Erase@?$_Tree@V?$_Tmap_traits@PAVUnitInterface@BWAPI@@W4WorkerJob@WorkerData@UAlbertaBot@@U?$less@PAVUnitInterface@BWAPI@@@std@@V?$allocator@U?$pair@QAVUnitInterface@BWAPI@@W4WorkerJob@WorkerData@UAlbertaBot@@@std@@@7@$0A@@std@@@std@@IAEXPAU?$_Tree_node@U?$pair@QAVUnitInterface@BWAPI@@W4WorkerJob@WorkerData@UAlbertaBot@@@std@@PAX@2@@Z 10026e10 f i WorkerData.obj
 0001:00025e10       ?_Erase@?$_Tree@V?$_Tmap_traits@VUpgradeType@BWAPI@@HU?$less@VUpgradeType@BWAPI@@@std@@V?$allocator@U?$pair@$$CBVUpgradeType@BWAPI@@H@std@@@4@$0A@@std@@@std@@IAEXPAU?$_Tree_node@U?$pair@$$CBVUpgradeType@BWAPI@@H@std@@PAX@2@@Z 10026e10 f i GameRecord.obj
 0001:00025e10       ?_Erase@?$_Tree@V?$_Tmap_traits@VTechType@BWAPI@@HU?$less@VTechType@BWAPI@@@std@@V?$allocator@U?$pair@$$CBVTechType@BWAPI@@H@std@@@4@$0A@@std@@@std@@IAEXPAU?$_Tree_node@U?$pair@$$CBVTechType@BWAPI@@H@std@@PAX@2@@Z 10026e10 f i GameRecord.obj
 0001:00025e10       ?_Erase@?$_Tree@V?$_Tmap_traits@PAVUnitInterface@BWAPI@@_NU?$less@PAVUnitInterface@BWAPI@@@std@@V?$allocator@U?$pair@QAVUnitInterface@BWAPI@@_N@std@@@4@$0A@@std@@@std@@IAEXPAU?$_Tree_node@U?$pair@QAVUnitInterface@BWAPI@@_N@std@@PAX@2@@Z 10026e10 f i Squad.obj
 0001:00025e10       ?_Erase@?$_Tree@V?$_Tmap_traits@W4GameTech@UAlbertaBot@@HU?$less@W4GameTech@UAlbertaBot@@@std@@V?$allocator@U?$pair@$$CBW4GameTech@UAlbertaBot@@H@std@@@4@$0A@@std@@@std@@IAEXPAU?$_Tree_node@U?$pair@$$CBW4GameTech@UAlbertaBot@@H@std@@PAX@2@@Z 10026e10 f i GameRecordNow.obj
 0001:00025e10       ?_Erase@?$_Tree@V?$_Tmap_traits@PAVUnitInterface@BWAPI@@PAV12@U?$less@PAVUnitInterface@BWAPI@@@std@@V?$allocator@U?$pair@QAVUnitInterface@BWAPI@@PAV12@@std@@@4@$0A@@std@@@std@@IAEXPAU?$_Tree_node@U?$pair@QAVUnitInterface@BWAPI@@PAV12@@std@@PAX@2@@Z 10026e10 f i WorkerData.obj
 0001:00025e10       ?_Erase@?$_Tree@V?$_Tmap_traits@PAVUnitInterface@BWAPI@@HU?$less@PAVUnitInterface@BWAPI@@@std@@V?$allocator@U?$pair@QAVUnitInterface@BWAPI@@H@std@@@4@$0A@@std@@@std@@IAEXPAU?$_Tree_node@U?$pair@QAVUnitInterface@BWAPI@@H@std@@PAX@2@@Z 10026e10 f i WorkerData.obj
 0001:00025e10       ?_Erase@?$_Tree@V?$_Tmap_traits@W4LurkerTactic@UAlbertaBot@@HU?$less@W4LurkerTactic@UAlbertaBot@@@std@@V?$allocator@U?$pair@$$CBW4LurkerTactic@UAlbertaBot@@H@std@@@4@$0A@@std@@@std@@IAEXPAU?$_Tree_node@U?$pair@$$CBW4LurkerTactic@UAlbertaBot@@H@std@@PAX@2@@Z 10026e10 f i SkillLurkers.obj
 0001:00025e50       ?_Max@?$_Tree_val@U?$_Tree_simple_types@U?$pair@QAVUnitInterface@BWAPI@@VWorkerPost@WorkerData@UAlbertaBot@@@std@@@std@@@std@@SAPAU?$_Tree_node@U?$pair@QAVUnitInterface@BWAPI@@VWorkerPost@WorkerData@UAlbertaBot@@@std@@PAX@2@PAU32@@Z 10026e50 f i WorkerData.obj
 0001:00025e50       ?_Max@?$_Tree_val@U?$_Tree_simple_types@U?$pair@$$CBV?$basic_string@DU?$char_traits@D@std@@V?$allocator@D@2@@std@@VSquad@UAlbertaBot@@@std@@@std@@@std@@SAPAU?$_Tree_node@U?$pair@$$CBV?$basic_string@DU?$char_traits@D@std@@V?$allocator@D@2@@std@@VSquad@UAlbertaBot@@@std@@PAX@2@PAU32@@Z 10026e50 f i CombatCommander.obj
 0001:00025e50       ?_Max@?$_Tree_val@U?$_Tree_simple_types@U?$pair@QAVUnitInterface@BWAPI@@VMicroState@UAlbertaBot@@@std@@@std@@@std@@SAPAU?$_Tree_node@U?$pair@QAVUnitInterface@BWAPI@@VMicroState@UAlbertaBot@@@std@@PAX@2@PAU32@@Z 10026e50 f i Base.obj
 0001:00025e50       ?_Max@?$_Tree_val@U?$_Tree_simple_types@U?$pair@QAVUnitInterface@BWAPI@@PAV12@@std@@@std@@@std@@SAPAU?$_Tree_node@U?$pair@QAVUnitInterface@BWAPI@@PAV12@@std@@PAX@2@PAU32@@Z 10026e50 f i MicroMutas.obj
 0001:00025e50       ?_Max@?$_Tree_val@U?$_Tree_simple_types@U?$pair@QAVPlayerInterface@BWAPI@@VUnitData@UAlbertaBot@@@std@@@std@@@std@@SAPAU?$_Tree_node@U?$pair@QAVPlayerInterface@BWAPI@@VUnitData@UAlbertaBot@@@std@@PAX@2@PAU32@@Z 10026e50 f i InformationManager.obj
 0001:00025e50       ?_Max@?$_Tree_val@U?$_Tree_simple_types@U?$pair@QAVUnitInterface@BWAPI@@PAVBase@UAlbertaBot@@@std@@@std@@@std@@SAPAU?$_Tree_node@U?$pair@QAVUnitInterface@BWAPI@@PAVBase@UAlbertaBot@@@std@@PAX@2@PAU32@@Z 10026e50 f i Bases.obj
 0001:00025e50       ?_Max@?$_Tree_val@U?$_Tree_simple_types@U?$pair@QAVUnitInterface@BWAPI@@W4WorkerJob@WorkerData@UAlbertaBot@@@std@@@std@@@std@@SAPAU?$_Tree_node@U?$pair@QAVUnitInterface@BWAPI@@W4WorkerJob@WorkerData@UAlbertaBot@@@std@@PAX@2@PAU32@@Z 10026e50 f i WorkerData.obj
 0001:00025e50       ?_Max@?$_Tree_val@U?$_Tree_simple_types@U?$pair@QAVUnitInterface@BWAPI@@H@std@@@std@@@std@@SAPAU?$_Tree_node@U?$pair@QAVUnitInterface@BWAPI@@H@std@@PAX@2@PAU32@@Z 10026e50 f i WorkerData.obj
 0001:00025e50       ?_Max@?$_Tree_val@U?$_Tree_simple_types@U?$pair@QAVUnitInterface@BWAPI@@VCasterState@UAlbertaBot@@@std@@@std@@@std@@SAPAU?$_Tree_node@U?$pair@QAVUnitInterface@BWAPI@@VCasterState@UAlbertaBot@@@std@@PAX@2@PAU32@@Z 10026e50 f i MicroAirToAir.obj
 0001:00025e50       ?_Max@?$_Tree_val@U?$_Tree_simple_types@U?$pair@QAVSkill@UAlbertaBot@@V?$map@HV?$vector@HV?$allocator@H@std@@@std@@U?$less@H@2@V?$allocator@U?$pair@$$CBHV?$vector@HV?$allocator@H@std@@@std@@@std@@@2@@std@@@std@@@std@@@std@@SAPAU?$_Tree_node@U?$pair@QAVSkill@UAlbertaBot@@V?$map@HV?$vector@HV?$allocator@H@std@@@std@@U?$less@H@2@V?$allocator@U?$pair@$$CBHV?$vector@HV?$allocator@H@std@@@std@@@std@@@2@@std@@@std@@PAX@2@PAU32@@Z 10026e50 f i GameRecord.obj
 0001:00025e50       ?_Max@?$_Tree_val@U?$_Tree_simple_types@U?$pair@QAVUnitInterface@BWAPI@@UUnitInfo@UAlbertaBot@@@std@@@std@@@std@@SAPAU?$_Tree_node@U?$pair@QAVUnitInterface@BWAPI@@UUnitInfo@UAlbertaBot@@@std@@PAX@2@PAU32@@Z 10026e50 f i InformationManager.obj
 0001:00025e50       ?_Max@?$_Tree_val@U?$_Tree_simple_types@U?$pair@$$CBV?$basic_string@DU?$char_traits@D@std@@V?$allocator@D@2@@std@@V?$basic_json@Vmap@std@@Vvector@2@V?$basic_string@DU?$char_traits@D@std@@V?$allocator@D@2@@2@_N_J_KNVallocator@2@Uadl_serializer@json_abi_v3_11_3@nlohmann@@V?$vector@EV?$allocator@E@std@@@2@X@json_abi_v3_11_3@nlohmann@@@std@@@std@@@std@@SAPAU?$_Tree_node@U?$pair@$$CBV?$basic_string@DU?$char_traits@D@std@@V?$allocator@D@2@@std@@V?$basic_json@Vmap@std@@Vvector@2@V?$basic_string@DU?$char_traits@D@std@@V?$allocator@D@2@@2@_N_J_KNVallocator@2@Uadl_serializer@json_abi_v3_11_3@nlohmann@@V?$vector@EV?$allocator@E@std@@@2@X@json_abi_v3_11_3@nlohmann@@@std@@PAX@2@PAU32@@Z 10026e50 f i db.obj
 0001:00025e50       ?_Max@?$_Tree_val@U?$_Tree_simple_types@U?$pair@$$CBV?$basic_string@DU?$char_traits@D@std@@V?$allocator@D@2@@std@@VActionType@BOSS@@@std@@@std@@@std@@SAPAU?$_Tree_node@U?$pair@$$CBV?$basic_string@DU?$char_traits@D@std@@V?$allocator@D@2@@std@@VActionType@BOSS@@@std@@PAX@2@PAU32@@Z 10026e50 f i BOSS:ActionType.obj
 0001:00025e50       ?_Max@?$_Tree_val@U?$_Tree_simple_types@U?$pair@QAVUnitInterface@BWAPI@@V?$Point@H$0CA@@2@@std@@@std@@@std@@SAPAU?$_Tree_node@U?$pair@QAVUnitInterface@BWAPI@@V?$Point@H$0CA@@2@@std@@PAX@2@PAU32@@Z 10026e50 f i MicroOverlords.obj
 0001:00025e70       ??E?$_Tree_unchecked_const_iterator@V?$_Tree_val@U?$_Tree_simple_types@U?$pair@$$CBVUpgradeType@BWAPI@@H@std@@@std@@@std@@U_Iterator_base0@2@@std@@QAEAAV01@XZ 10026e70 f i GameRecord.obj
 0001:00025e70       ??E?$_Tree_unchecked_const_iterator@V?$_Tree_val@U?$_Tree_simple_types@U?$pair@$$CBV?$basic_string@DU?$char_traits@D@std@@V?$allocator@D@2@@std@@UOpeningInfoType@OpponentModel@UAlbertaBot@@@std@@@std@@@std@@U_Iterator_base0@2@@std@@QAEAAV01@XZ 10026e70 f i OpponentModel.obj
 0001:00025e70       ??E?$_Tree_unchecked_const_iterator@V?$_Tree_val@U?$_Tree_simple_types@U?$pair@QAVUnitInterface@BWAPI@@PAV12@@std@@@std@@@std@@U_Iterator_base0@2@@std@@QAEAAV01@XZ 10026e70 f i MicroMutas.obj
 0001:00025e70       ??E?$_Tree_unchecked_const_iterator@V?$_Tree_val@U?$_Tree_simple_types@U?$pair@QAVUnitInterface@BWAPI@@H@std@@@std@@@std@@U_Iterator_base0@2@@std@@QAEAAV01@XZ 10026e70 f i WorkerData.obj
 0001:00025e70       ??E?$_Tree_unchecked_const_iterator@V?$_Tree_val@U?$_Tree_simple_types@U?$pair@$$CBVUnitType@BWAPI@@H@std@@@std@@@std@@U_Iterator_base0@2@@std@@QAEAAV01@XZ 10026e70 f i Base.obj
 0001:00025e70       ??E?$_Tree_unchecked_const_iterator@V?$_Tree_val@U?$_Tree_simple_types@U?$pair@$$CBV?$basic_string@DU?$char_traits@D@std@@V?$allocator@D@2@@std@@VSquad@UAlbertaBot@@@std@@@std@@@std@@U_Iterator_base0@2@@std@@QAEAAV01@XZ 10026e70 f i CombatCommander.obj
 0001:00025e70       ??E?$_Tree_unchecked_const_iterator@V?$_Tree_val@U?$_Tree_simple_types@U?$pair@$$CBV?$basic_string@DU?$char_traits@D@std@@V?$allocator@D@2@@std@@V?$basic_json@Vmap@std@@Vvector@2@V?$basic_string@DU?$char_traits@D@std@@V?$allocator@D@2@@2@_N_J_KNVallocator@2@Uadl_serializer@json_abi_v3_11_3@nlohmann@@V?$vector@EV?$allocator@E@std@@@2@X@json_abi_v3_11_3@nlohmann@@@std@@@std@@@std@@U_Iterator_base0@2@@std@@QAEAAV01@XZ 10026e70 f i db.obj
 0001:00025e70       ??E?$_Tree_unchecked_const_iterator@V?$_Tree_val@U?$_Tree_simple_types@U?$pair@QAVUnitInterface@BWAPI@@UUnitInfo@UAlbertaBot@@@std@@@std@@@std@@U_Iterator_base0@2@@std@@QAEAAV01@XZ 10026e70 f i CombatSimulation.obj
 0001:00025e70       ??E?$_Tree_unchecked_const_iterator@V?$_Tree_val@U?$_Tree_simple_types@U?$pair@$$CBVTechType@BWAPI@@H@std@@@std@@@std@@U_Iterator_base0@2@@std@@QAEAAV01@XZ 10026e70 f i GameRecord.obj
 0001:00025ed0       ??$?VV?$UnaryFilter@PAVUnitInterface@BWAPI@@V?$function@$$A6A_NPAVUnitInterface@BWAPI@@@Z@std@@@BWAPI@@@?$UnaryFilter@PAVUnitInterface@BWAPI@@P6A_NPAV12@@Z@BWAPI@@QBE?AV?$UnaryFilter@PAVUnitInterface@BWAPI@@V?$function@$$A6A_NPAVUnitInterface@BWAPI@@@Z@std@@@1@ABV21@@Z 10026ed0 f i Base.obj
 0001:00025fe0       ??$?0V<lambda_59e4abf1f646fd939a8d58a73427ae7d>@@@?$UnaryFilter@PAVUnitInterface@BWAPI@@V?$function@$$A6A_NPAVUnitInterface@BWAPI@@@Z@std@@@BWAPI@@QAE@ABV<lambda_59e4abf1f646fd939a8d58a73427ae7d>@@@Z 10026fe0 f i Base.obj
 0001:00026010       ??$_Deallocate@$07$0A@@std@@YAXPAXI@Z 10027010 f i Base.obj
 0001:00026040       ??$_Destroy_range@V?$allocator@VUnitCluster@UAlbertaBot@@@std@@@std@@YAXPAVUnitCluster@UAlbertaBot@@0AAV?$allocator@VUnitCluster@UAlbertaBot@@@0@@Z 10027040 f i Base.obj
 0001:000260b0       ??$_Fill_unchecked@PAV?$_List_unchecked_iterator@V?$_List_val@U?$_List_simple_types@U?$pair@$$CBHN@std@@@std@@@std@@@std@@V12@@std@@YAXPAV?$_List_unchecked_iterator@V?$_List_val@U?$_List_simple_types@U?$pair@$$CBHN@std@@@std@@@std@@@0@0ABV10@@Z 100270b0 f i NEATCommander.obj
 0001:000260b0       ??$_Fill_unchecked@PAV?$_List_unchecked_const_iterator@V?$_List_val@U?$_List_simple_types@PAVBulletInterface@BWAPI@@@std@@@std@@U_Iterator_base0@2@@std@@V12@@std@@YAXPAV?$_List_unchecked_const_iterator@V?$_List_val@U?$_List_simple_types@PAVBulletInterface@BWAPI@@@std@@@std@@U_Iterator_base0@2@@0@0ABV10@@Z 100270b0 f i InformationManager.obj
 0001:000260b0       ??$_Fill_unchecked@PAV?$_List_unchecked_const_iterator@V?$_List_val@U?$_List_simple_types@PAVUnitInterface@BWAPI@@@std@@@std@@U_Iterator_base0@2@@std@@V12@@std@@YAXPAV?$_List_unchecked_const_iterator@V?$_List_val@U?$_List_simple_types@PAVUnitInterface@BWAPI@@@std@@@std@@U_Iterator_base0@2@@0@0ABV10@@Z 100270b0 f i Base.obj
 0001:00026130       ??1<lambda_c39fdb09d160b656fde65dff274b627b>@@QAE@XZ 10027130 f i MicroDefilers.obj
 0001:00026130       ??1<lambda_cfd6fce307c286eb3135c7782fdef1bb>@@QAE@XZ 10027130 f i MicroIrradiated.obj
 0001:00026130       ??1<lambda_a75142be93029274f5333ecd96084427>@@QAE@XZ 10027130 f i BuildingPlacer.obj
 0001:00026130       ??1<lambda_cef79e0d1072eba124270f82643b14a2>@@QAE@XZ 10027130 f i Base.obj
 0001:00026190       ?_Xlen@?$basic_string@DU?$char_traits@D@std@@V?$allocator@D@2@@std@@SAXXZ 10027190 f i Base.obj
 0001:000261a0       ??$_Insert@ABQAVUnitInterface@BWAPI@@U_Not_a_node_tag@std@@@?$_Hash@V?$_Uset_traits@PAVUnitInterface@BWAPI@@V?$_Uhash_compare@PAVUnitInterface@BWAPI@@U?$hash@PAX@std@@U?$equal_to@PAVUnitInterface@BWAPI@@@4@@std@@V?$allocator@PAVUnitInterface@BWAPI@@@4@$0A@@std@@@std@@IAE?AU?$pair@V?$_List_const_iterator@V?$_List_val@U?$_List_simple_types@PAVUnitInterface@BWAPI@@@std@@@std@@@std@@_N@1@ABQAVUnitInterface@BWAPI@@U_Not_a_node_tag@1@@Z 100271a0 f i Base.obj
 0001:00026370       ??$?0V<lambda_cb250b491d44fd5fafa1308ee8ece773>@@@?$UnaryFilter@PAVUnitInterface@BWAPI@@V?$function@$$A6A_NPAVUnitInterface@BWAPI@@@Z@std@@@BWAPI@@QAE@ABV<lambda_cb250b491d44fd5fafa1308ee8ece773>@@@Z 10027370 f i Base.obj
 0001:000263a0       ?_Check_size@?$_Hash@V?$_Uset_traits@PAVBulletInterface@BWAPI@@V?$_Uhash_compare@PAVBulletInterface@BWAPI@@U?$hash@PAX@std@@U?$equal_to@PAVBulletInterface@BWAPI@@@4@@std@@V?$allocator@PAVBulletInterface@BWAPI@@@4@$0A@@std@@@std@@IAEXXZ 100273a0 f i InformationManager.obj
 0001:000263a0       ?_Check_size@?$_Hash@V?$_Uset_traits@PAVUnitInterface@BWAPI@@V?$_Uhash_compare@PAVUnitInterface@BWAPI@@U?$hash@PAX@std@@U?$equal_to@PAVUnitInterface@BWAPI@@@4@@std@@V?$allocator@PAVUnitInterface@BWAPI@@@4@$0A@@std@@@std@@IAEXXZ 100273a0 f i Base.obj
 0001:00026440       ?_Buynode0@?$_List_alloc@U?$_List_base_types@PAVBulletInterface@BWAPI@@V?$allocator@PAVBulletInterface@BWAPI@@@std@@@std@@@std@@QAEPAU?$_List_node@PAVBulletInterface@BWAPI@@PAX@2@PAU32@0@Z 10027440 f i InformationManager.obj
 0001:00026440       ?_Buynode0@?$_List_alloc@U?$_List_base_types@PAVUnitInterface@BWAPI@@V?$allocator@PAVUnitInterface@BWAPI@@@std@@@std@@@std@@QAEPAU?$_List_node@PAVUnitInterface@BWAPI@@PAX@2@PAU32@0@Z 10027440 f i Base.obj
 0001:00026470       ??$_Insert@AAPAVBulletInterface@BWAPI@@V?$_List_unchecked_const_iterator@V?$_List_val@U?$_List_simple_types@PAVBulletInterface@BWAPI@@@std@@@std@@U_Iterator_base0@2@@std@@@?$_Hash@V?$_Uset_traits@PAVBulletInterface@BWAPI@@V?$_Uhash_compare@PAVBulletInterface@BWAPI@@U?$hash@PAX@std@@U?$equal_to@PAVBulletInterface@BWAPI@@@4@@std@@V?$allocator@PAVBulletInterface@BWAPI@@@4@$0A@@std@@@std@@IAE?AU?$pair@V?$_List_const_iterator@V?$_List_val@U?$_List_simple_types@PAVBulletInterface@BWAPI@@@std@@@std@@@std@@_N@1@AAPAVBulletInterface@BWAPI@@V?$_List_unchecked_const_iterator@V?$_List_val@U?$_List_simple_types@PAVBulletInterface@BWAPI@@@std@@@std@@U_Iterator_base0@2@@1@@Z 10027470 f i InformationManager.obj
 0001:00026470       ??$_Insert@ABQAVBulletInterface@BWAPI@@V?$_List_unchecked_const_iterator@V?$_List_val@U?$_List_simple_types@PAVBulletInterface@BWAPI@@@std@@@std@@U_Iterator_base0@2@@std@@@?$_Hash@V?$_Uset_traits@PAVBulletInterface@BWAPI@@V?$_Uhash_compare@PAVBulletInterface@BWAPI@@U?$hash@PAX@std@@U?$equal_to@PAVBulletInterface@BWAPI@@@4@@std@@V?$allocator@PAVBulletInterface@BWAPI@@@4@$0A@@std@@@std@@IAE?AU?$pair@V?$_List_const_iterator@V?$_List_val@U?$_List_simple_types@PAVBulletInterface@BWAPI@@@std@@@std@@@std@@_N@1@ABQAVBulletInterface@BWAPI@@V?$_List_unchecked_const_iterator@V?$_List_val@U?$_List_simple_types@PAVBulletInterface@BWAPI@@@std@@@std@@U_Iterator_base0@2@@1@@Z 10027470 f i InformationManager.obj
 0001:00026470       ??$_Insert@ABQAVUnitInterface@BWAPI@@V?$_List_unchecked_const_iterator@V?$_List_val@U?$_List_simple_types@PAVUnitInterface@BWAPI@@@std@@@std@@U_Iterator_base0@2@@std@@@?$_Hash@V?$_Uset_traits@PAVUnitInterface@BWAPI@@V?$_Uhash_compare@PAVUnitInterface@BWAPI@@U?$hash@PAX@std@@U?$equal_to@PAVUnitInterface@BWAPI@@@4@@std@@V?$allocator@PAVUnitInterface@BWAPI@@@4@$0A@@std@@@std@@IAE?AU?$pair@V?$_List_const_iterator@V?$_List_val@U?$_List_simple_types@PAVUnitInterface@BWAPI@@@std@@@std@@@std@@_N@1@ABQAVUnitInterface@BWAPI@@V?$_List_unchecked_const_iterator@V?$_List_val@U?$_List_simple_types@PAVUnitInterface@BWAPI@@@std@@@std@@U_Iterator_base0@2@@1@@Z 10027470 f i Base.obj
 0001:00026470       ??$_Insert@AAPAVUnitInterface@BWAPI@@V?$_List_unchecked_const_iterator@V?$_List_val@U?$_List_simple_types@PAVUnitInterface@BWAPI@@@std@@@std@@U_Iterator_base0@2@@std@@@?$_Hash@V?$_Uset_traits@PAVUnitInterface@BWAPI@@V?$_Uhash_compare@PAVUnitInterface@BWAPI@@U?$hash@PAX@std@@U?$equal_to@PAVUnitInterface@BWAPI@@@4@@std@@V?$allocator@PAVUnitInterface@BWAPI@@@4@$0A@@std@@@std@@IAE?AU?$pair@V?$_List_const_iterator@V?$_List_val@U?$_List_simple_types@PAVUnitInterface@BWAPI@@@std@@@std@@@std@@_N@1@AAPAVUnitInterface@BWAPI@@V?$_List_unchecked_const_iterator@V?$_List_val@U?$_List_simple_types@PAVUnitInterface@BWAPI@@@std@@@std@@U_Iterator_base0@2@@1@@Z 10027470 f i Bases.obj
 0001:00026620       ??1UnitCluster@UAlbertaBot@@QAE@XZ 10027620 f i Base.obj
 0001:00026680       ?_Delete_this@?$_Func_impl_no_alloc@V<lambda_3cdec769ff18744395981dd48fcfc232>@@_NPAVUnitInterface@BWAPI@@@std@@EAEX_N@Z 10027680 f i Micro.obj
 0001:00026680       ?_Delete_this@?$_Func_impl_no_alloc@V<lambda_78f85996966d427a337d8e82ed1b3dbd>@@_NPAVUnitInterface@BWAPI@@@std@@EAEX_N@Z 10027680 f i MicroQueens.obj
 0001:00026680       ?_Delete_this@?$_Func_impl_no_alloc@V<lambda_118b755b5cc58de9f37bbbebea1f7d1c>@@_NPAVUnitInterface@BWAPI@@@std@@EAEX_N@Z 10027680 f i MicroIrradiated.obj
 0001:00026680       ?_Delete_this@?$_Func_impl_no_alloc@V<lambda_e0d4f0a6843bbf70301b4930bfad8260>@@_NPAVUnitInterface@BWAPI@@@std@@EAEX_N@Z 10027680 f i MicroManager.obj
 0001:00026680       ?_Delete_this@?$_Func_impl_no_alloc@V<lambda_5f0711d792da3a2e3345062a6240f8fe>@@_NPAVUnitInterface@BWAPI@@@std@@EAEX_N@Z 10027680 f i MicroDefilers.obj
 0001:00026680       ?_Delete_this@?$_Func_impl_no_alloc@V<lambda_cb250b491d44fd5fafa1308ee8ece773>@@_NPAVUnitInterface@BWAPI@@@std@@EAEX_N@Z 10027680 f i Base.obj
 0001:00026680       ?_Delete_this@?$_Func_impl_no_alloc@V<lambda_59e4abf1f646fd939a8d58a73427ae7d>@@_NPAVUnitInterface@BWAPI@@@std@@EAEX_N@Z 10027680 f i Base.obj
 0001:000266a0       ?capacity@?$Vec@VActionCountPair@BOSS@@$0GE@@BOSS@@QBEABIXZ 100276a0 f i BOSS:PrerequisiteSet.obj
 0001:000266a0       ?_Get@?$_Func_impl_no_alloc@P6ANABV?$vector@NV?$allocator@N@std@@@std@@@ZNABV12@@std@@EBEPBXXZ 100276a0 f i NodeEval.obj
 0001:000266a0       ?_Get@?$_Func_impl_no_alloc@P6ANV?$vector@NV?$allocator@N@std@@@std@@@ZNABV12@@std@@EBEPBXXZ 100276a0 f i NodeEval.obj
 0001:000266a0       ?_Get@?$_Func_impl_no_alloc@V<lambda_118b755b5cc58de9f37bbbebea1f7d1c>@@_NPAVUnitInterface@BWAPI@@@std@@EBEPBXXZ 100276a0 f i MicroIrradiated.obj
 0001:000266a0       ?_Get@?$_Func_impl_no_alloc@V?$UnaryFilter@PAVUnitInterface@BWAPI@@P6A_NPAV12@@Z@BWAPI@@_NPAVUnitInterface@2@@std@@EBEPBXXZ 100276a0 f i CombatCommander.obj
 0001:000266a0       ?_Get@?$_Func_impl_no_alloc@V<lambda_3cdec769ff18744395981dd48fcfc232>@@_NPAVUnitInterface@BWAPI@@@std@@EBEPBXXZ 100276a0 f i Micro.obj
 0001:000266a0       ?_Get@?$_Func_impl_no_alloc@V<lambda_78f85996966d427a337d8e82ed1b3dbd>@@_NPAVUnitInterface@BWAPI@@@std@@EBEPBXXZ 100276a0 f i MicroQueens.obj
 0001:000266a0       ?_Get@?$_Func_impl_no_alloc@V<lambda_e0d4f0a6843bbf70301b4930bfad8260>@@_NPAVUnitInterface@BWAPI@@@std@@EBEPBXXZ 100276a0 f i MicroManager.obj
 0001:000266a0       ?_Get@?$_Func_impl_no_alloc@V<lambda_5f0711d792da3a2e3345062a6240f8fe>@@_NPAVUnitInterface@BWAPI@@@std@@EBEPBXXZ 100276a0 f i MicroDefilers.obj
 0001:000266a0       ?_Get@?$_Func_impl_no_alloc@V<lambda_cb250b491d44fd5fafa1308ee8ece773>@@_NPAVUnitInterface@BWAPI@@@std@@EBEPBXXZ 100276a0 f i Base.obj
 0001:000266a0       ?_Get@?$_Func_impl_no_alloc@V<lambda_a2cf48cc0ad720342f05725db62c6909>@@_NPAVUnitInterface@BWAPI@@@std@@EBEPBXXZ 100276a0 f i MicroDefilers.obj
 0001:000266a0       ?_Get@?$_Func_impl_no_alloc@V<lambda_59e4abf1f646fd939a8d58a73427ae7d>@@_NPAVUnitInterface@BWAPI@@@std@@EBEPBXXZ 100276a0 f i Base.obj
 0001:000266a0       ?_Get@?$_Func_impl_no_alloc@P6ANN@ZNN@std@@EBEPBXXZ 100276a0 f i NodeEval.obj
 0001:000266b0       ?_Target_type@?$_Func_impl_no_alloc@V<lambda_59e4abf1f646fd939a8d58a73427ae7d>@@_NPAVUnitInterface@BWAPI@@@std@@EBEABVtype_info@@XZ 100276b0 f i Base.obj
 0001:000266c0       ?_Copy@?$_Func_impl_no_alloc@V<lambda_59e4abf1f646fd939a8d58a73427ae7d>@@_NPAVUnitInterface@BWAPI@@@std@@EBEPAV?$_Func_base@_NPAVUnitInterface@BWAPI@@@2@PAX@Z 100276c0 f i Base.obj
 0001:000266c0       ?_Move@?$_Func_impl_no_alloc@V<lambda_59e4abf1f646fd939a8d58a73427ae7d>@@_NPAVUnitInterface@BWAPI@@@std@@EAEPAV?$_Func_base@_NPAVUnitInterface@BWAPI@@@2@PAX@Z 100276c0 f i Base.obj
 0001:000266e0       ??1?$vector@GV?$allocator@G@std@@@std@@QAE@XZ 100276e0 f i Base.obj
 0001:000266e0       ??1?$vector@VActionType@BOSS@@V?$allocator@VActionType@BOSS@@@std@@@std@@QAE@XZ 100276e0 f i BOSSManager.obj
 0001:000266e0       ??1?$vector@FV?$allocator@F@std@@@std@@QAE@XZ 100276e0 f i Base.obj
 0001:000266f0       ??1?$vector@_NV?$allocator@_N@std@@@std@@QAE@XZ 100276f0 f i Base.obj
 0001:000266f0       ??1?$_Vb_val@V?$allocator@_N@std@@@std@@QAE@XZ 100276f0 f i Base.obj
 0001:000266f0       ??1?$vector@PAVUnitInterface@BWAPI@@V?$allocator@PAVUnitInterface@BWAPI@@@std@@@std@@QAE@XZ 100276f0 f i CombatCommander.obj
 0001:000266f0       ??1?$vector@HV?$allocator@H@std@@@std@@QAE@XZ 100276f0 f i GameRecord.obj
 0001:00026700       ?_Tidy@?$vector@VActionType@BOSS@@V?$allocator@VActionType@BOSS@@@std@@@std@@AAEXXZ 10027700 f i BOSSManager.obj
 0001:00026700       ?_Tidy@?$vector@GV?$allocator@G@std@@@std@@AAEXXZ 10027700 f i Base.obj
 0001:00026700       ?_Tidy@?$vector@FV?$allocator@F@std@@@std@@AAEXXZ 10027700 f i Base.obj
 0001:00026760       ?_Do_call@?$_Func_impl_no_alloc@V<lambda_e0d4f0a6843bbf70301b4930bfad8260>@@_NPAVUnitInterface@BWAPI@@@std@@EAE_N$$QAPAVUnitInterface@BWAPI@@@Z 10027760 f i MicroManager.obj
 0001:00026760       ?_Do_call@?$_Func_impl_no_alloc@V<lambda_59e4abf1f646fd939a8d58a73427ae7d>@@_NPAVUnitInterface@BWAPI@@@std@@EAE_N$$QAPAVUnitInterface@BWAPI@@@Z 10027760 f i Base.obj
 0001:00026790       ?_Delete_this@?$_Func_impl_no_alloc@V<lambda_cef79e0d1072eba124270f82643b14a2>@@_NPAVUnitInterface@BWAPI@@@std@@EAEX_N@Z 10027790 f i Base.obj
 0001:00026790       ?_Delete_this@?$_Func_impl_no_alloc@V<lambda_a75142be93029274f5333ecd96084427>@@_NPAVUnitInterface@BWAPI@@@std@@EAEX_N@Z 10027790 f i BuildingPlacer.obj
 0001:00026790       ?_Delete_this@?$_Func_impl_no_alloc@V<lambda_cfd6fce307c286eb3135c7782fdef1bb>@@_NPAVUnitInterface@BWAPI@@@std@@EAEX_N@Z 10027790 f i MicroIrradiated.obj
 0001:00026790       ?_Delete_this@?$_Func_impl_no_alloc@V<lambda_c39fdb09d160b656fde65dff274b627b>@@_NPAVUnitInterface@BWAPI@@@std@@EAEX_N@Z 10027790 f i MicroDefilers.obj
 0001:00026800       ?_Get@?$_Func_impl_no_alloc@V<lambda_a75142be93029274f5333ecd96084427>@@_NPAVUnitInterface@BWAPI@@@std@@EBEPBXXZ 10027800 f i BuildingPlacer.obj
 0001:00026800       ?_Get@?$_Func_impl_no_alloc@V<lambda_cef79e0d1072eba124270f82643b14a2>@@_NPAVUnitInterface@BWAPI@@@std@@EBEPBXXZ 10027800 f i Base.obj
 0001:00026800       ?_Get@?$_Func_impl_no_alloc@V<lambda_cfd6fce307c286eb3135c7782fdef1bb>@@_NPAVUnitInterface@BWAPI@@@std@@EBEPBXXZ 10027800 f i MicroIrradiated.obj
 0001:00026800       ?_Get@?$_Func_impl_no_alloc@V<lambda_c39fdb09d160b656fde65dff274b627b>@@_NPAVUnitInterface@BWAPI@@@std@@EBEPBXXZ 10027800 f i MicroDefilers.obj
 0001:00026810       ?_Target_type@?$_Func_impl_no_alloc@V<lambda_cef79e0d1072eba124270f82643b14a2>@@_NPAVUnitInterface@BWAPI@@@std@@EBEABVtype_info@@XZ 10027810 f i Base.obj
 0001:00026820       ?_Move@?$_Func_impl_no_alloc@V<lambda_cef79e0d1072eba124270f82643b14a2>@@_NPAVUnitInterface@BWAPI@@@std@@EAEPAV?$_Func_base@_NPAVUnitInterface@BWAPI@@@2@PAX@Z 10027820 f i Base.obj
 0001:00026890       ?_Copy@?$_Func_impl_no_alloc@V<lambda_cef79e0d1072eba124270f82643b14a2>@@_NPAVUnitInterface@BWAPI@@@std@@EBEPAV?$_Func_base@_NPAVUnitInterface@BWAPI@@@2@PAX@Z 10027890 f i Base.obj
 0001:000268a0       ?_Target_type@?$_Func_impl_no_alloc@V<lambda_cb250b491d44fd5fafa1308ee8ece773>@@_NPAVUnitInterface@BWAPI@@@std@@EBEABVtype_info@@XZ 100278a0 f i Base.obj
 0001:000268b0       ?_Move@?$_Func_impl_no_alloc@V<lambda_cb250b491d44fd5fafa1308ee8ece773>@@_NPAVUnitInterface@BWAPI@@@std@@EAEPAV?$_Func_base@_NPAVUnitInterface@BWAPI@@@2@PAX@Z 100278b0 f i Base.obj
 0001:000268b0       ?_Copy@?$_Func_impl_no_alloc@V<lambda_cb250b491d44fd5fafa1308ee8ece773>@@_NPAVUnitInterface@BWAPI@@@std@@EBEPAV?$_Func_base@_NPAVUnitInterface@BWAPI@@@2@PAX@Z 100278b0 f i Base.obj
 0001:000268d0       ?_Do_call@?$_Func_impl_no_alloc@V<lambda_cb250b491d44fd5fafa1308ee8ece773>@@_NPAVUnitInterface@BWAPI@@@std@@EAE_N$$QAPAVUnitInterface@BWAPI@@@Z 100278d0 f i Base.obj
 0001:00026920       ?_Do_call@?$_Func_impl_no_alloc@V<lambda_cef79e0d1072eba124270f82643b14a2>@@_NPAVUnitInterface@BWAPI@@@std@@EAE_N$$QAPAVUnitInterface@BWAPI@@@Z 10027920 f i Base.obj
 0001:00026970       ??$_Buynode@ABQAVBulletInterface@BWAPI@@@?$_List_buy@PAVBulletInterface@BWAPI@@V?$allocator@PAVBulletInterface@BWAPI@@@std@@@std@@QAEPAU?$_List_node@PAVBulletInterface@BWAPI@@PAX@1@PAU21@0ABQAVBulletInterface@BWAPI@@@Z 10027970 f i InformationManager.obj
 0001:00026970       ??$_Buynode@ABQAVUnitInterface@BWAPI@@@?$_List_buy@PAVUnitInterface@BWAPI@@V?$allocator@PAVUnitInterface@BWAPI@@@std@@@std@@QAEPAU?$_List_node@PAVUnitInterface@BWAPI@@PAX@1@PAU21@0ABQAVUnitInterface@BWAPI@@@Z 10027970 f i Base.obj
 0001:00026990       ??$_Global_new@V?$_Func_impl_no_alloc@V<lambda_cef79e0d1072eba124270f82643b14a2>@@_NPAVUnitInterface@BWAPI@@@std@@ABV<lambda_cef79e0d1072eba124270f82643b14a2>@@@std@@YAPAV?$_Func_impl_no_alloc@V<lambda_cef79e0d1072eba124270f82643b14a2>@@_NPAVUnitInterface@BWAPI@@@0@ABV<lambda_cef79e0d1072eba124270f82643b14a2>@@@Z 10027990 f i Base.obj
 0001:00026990       ??$_Global_new@V?$_Func_impl_no_alloc@V<lambda_cef79e0d1072eba124270f82643b14a2>@@_NPAVUnitInterface@BWAPI@@@std@@V<lambda_cef79e0d1072eba124270f82643b14a2>@@@std@@YAPAV?$_Func_impl_no_alloc@V<lambda_cef79e0d1072eba124270f82643b14a2>@@_NPAVUnitInterface@BWAPI@@@0@$$QAV<lambda_cef79e0d1072eba124270f82643b14a2>@@@Z 10027990 f i Base.obj
 0001:00026a30       ?compareBases@@YA_NPBVBase@UAlbertaBot@@0@Z 10027a30 f   Bases.obj
 0001:00026a60       ?checkIslandStart@Bases@UAlbertaBot@@ABE_NXZ 10027a60 f   Bases.obj
 0001:00026c30       ?findBasePosition@Bases@UAlbertaBot@@AAE?AV?$Point@H$0CA@@BWAPI@@VUnitset@4@@Z 10027c30 f   Bases.obj
 0001:00027190       ?inferEnemyBaseFromOverlord@Bases@UAlbertaBot@@AAE_NXZ 10028190 f   Bases.obj
 0001:000273a0       ?updateEnemyStart@Bases@UAlbertaBot@@AAEXXZ 100283a0 f   Bases.obj
 0001:00027570       ?updateBaseOwners@Bases@UAlbertaBot@@AAEXXZ 10028570 f   Bases.obj
 0001:00027820       ?updateMainBase@Bases@UAlbertaBot@@AAEXXZ 10028820 f   Bases.obj
 0001:000279e0       ?initialize@Bases@UAlbertaBot@@QAEXXZ 100289e0 f   Bases.obj
 0001:00028570       ?checkBuildingPosition@Bases@UAlbertaBot@@QAEXABV?$Point@H$0CA@@BWAPI@@0@Z 10029570 f   Bases.obj
 0001:00028780       ?drawBaseInfo@Bases@UAlbertaBot@@QBEXXZ 10029780 f   Bases.obj
 0001:00028920       ?myFront@Bases@UAlbertaBot@@QBEPAVBase@2@XZ 10029920 f   Bases.obj
 0001:00028b70       ?frontTile@Bases@UAlbertaBot@@QBE?AV?$Point@H$0CA@@BWAPI@@XZ 10029b70 f   Bases.obj
 0001:00028bb0       ?connectedToStart@Bases@UAlbertaBot@@QBE_NABV?$Point@H$0CA@@BWAPI@@@Z 10029bb0 f   Bases.obj
 0001:00028c70       ?baseCount@Bases@UAlbertaBot@@QBEHPAVPlayerInterface@BWAPI@@@Z 10029c70 f   Bases.obj
 0001:00028cc0       ?completedBaseCount@Bases@UAlbertaBot@@QBEHPAVPlayerInterface@BWAPI@@@Z 10029cc0 f   Bases.obj
 0001:00028d20       ?mineralPatchCount@Bases@UAlbertaBot@@QBEHXZ 10029d20 f   Bases.obj
 0001:00028e10       ?clearNeutral@Bases@UAlbertaBot@@QAEXPAVUnitInterface@BWAPI@@@Z 10029e10 f   Bases.obj
 0001:00028ec0       ?Instance@Bases@UAlbertaBot@@SAAAV12@XZ 10029ec0 f   Bases.obj
 0001:00029050       ??1Bases@UAlbertaBot@@QAE@XZ 1002a050 f i Bases.obj
 0001:000292b0       ?getApproxDistance@?$Point@H$00@BWAPI@@QBEHABV12@@Z 1002a2b0 f i Bases.obj
 0001:00029310       ?_Destroy@?$vector@VUnitset@BWAPI@@V?$allocator@VUnitset@BWAPI@@@std@@@std@@AAEXPAVUnitset@BWAPI@@0@Z 1002a310 f i Bases.obj
 0001:00029340       ?deallocate@?$allocator@VUnitset@BWAPI@@@std@@QAEXQAVUnitset@BWAPI@@I@Z 1002a340 f i Bases.obj
 0001:00029380       ?erase@?$_Tree@V?$_Tmap_traits@PAVUnitInterface@BWAPI@@PAVBase@UAlbertaBot@@U?$less@PAVUnitInterface@BWAPI@@@std@@V?$allocator@U?$pair@QAVUnitInterface@BWAPI@@PAVBase@UAlbertaBot@@@std@@@6@$0A@@std@@@std@@QAE?AV?$_Tree_iterator@V?$_Tree_val@U?$_Tree_simple_types@U?$pair@QAVUnitInterface@BWAPI@@PAVBase@UAlbertaBot@@@std@@@std@@@std@@@2@V?$_Tree_const_iterator@V?$_Tree_val@U?$_Tree_simple_types@U?$pair@QAVUnitInterface@BWAPI@@PAVBase@UAlbertaBot@@@std@@@std@@@std@@@2@@Z 1002a380 f i Bases.obj
 0001:000293f0       ?_Extract@?$_Tree_val@U?$_Tree_simple_types@U?$pair@QAVUnitInterface@BWAPI@@PAVBase@UAlbertaBot@@@std@@@std@@@std@@QAEPAU?$_Tree_node@U?$pair@QAVUnitInterface@BWAPI@@PAVBase@UAlbertaBot@@@std@@PAX@2@V?$_Tree_const_iterator@V?$_Tree_val@U?$_Tree_simple_types@U?$pair@QAVUnitInterface@BWAPI@@PAVBase@UAlbertaBot@@@std@@@std@@@std@@@2@@Z 1002a3f0 f i Bases.obj
 0001:00029690       ?_Buyheadnode@?$_Tree_comp_alloc@V?$_Tmap_traits@W4GameTech@UAlbertaBot@@HU?$less@W4GameTech@UAlbertaBot@@@std@@V?$allocator@U?$pair@$$CBW4GameTech@UAlbertaBot@@H@std@@@4@$0A@@std@@@std@@QAEPAU?$_Tree_node@U?$pair@$$CBW4GameTech@UAlbertaBot@@H@std@@PAX@2@XZ 1002a690 f i GameRecordNow.obj
 0001:00029690       ?_Buyheadnode@?$_Tree_comp_alloc@V?$_Tmap_traits@VUpgradeType@BWAPI@@HU?$less@VUpgradeType@BWAPI@@@std@@V?$allocator@U?$pair@$$CBVUpgradeType@BWAPI@@H@std@@@4@$0A@@std@@@std@@QAEPAU?$_Tree_node@U?$pair@$$CBVUpgradeType@BWAPI@@H@std@@PAX@2@XZ 1002a690 f i OpeningTimingRecord.obj
 0001:00029690       ?_Buyheadnode@?$_Tree_comp_alloc@V?$_Tmap_traits@PAVUnitInterface@BWAPI@@_NU?$less@PAVUnitInterface@BWAPI@@@std@@V?$allocator@U?$pair@QAVUnitInterface@BWAPI@@_N@std@@@4@$0A@@std@@@std@@QAEPAU?$_Tree_node@U?$pair@QAVUnitInterface@BWAPI@@_N@std@@PAX@2@XZ 1002a690 f i Squad.obj
 0001:00029690       ?_Buyheadnode@?$_Tree_comp_alloc@V?$_Tmap_traits@VTechType@BWAPI@@HU?$less@VTechType@BWAPI@@@std@@V?$allocator@U?$pair@$$CBVTechType@BWAPI@@H@std@@@4@$0A@@std@@@std@@QAEPAU?$_Tree_node@U?$pair@$$CBVTechType@BWAPI@@H@std@@PAX@2@XZ 1002a690 f i OpeningTimingRecord.obj
 0001:00029690       ?_Buyheadnode@?$_Tree_comp_alloc@V?$_Tmap_traits@PAVUnitInterface@BWAPI@@HU?$less@PAVUnitInterface@BWAPI@@@std@@V?$allocator@U?$pair@QAVUnitInterface@BWAPI@@H@std@@@4@$0A@@std@@@std@@QAEPAU?$_Tree_node@U?$pair@QAVUnitInterface@BWAPI@@H@std@@PAX@2@XZ 1002a690 f i WorkerData.obj
 0001:00029690       ?_Buyheadnode@?$_Tree_comp_alloc@V?$_Tmap_traits@VUnitType@BWAPI@@HU?$less@VUnitType@BWAPI@@@std@@V?$allocator@U?$pair@$$CBVUnitType@BWAPI@@H@std@@@4@$0A@@std@@@std@@QAEPAU?$_Tree_node@U?$pair@$$CBVUnitType@BWAPI@@H@std@@PAX@2@XZ 1002a690 f i BOSimulator.obj
 0001:00029690       ?_Buyheadnode@?$_Tree_comp_alloc@V?$_Tmap_traits@PAVUnitInterface@BWAPI@@PAV12@U?$less@PAVUnitInterface@BWAPI@@@std@@V?$allocator@U?$pair@QAVUnitInterface@BWAPI@@PAV12@@std@@@4@$0A@@std@@@std@@QAEPAU?$_Tree_node@U?$pair@QAVUnitInterface@BWAPI@@PAV12@@std@@PAX@2@XZ 1002a690 f i WorkerData.obj
 0001:00029690       ?_Buyheadnode@?$_Tree_comp_alloc@V?$_Tset_traits@V?$Point@H$0CA@@BWAPI@@U?$less@V?$Point@H$0CA@@BWAPI@@@std@@V?$allocator@V?$Point@H$0CA@@BWAPI@@@4@$0A@@std@@@std@@QAEPAU?$_Tree_node@V?$Point@H$0CA@@BWAPI@@PAX@2@XZ 1002a690 f i MicroOverlords.obj
 0001:00029690       ?_Buyheadnode@?$_Tree_comp_alloc@V?$_Tmap_traits@PAVUnitInterface@BWAPI@@PAVBase@UAlbertaBot@@U?$less@PAVUnitInterface@BWAPI@@@std@@V?$allocator@U?$pair@QAVUnitInterface@BWAPI@@PAVBase@UAlbertaBot@@@std@@@6@$0A@@std@@@std@@QAEPAU?$_Tree_node@U?$pair@QAVUnitInterface@BWAPI@@PAVBase@UAlbertaBot@@@std@@PAX@2@XZ 1002a690 f i Bases.obj
 0001:00029690       ?_Buyheadnode@?$_Tree_comp_alloc@V?$_Tmap_traits@PAVUnitInterface@BWAPI@@W4WorkerJob@WorkerData@UAlbertaBot@@U?$less@PAVUnitInterface@BWAPI@@@std@@V?$allocator@U?$pair@QAVUnitInterface@BWAPI@@W4WorkerJob@WorkerData@UAlbertaBot@@@std@@@7@$0A@@std@@@std@@QAEPAU?$_Tree_node@U?$pair@QAVUnitInterface@BWAPI@@W4WorkerJob@WorkerData@UAlbertaBot@@@std@@PAX@2@XZ 1002a690 f i WorkerData.obj
 0001:00029690       ?_Buyheadnode@?$_Tree_comp_alloc@V?$_Tmap_traits@W4LurkerTactic@UAlbertaBot@@HU?$less@W4LurkerTactic@UAlbertaBot@@@std@@V?$allocator@U?$pair@$$CBW4LurkerTactic@UAlbertaBot@@H@std@@@4@$0A@@std@@@std@@QAEPAU?$_Tree_node@U?$pair@$$CBW4LurkerTactic@UAlbertaBot@@H@std@@PAX@2@XZ 1002a690 f i SkillLurkers.obj
 0001:000296b0       ?_Rrotate@?$_Tree_val@U?$_Tree_simple_types@U?$pair@QAVUnitInterface@BWAPI@@PAVBase@UAlbertaBot@@@std@@@std@@@std@@QAEXPAU?$_Tree_node@U?$pair@QAVUnitInterface@BWAPI@@PAVBase@UAlbertaBot@@@std@@PAX@2@@Z 1002a6b0 f i Bases.obj
 0001:000296b0       ?_Rrotate@?$_Tree_val@U?$_Tree_simple_types@U?$pair@$$CBV?$basic_string@DU?$char_traits@D@std@@V?$allocator@D@2@@std@@V?$basic_json@Vmap@std@@Vvector@2@V?$basic_string@DU?$char_traits@D@std@@V?$allocator@D@2@@2@_N_J_KNVallocator@2@Uadl_serializer@json_abi_v3_11_3@nlohmann@@V?$vector@EV?$allocator@E@std@@@2@X@json_abi_v3_11_3@nlohmann@@@std@@@std@@@std@@QAEXPAU?$_Tree_node@U?$pair@$$CBV?$basic_string@DU?$char_traits@D@std@@V?$allocator@D@2@@std@@V?$basic_json@Vmap@std@@Vvector@2@V?$basic_string@DU?$char_traits@D@std@@V?$allocator@D@2@@2@_N_J_KNVallocator@2@Uadl_serializer@json_abi_v3_11_3@nlohmann@@V?$vector@EV?$allocator@E@std@@@2@X@json_abi_v3_11_3@nlohmann@@@std@@PAX@2@@Z 1002a6b0 f i db.obj
 0001:00029710       ?_Lrotate@?$_Tree_val@U?$_Tree_simple_types@U?$pair@$$CBV?$basic_string@DU?$char_traits@D@std@@V?$allocator@D@2@@std@@V?$basic_json@Vmap@std@@Vvector@2@V?$basic_string@DU?$char_traits@D@std@@V?$allocator@D@2@@2@_N_J_KNVallocator@2@Uadl_serializer@json_abi_v3_11_3@nlohmann@@V?$vector@EV?$allocator@E@std@@@2@X@json_abi_v3_11_3@nlohmann@@@std@@@std@@@std@@QAEXPAU?$_Tree_node@U?$pair@$$CBV?$basic_string@DU?$char_traits@D@std@@V?$allocator@D@2@@std@@V?$basic_json@Vmap@std@@Vvector@2@V?$basic_string@DU?$char_traits@D@std@@V?$allocator@D@2@@2@_N_J_KNVallocator@2@Uadl_serializer@json_abi_v3_11_3@nlohmann@@V?$vector@EV?$allocator@E@std@@@2@X@json_abi_v3_11_3@nlohmann@@@std@@PAX@2@@Z 1002a710 f i db.obj
 0001:00029710       ?_Lrotate@?$_Tree_val@U?$_Tree_simple_types@U?$pair@QAVUnitInterface@BWAPI@@PAVBase@UAlbertaBot@@@std@@@std@@@std@@QAEXPAU?$_Tree_node@U?$pair@QAVUnitInterface@BWAPI@@PAVBase@UAlbertaBot@@@std@@PAX@2@@Z 1002a710 f i Bases.obj
 0001:00029770       ??$_Emplace_reallocate@VPotentialBase@UAlbertaBot@@@?$vector@VPotentialBase@UAlbertaBot@@V?$allocator@VPotentialBase@UAlbertaBot@@@std@@@std@@QAEPAVPotentialBase@UAlbertaBot@@QAV23@$$QAV23@@Z 1002a770 f i Bases.obj
 0001:00029960       ??$_Emplace_reallocate@ABVUnitset@BWAPI@@@?$vector@VUnitset@BWAPI@@V?$allocator@VUnitset@BWAPI@@@std@@@std@@QAEPAVUnitset@BWAPI@@QAV23@ABV23@@Z 1002a960 f i Bases.obj
 0001:00029bf0       ??$_Emplace_reallocate@ABQAVGameRecord@UAlbertaBot@@@?$vector@PAVGameRecord@UAlbertaBot@@V?$allocator@PAVGameRecord@UAlbertaBot@@@std@@@std@@QAEPAPAVGameRecord@UAlbertaBot@@QAPAV23@ABQAV23@@Z 1002abf0 f i OpponentModel.obj
 0001:00029bf0       ??$_Emplace_reallocate@ABH@?$vector@HV?$allocator@H@std@@@std@@QAEPAHQAHABH@Z 1002abf0 f i NodeEval.obj
 0001:00029bf0       ??$_Emplace_reallocate@PAVZone@UAlbertaBot@@@?$vector@PAVZone@UAlbertaBot@@V?$allocator@PAVZone@UAlbertaBot@@@std@@@std@@QAEPAPAVZone@UAlbertaBot@@QAPAV23@$$QAPAV23@@Z 1002abf0 f i GridZone.obj
 0001:00029bf0       ??$_Emplace_reallocate@ABQAV?$basic_json@Vmap@std@@Vvector@2@V?$basic_string@DU?$char_traits@D@std@@V?$allocator@D@2@@2@_N_J_KNVallocator@2@Uadl_serializer@json_abi_v3_11_3@nlohmann@@V?$vector@EV?$allocator@E@std@@@2@X@json_abi_v3_11_3@nlohmann@@@?$vector@PAV?$basic_json@Vmap@std@@Vvector@2@V?$basic_string@DU?$char_traits@D@std@@V?$allocator@D@2@@2@_N_J_KNVallocator@2@Uadl_serializer@json_abi_v3_11_3@nlohmann@@V?$vector@EV?$allocator@E@std@@@2@X@json_abi_v3_11_3@nlohmann@@V?$allocator@PAV?$basic_json@Vmap@std@@Vvector@2@V?$basic_string@DU?$char_traits@D@std@@V?$allocator@D@2@@2@_N_J_KNVallocator@2@Uadl_serializer@json_abi_v3_11_3@nlohmann@@V?$vector@EV?$allocator@E@std@@@2@X@json_abi_v3_11_3@nlohmann@@@std@@@std@@QAEPAPAV?$basic_json@Vmap@std@@Vvector@2@V?$basic_string@DU?$char_traits@D@std@@V?$allocator@D@2@@2@_N_J_KNVallocator@2@Uadl_serializer@json_abi_v3_11_3@nlohmann@@V?$vector@EV?$allocator@E@std@@@2@X@json_abi_v3_11_3@nlohmann@@QAPAV234@ABQAV234@@Z 1002abf0 f i db.obj
 0001:00029bf0       ??$_Emplace_reallocate@ABQAVUnitInterface@BWAPI@@@?$vector@PAVUnitInterface@BWAPI@@V?$allocator@PAVUnitInterface@BWAPI@@@std@@@std@@QAEPAPAVUnitInterface@BWAPI@@QAPAV23@ABQAV23@@Z 1002abf0 f i CombatCommander.obj
 0001:00029bf0       ??$_Emplace_reallocate@ABQAUGameSnapshot@UAlbertaBot@@@?$vector@PAUGameSnapshot@UAlbertaBot@@V?$allocator@PAUGameSnapshot@UAlbertaBot@@@std@@@std@@QAEPAPAUGameSnapshot@UAlbertaBot@@QAPAU23@ABQAU23@@Z 1002abf0 f i GameRecord.obj
 0001:00029bf0       ??$_Emplace_reallocate@ABQAVBase@UAlbertaBot@@@?$vector@PAVBase@UAlbertaBot@@V?$allocator@PAVBase@UAlbertaBot@@@std@@@std@@QAEPAPAVBase@UAlbertaBot@@QAPAV23@ABQAV23@@Z 1002abf0 f i Bases.obj
 0001:00029bf0       ??$_Emplace_reallocate@PAV?$basic_json@Vmap@std@@Vvector@2@V?$basic_string@DU?$char_traits@D@std@@V?$allocator@D@2@@2@_N_J_KNVallocator@2@Uadl_serializer@json_abi_v3_11_3@nlohmann@@V?$vector@EV?$allocator@E@std@@@2@X@json_abi_v3_11_3@nlohmann@@@?$vector@PAV?$basic_json@Vmap@std@@Vvector@2@V?$basic_string@DU?$char_traits@D@std@@V?$allocator@D@2@@2@_N_J_KNVallocator@2@Uadl_serializer@json_abi_v3_11_3@nlohmann@@V?$vector@EV?$allocator@E@std@@@2@X@json_abi_v3_11_3@nlohmann@@V?$allocator@PAV?$basic_json@Vmap@std@@Vvector@2@V?$basic_string@DU?$char_traits@D@std@@V?$allocator@D@2@@2@_N_J_KNVallocator@2@Uadl_serializer@json_abi_v3_11_3@nlohmann@@V?$vector@EV?$allocator@E@std@@@2@X@json_abi_v3_11_3@nlohmann@@@std@@@std@@QAEPAPAV?$basic_json@Vmap@std@@Vvector@2@V?$basic_string@DU?$char_traits@D@std@@V?$allocator@D@2@@2@_N_J_KNVallocator@2@Uadl_serializer@json_abi_v3_11_3@nlohmann@@V?$vector@EV?$allocator@E@std@@@2@X@json_abi_v3_11_3@nlohmann@@QAPAV234@$$QAPAV234@@Z 1002abf0 f i db.obj
 0001:00029bf0       ??$_Emplace_reallocate@ABQAVSkill@UAlbertaBot@@@?$vector@PAVSkill@UAlbertaBot@@V?$allocator@PAVSkill@UAlbertaBot@@@std@@@std@@QAEPAPAVSkill@UAlbertaBot@@QAPAV23@ABQAV23@@Z 1002abf0 f i SkillKit.obj
 0001:00029d70       ?_Umove@?$vector@VUnitset@BWAPI@@V?$allocator@VUnitset@BWAPI@@@std@@@std@@AAEPAVUnitset@BWAPI@@PAV34@00@Z 1002ad70 f i Bases.obj
 0001:00029e20       ?_Copy@?$_Hash@V?$_Uset_traits@PAVUnitInterface@BWAPI@@V?$_Uhash_compare@PAVUnitInterface@BWAPI@@U?$hash@PAX@std@@U?$equal_to@PAVUnitInterface@BWAPI@@@4@@std@@V?$allocator@PAVUnitInterface@BWAPI@@@4@$0A@@std@@@std@@IAEXABV12@@Z 1002ae20 f i Bases.obj
 0001:00029ef0       ??$_Sort_unchecked@PAPAVBase@UAlbertaBot@@P6A_NPBV12@0@Z@std@@YAXPAPAVBase@UAlbertaBot@@0HP6A_NPBV12@1@Z@Z 1002aef0 f i Bases.obj
 0001:0002a100       ??$insert@V?$_List_const_iterator@V?$_List_val@U?$_List_simple_types@PAVUnitInterface@BWAPI@@@std@@@std@@@std@@@?$_Hash@V?$_Uset_traits@PAVUnitInterface@BWAPI@@V?$_Uhash_compare@PAVUnitInterface@BWAPI@@U?$hash@PAX@std@@U?$equal_to@PAVUnitInterface@BWAPI@@@4@@std@@V?$allocator@PAVUnitInterface@BWAPI@@@4@$0A@@std@@@std@@QAEXV?$_List_const_iterator@V?$_List_val@U?$_List_simple_types@PAVUnitInterface@BWAPI@@@std@@@std@@@1@0@Z 1002b100 f i Bases.obj
 0001:0002a190       ??$_Partition_by_median_guess_unchecked@PAPAVBase@UAlbertaBot@@P6A_NPBV12@0@Z@std@@YA?AU?$pair@PAPAVBase@UAlbertaBot@@PAPAV12@@0@PAPAVBase@UAlbertaBot@@0P6A_NPBV23@1@Z@Z 1002b190 f i Bases.obj
 0001:0002a360       ??$_Ptr_copy_cat@GG@std@@YA?AU_Really_trivial_ptr_iterator_tag@0@ABQAG0@Z 1002b360 f i MapPartitions.obj
 0001:0002a360       ??$_Ptr_move_cat@PAVBase@UAlbertaBot@@PAV12@@std@@YA?AU_Really_trivial_ptr_iterator_tag@0@ABQAPAVBase@UAlbertaBot@@0@Z 1002b360 f i Bases.obj
 0001:0002a360       ??$_Ptr_move_cat@PAV?$basic_json@Vmap@std@@Vvector@2@V?$basic_string@DU?$char_traits@D@std@@V?$allocator@D@2@@2@_N_J_KNVallocator@2@Uadl_serializer@json_abi_v3_11_3@nlohmann@@V?$vector@EV?$allocator@E@std@@@2@X@json_abi_v3_11_3@nlohmann@@PAV123@@std@@YA?AU_Really_trivial_ptr_iterator_tag@0@ABQAPAV?$basic_json@Vmap@std@@Vvector@2@V?$basic_string@DU?$char_traits@D@std@@V?$allocator@D@2@@2@_N_J_KNVallocator@2@Uadl_serializer@json_abi_v3_11_3@nlohmann@@V?$vector@EV?$allocator@E@std@@@2@X@json_abi_v3_11_3@nlohmann@@0@Z 1002b360 f i db.obj
 0001:0002a360       ??$_Ptr_move_cat@HH@std@@YA?AU_Really_trivial_ptr_iterator_tag@0@ABQAH0@Z 1002b360 f i NodeEval.obj
 0001:0002a360       ??$_Ptr_copy_cat@HH@std@@YA?AU_Really_trivial_ptr_iterator_tag@0@ABQAH0@Z 1002b360 f i GameRecord.obj
 0001:0002a360       ??$_Ptr_move_cat@PAVZone@UAlbertaBot@@PAV12@@std@@YA?AU_Really_trivial_ptr_iterator_tag@0@ABQAPAVZone@UAlbertaBot@@0@Z 1002b360 f i GridZone.obj
 0001:0002a360       ??$_Ptr_move_cat@PAUGameSnapshot@UAlbertaBot@@PAU12@@std@@YA?AU_Really_trivial_ptr_iterator_tag@0@ABQAPAUGameSnapshot@UAlbertaBot@@0@Z 1002b360 f i GameRecord.obj
 0001:0002a360       ??$_Ptr_move_cat@VBuilding@UAlbertaBot@@V12@@std@@YA?AU_Trivially_copyable_ptr_iterator_tag@0@ABQAVBuilding@UAlbertaBot@@0@Z 1002b360 f i BuildingManager.obj
 0001:0002a360       ??$_Ptr_move_cat@PAVUnitInterface@BWAPI@@PAV12@@std@@YA?AU_Really_trivial_ptr_iterator_tag@0@ABQAPAVUnitInterface@BWAPI@@0@Z 1002b360 f i CombatCommander.obj
 0001:0002a360       ??$_Ptr_copy_cat@FF@std@@YA?AU_Really_trivial_ptr_iterator_tag@0@ABQAF0@Z 1002b360 f i Grid.obj
 0001:0002a360       ??$_Ptr_move_cat@PAVGameRecord@UAlbertaBot@@PAV12@@std@@YA?AU_Really_trivial_ptr_iterator_tag@0@ABQAPAVGameRecord@UAlbertaBot@@0@Z 1002b360 f i OpponentModel.obj
 0001:0002a360       ??$_Ptr_move_cat@II@std@@YA?AU_Really_trivial_ptr_iterator_tag@0@ABQAI0@Z 1002b360 f i BuildingPlacer.obj
 0001:0002a360       ??$_Ptr_copy_cat@UConnection@@U1@@std@@YA?AU_Really_trivial_ptr_iterator_tag@0@ABQAUConnection@@0@Z 1002b360 f i NodeEval.obj
 0001:0002a360       ??$_Ptr_copy_cat@$$CBHH@std@@YA?AU_Really_trivial_ptr_iterator_tag@0@ABQBHABQAH@Z 1002b360 f i SkillBattles.obj
 0001:0002a360       ??$_Ptr_move_cat@NN@std@@YA?AU_Really_trivial_ptr_iterator_tag@0@ABQAN0@Z 1002b360 f i NEATCommander.obj
 0001:0002a360       ??$_Ptr_move_cat@V?$array@H$01@std@@V12@@std@@YA?AU_Really_trivial_ptr_iterator_tag@0@ABQAV?$array@H$01@0@0@Z 1002b360 f i NEATCommander.obj
 0001:0002a360       ??$_Ptr_move_cat@UConnection@@U1@@std@@YA?AU_Really_trivial_ptr_iterator_tag@0@ABQAUConnection@@0@Z 1002b360 f i NodeEval.obj
 0001:0002a360       ??$_Ptr_move_cat@DD@std@@YA?AU_Really_trivial_ptr_iterator_tag@0@ABQAD0@Z 1002b360 f i db.obj
 0001:0002a360       ??$_Ptr_copy_cat@EE@std@@YA?AU_Really_trivial_ptr_iterator_tag@0@ABQAE0@Z 1002b360 f i db.obj
 0001:0002a360       ??$_Ptr_copy_cat@II@std@@YA?AU_Really_trivial_ptr_iterator_tag@0@ABQAI0@Z 1002b360 f i BOSSManager.obj
 0001:0002a360       ??$_Ptr_copy_cat@PAUBuildOrderItem@UAlbertaBot@@PAU12@@std@@YA?AU_Really_trivial_ptr_iterator_tag@0@ABQAPAUBuildOrderItem@UAlbertaBot@@0@Z 1002b360 f i BuildOrderQueue.obj
 0001:0002a360       ??$_Ptr_move_cat@PAVSkill@UAlbertaBot@@PAV12@@std@@YA?AU_Really_trivial_ptr_iterator_tag@0@ABQAPAVSkill@UAlbertaBot@@0@Z 1002b360 f i SkillKit.obj
 0001:0002a360       ??$_Ptr_copy_cat@NN@std@@YA?AU_Really_trivial_ptr_iterator_tag@0@ABQAN0@Z 1002b360 f i NodeEval.obj
 0001:0002a370       ??1?$_Uninitialized_backout_al@PAVUnitset@BWAPI@@V?$allocator@VUnitset@BWAPI@@@std@@@std@@QAE@XZ 1002b370 f i Bases.obj
 0001:0002a3a0       ??$_Guess_median_unchecked@PAPAVBase@UAlbertaBot@@P6A_NPBV12@0@Z@std@@YAXPAPAVBase@UAlbertaBot@@00P6A_NPBV12@1@Z@Z 1002b3a0 f i Bases.obj
 0001:0002a570       ??$_Pop_heap_hole_by_index@PAPAVBase@UAlbertaBot@@PAV12@P6A_NPBV12@0@Z@std@@YAXPAPAVBase@UAlbertaBot@@HH$$QAPAV12@P6A_NPBV12@2@Z@Z 1002b570 f i Bases.obj
 0001:0002a620       ??$_Buynode@ABUpiecewise_construct_t@std@@V?$tuple@$$QAVUnitType@BWAPI@@@2@V?$tuple@$$V@2@@?$_Tree_comp_alloc@V?$_Tmap_traits@VUnitType@BWAPI@@HU?$less@VUnitType@BWAPI@@@std@@V?$allocator@U?$pair@$$CBVUnitType@BWAPI@@H@std@@@4@$0A@@std@@@std@@QAEPAU?$_Tree_node@U?$pair@$$CBVUnitType@BWAPI@@H@std@@PAX@1@ABUpiecewise_construct_t@1@$$QAV?$tuple@$$QAVUnitType@BWAPI@@@1@$$QAV?$tuple@$$V@1@@Z 1002b620 f i CombatSimulation.obj
 0001:0002a620       ??$_Buynode@ABUpiecewise_construct_t@std@@V?$tuple@ABVTechType@BWAPI@@@2@V?$tuple@$$V@2@@?$_Tree_comp_alloc@V?$_Tmap_traits@VTechType@BWAPI@@HU?$less@VTechType@BWAPI@@@std@@V?$allocator@U?$pair@$$CBVTechType@BWAPI@@H@std@@@4@$0A@@std@@@std@@QAEPAU?$_Tree_node@U?$pair@$$CBVTechType@BWAPI@@H@std@@PAX@1@ABUpiecewise_construct_t@1@$$QAV?$tuple@ABVTechType@BWAPI@@@1@$$QAV?$tuple@$$V@1@@Z 1002b620 f i SkillOpeningTiming.obj
 0001:0002a620       ??$_Buynode@ABUpiecewise_construct_t@std@@V?$tuple@ABVUpgradeType@BWAPI@@@2@V?$tuple@$$V@2@@?$_Tree_comp_alloc@V?$_Tmap_traits@VUpgradeType@BWAPI@@HU?$less@VUpgradeType@BWAPI@@@std@@V?$allocator@U?$pair@$$CBVUpgradeType@BWAPI@@H@std@@@4@$0A@@std@@@std@@QAEPAU?$_Tree_node@U?$pair@$$CBVUpgradeType@BWAPI@@H@std@@PAX@1@ABUpiecewise_construct_t@1@$$QAV?$tuple@ABVUpgradeType@BWAPI@@@1@$$QAV?$tuple@$$V@1@@Z 1002b620 f i SkillOpeningTiming.obj
 0001:0002a620       ??$_Buynode@ABUpiecewise_construct_t@std@@V?$tuple@$$QAVTechType@BWAPI@@@2@V?$tuple@$$V@2@@?$_Tree_comp_alloc@V?$_Tmap_traits@VTechType@BWAPI@@HU?$less@VTechType@BWAPI@@@std@@V?$allocator@U?$pair@$$CBVTechType@BWAPI@@H@std@@@4@$0A@@std@@@std@@QAEPAU?$_Tree_node@U?$pair@$$CBVTechType@BWAPI@@H@std@@PAX@1@ABUpiecewise_construct_t@1@$$QAV?$tuple@$$QAVTechType@BWAPI@@@1@$$QAV?$tuple@$$V@1@@Z 1002b620 f i SkillOpeningTiming.obj
 0001:0002a620       ??$_Buynode@ABUpiecewise_construct_t@std@@V?$tuple@ABQAVUnitInterface@BWAPI@@@2@V?$tuple@$$V@2@@?$_Tree_comp_alloc@V?$_Tmap_traits@PAVUnitInterface@BWAPI@@W4WorkerJob@WorkerData@UAlbertaBot@@U?$less@PAVUnitInterface@BWAPI@@@std@@V?$allocator@U?$pair@QAVUnitInterface@BWAPI@@W4WorkerJob@WorkerData@UAlbertaBot@@@std@@@7@$0A@@std@@@std@@QAEPAU?$_Tree_node@U?$pair@QAVUnitInterface@BWAPI@@W4WorkerJob@WorkerData@UAlbertaBot@@@std@@PAX@1@ABUpiecewise_construct_t@1@$$QAV?$tuple@ABQAVUnitInterface@BWAPI@@@1@$$QAV?$tuple@$$V@1@@Z 1002b620 f i WorkerData.obj
 0001:0002a620       ??$_Buynode@ABUpiecewise_construct_t@std@@V?$tuple@ABQAVUnitInterface@BWAPI@@@2@V?$tuple@$$V@2@@?$_Tree_comp_alloc@V?$_Tmap_traits@PAVUnitInterface@BWAPI@@PAV12@U?$less@PAVUnitInterface@BWAPI@@@std@@V?$allocator@U?$pair@QAVUnitInterface@BWAPI@@PAV12@@std@@@4@$0A@@std@@@std@@QAEPAU?$_Tree_node@U?$pair@QAVUnitInterface@BWAPI@@PAV12@@std@@PAX@1@ABUpiecewise_construct_t@1@$$QAV?$tuple@ABQAVUnitInterface@BWAPI@@@1@$$QAV?$tuple@$$V@1@@Z 1002b620 f i WorkerData.obj
 0001:0002a620       ??$_Buynode@ABUpiecewise_construct_t@std@@V?$tuple@ABQAVUnitInterface@BWAPI@@@2@V?$tuple@$$V@2@@?$_Tree_comp_alloc@V?$_Tmap_traits@PAVUnitInterface@BWAPI@@HU?$less@PAVUnitInterface@BWAPI@@@std@@V?$allocator@U?$pair@QAVUnitInterface@BWAPI@@H@std@@@4@$0A@@std@@@std@@QAEPAU?$_Tree_node@U?$pair@QAVUnitInterface@BWAPI@@H@std@@PAX@1@ABUpiecewise_construct_t@1@$$QAV?$tuple@ABQAVUnitInterface@BWAPI@@@1@$$QAV?$tuple@$$V@1@@Z 1002b620 f i WorkerData.obj
 0001:0002a620       ??$_Buynode@ABUpiecewise_construct_t@std@@V?$tuple@ABVUnitType@BWAPI@@@2@V?$tuple@$$V@2@@?$_Tree_comp_alloc@V?$_Tmap_traits@VUnitType@BWAPI@@HU?$less@VUnitType@BWAPI@@@std@@V?$allocator@U?$pair@$$CBVUnitType@BWAPI@@H@std@@@4@$0A@@std@@@std@@QAEPAU?$_Tree_node@U?$pair@$$CBVUnitType@BWAPI@@H@std@@PAX@1@ABUpiecewise_construct_t@1@$$QAV?$tuple@ABVUnitType@BWAPI@@@1@$$QAV?$tuple@$$V@1@@Z 1002b620 f i BOSimulator.obj
 0001:0002a620       ??$_Buynode@ABUpiecewise_construct_t@std@@V?$tuple@$$QAVUpgradeType@BWAPI@@@2@V?$tuple@$$V@2@@?$_Tree_comp_alloc@V?$_Tmap_traits@VUpgradeType@BWAPI@@HU?$less@VUpgradeType@BWAPI@@@std@@V?$allocator@U?$pair@$$CBVUpgradeType@BWAPI@@H@std@@@4@$0A@@std@@@std@@QAEPAU?$_Tree_node@U?$pair@$$CBVUpgradeType@BWAPI@@H@std@@PAX@1@ABUpiecewise_construct_t@1@$$QAV?$tuple@$$QAVUpgradeType@BWAPI@@@1@$$QAV?$tuple@$$V@1@@Z 1002b620 f i SkillOpeningTiming.obj
 0001:0002a620       ??$_Buynode@ABUpiecewise_construct_t@std@@V?$tuple@ABQAVUnitInterface@BWAPI@@@2@V?$tuple@$$V@2@@?$_Tree_comp_alloc@V?$_Tmap_traits@PAVUnitInterface@BWAPI@@PAVBase@UAlbertaBot@@U?$less@PAVUnitInterface@BWAPI@@@std@@V?$allocator@U?$pair@QAVUnitInterface@BWAPI@@PAVBase@UAlbertaBot@@@std@@@6@$0A@@std@@@std@@QAEPAU?$_Tree_node@U?$pair@QAVUnitInterface@BWAPI@@PAVBase@UAlbertaBot@@@std@@PAX@1@ABUpiecewise_construct_t@1@$$QAV?$tuple@ABQAVUnitInterface@BWAPI@@@1@$$QAV?$tuple@$$V@1@@Z 1002b620 f i Bases.obj
 0001:0002a650       ??$_Insert_hint@AAU?$pair@QAVUnitInterface@BWAPI@@PAVBase@UAlbertaBot@@@std@@PAU?$_Tree_node@U?$pair@QAVUnitInterface@BWAPI@@PAVBase@UAlbertaBot@@@std@@PAX@2@@?$_Tree@V?$_Tmap_traits@PAVUnitInterface@BWAPI@@PAVBase@UAlbertaBot@@U?$less@PAVUnitInterface@BWAPI@@@std@@V?$allocator@U?$pair@QAVUnitInterface@BWAPI@@PAVBase@UAlbertaBot@@@std@@@6@$0A@@std@@@std@@IAE?AV?$_Tree_iterator@V?$_Tree_val@U?$_Tree_simple_types@U?$pair@QAVUnitInterface@BWAPI@@PAVBase@UAlbertaBot@@@std@@@std@@@std@@@1@V?$_Tree_const_iterator@V?$_Tree_val@U?$_Tree_simple_types@U?$pair@QAVUnitInterface@BWAPI@@PAVBase@UAlbertaBot@@@std@@@std@@@std@@@1@AAU?$pair@QAVUnitInterface@BWAPI@@PAVBase@UAlbertaBot@@@1@PAU?$_Tree_node@U?$pair@QAVUnitInterface@BWAPI@@PAVBase@UAlbertaBot@@@std@@PAX@1@@Z 1002b650 f i Bases.obj
 0001:0002a8e0       ?_Buynode0@?$_Tree_comp_alloc@V?$_Tmap_traits@VUpgradeType@BWAPI@@HU?$less@VUpgradeType@BWAPI@@@std@@V?$allocator@U?$pair@$$CBVUpgradeType@BWAPI@@H@std@@@4@$0A@@std@@@std@@QAEPAU?$_Tree_node@U?$pair@$$CBVUpgradeType@BWAPI@@H@std@@PAX@2@XZ 1002b8e0 f i SkillOpeningTiming.obj
 0001:0002a8e0       ?_Buynode0@?$_Tree_comp_alloc@V?$_Tmap_traits@PAVUnitInterface@BWAPI@@W4WorkerJob@WorkerData@UAlbertaBot@@U?$less@PAVUnitInterface@BWAPI@@@std@@V?$allocator@U?$pair@QAVUnitInterface@BWAPI@@W4WorkerJob@WorkerData@UAlbertaBot@@@std@@@7@$0A@@std@@@std@@QAEPAU?$_Tree_node@U?$pair@QAVUnitInterface@BWAPI@@W4WorkerJob@WorkerData@UAlbertaBot@@@std@@PAX@2@XZ 1002b8e0 f i WorkerData.obj
 0001:0002a8e0       ?_Buynode0@?$_Tree_comp_alloc@V?$_Tset_traits@V?$Point@H$0CA@@BWAPI@@U?$less@V?$Point@H$0CA@@BWAPI@@@std@@V?$allocator@V?$Point@H$0CA@@BWAPI@@@4@$0A@@std@@@std@@QAEPAU?$_Tree_node@V?$Point@H$0CA@@BWAPI@@PAX@2@XZ 1002b8e0 f i MicroOverlords.obj
 0001:0002a8e0       ?_Buynode0@?$_Tree_comp_alloc@V?$_Tmap_traits@VUnitType@BWAPI@@HU?$less@VUnitType@BWAPI@@@std@@V?$allocator@U?$pair@$$CBVUnitType@BWAPI@@H@std@@@4@$0A@@std@@@std@@QAEPAU?$_Tree_node@U?$pair@$$CBVUnitType@BWAPI@@H@std@@PAX@2@XZ 1002b8e0 f i BOSimulator.obj
 0001:0002a8e0       ?_Buynode0@?$_Tree_comp_alloc@V?$_Tmap_traits@VTechType@BWAPI@@HU?$less@VTechType@BWAPI@@@std@@V?$allocator@U?$pair@$$CBVTechType@BWAPI@@H@std@@@4@$0A@@std@@@std@@QAEPAU?$_Tree_node@U?$pair@$$CBVTechType@BWAPI@@H@std@@PAX@2@XZ 1002b8e0 f i SkillOpeningTiming.obj
 0001:0002a8e0       ?_Buynode0@?$_Tree_comp_alloc@V?$_Tmap_traits@PAVUnitInterface@BWAPI@@PAVBase@UAlbertaBot@@U?$less@PAVUnitInterface@BWAPI@@@std@@V?$allocator@U?$pair@QAVUnitInterface@BWAPI@@PAVBase@UAlbertaBot@@@std@@@6@$0A@@std@@@std@@QAEPAU?$_Tree_node@U?$pair@QAVUnitInterface@BWAPI@@PAVBase@UAlbertaBot@@@std@@PAX@2@XZ 1002b8e0 f i Bases.obj
 0001:0002a8e0       ?_Buynode0@?$_Tree_comp_alloc@V?$_Tmap_traits@PAVUnitInterface@BWAPI@@HU?$less@PAVUnitInterface@BWAPI@@@std@@V?$allocator@U?$pair@QAVUnitInterface@BWAPI@@H@std@@@4@$0A@@std@@@std@@QAEPAU?$_Tree_node@U?$pair@QAVUnitInterface@BWAPI@@H@std@@PAX@2@XZ 1002b8e0 f i WorkerData.obj
 0001:0002a8e0       ?_Buynode0@?$_Tree_comp_alloc@V?$_Tmap_traits@PAVUnitInterface@BWAPI@@PAV12@U?$less@PAVUnitInterface@BWAPI@@@std@@V?$allocator@U?$pair@QAVUnitInterface@BWAPI@@PAV12@@std@@@4@$0A@@std@@@std@@QAEPAU?$_Tree_node@U?$pair@QAVUnitInterface@BWAPI@@PAV12@@std@@PAX@2@XZ 1002b8e0 f i WorkerData.obj
 0001:0002a8e0       ?_Buynode0@?$_Tree_comp_alloc@V?$_Tmap_traits@PAVUnitInterface@BWAPI@@_NU?$less@PAVUnitInterface@BWAPI@@@std@@V?$allocator@U?$pair@QAVUnitInterface@BWAPI@@_N@std@@@4@$0A@@std@@@std@@QAEPAU?$_Tree_node@U?$pair@QAVUnitInterface@BWAPI@@_N@std@@PAX@2@XZ 1002b8e0 f i Squad.obj
 0001:0002a900       ?_Destroy_if_node@?$_Tree@V?$_Tmap_traits@PAVUnitInterface@BWAPI@@HU?$less@PAVUnitInterface@BWAPI@@@std@@V?$allocator@U?$pair@QAVUnitInterface@BWAPI@@H@std@@@4@$0A@@std@@@std@@IAEXPAU?$_Tree_node@U?$pair@QAVUnitInterface@BWAPI@@H@std@@PAX@2@@Z 1002b900 f i WorkerData.obj
 0001:0002a900       ?_Destroy_if_node@?$_Tree@V?$_Tmap_traits@PAVUnitInterface@BWAPI@@PAVBase@UAlbertaBot@@U?$less@PAVUnitInterface@BWAPI@@@std@@V?$allocator@U?$pair@QAVUnitInterface@BWAPI@@PAVBase@UAlbertaBot@@@std@@@6@$0A@@std@@@std@@IAEXPAU?$_Tree_node@U?$pair@QAVUnitInterface@BWAPI@@PAVBase@UAlbertaBot@@@std@@PAX@2@@Z 1002b900 f i Bases.obj
 0001:0002a900       ?_Destroy_if_node@?$_Tree@V?$_Tmap_traits@VUnitType@BWAPI@@HU?$less@VUnitType@BWAPI@@@std@@V?$allocator@U?$pair@$$CBVUnitType@BWAPI@@H@std@@@4@$0A@@std@@@std@@IAEXPAU?$_Tree_node@U?$pair@$$CBVUnitType@BWAPI@@H@std@@PAX@2@@Z 1002b900 f i BOSimulator.obj
 0001:0002a900       ?_Destroy_if_node@?$_Tree@V?$_Tmap_traits@PAVUnitInterface@BWAPI@@W4WorkerJob@WorkerData@UAlbertaBot@@U?$less@PAVUnitInterface@BWAPI@@@std@@V?$allocator@U?$pair@QAVUnitInterface@BWAPI@@W4WorkerJob@WorkerData@UAlbertaBot@@@std@@@7@$0A@@std@@@std@@IAEXPAU?$_Tree_node@U?$pair@QAVUnitInterface@BWAPI@@W4WorkerJob@WorkerData@UAlbertaBot@@@std@@PAX@2@@Z 1002b900 f i WorkerData.obj
 0001:0002a900       ?_Destroy_if_node@?$_Tree@V?$_Tmap_traits@PAVUnitInterface@BWAPI@@PAV12@U?$less@PAVUnitInterface@BWAPI@@@std@@V?$allocator@U?$pair@QAVUnitInterface@BWAPI@@PAV12@@std@@@4@$0A@@std@@@std@@IAEXPAU?$_Tree_node@U?$pair@QAVUnitInterface@BWAPI@@PAV12@@std@@PAX@2@@Z 1002b900 f i WorkerData.obj
 0001:0002a900       ?_Destroy_if_node@?$_Tree@V?$_Tmap_traits@VTechType@BWAPI@@HU?$less@VTechType@BWAPI@@@std@@V?$allocator@U?$pair@$$CBVTechType@BWAPI@@H@std@@@4@$0A@@std@@@std@@IAEXPAU?$_Tree_node@U?$pair@$$CBVTechType@BWAPI@@H@std@@PAX@2@@Z 1002b900 f i SkillOpeningTiming.obj
 0001:0002a900       ?_Destroy_if_node@?$_Tree@V?$_Tmap_traits@VUpgradeType@BWAPI@@HU?$less@VUpgradeType@BWAPI@@@std@@V?$allocator@U?$pair@$$CBVUpgradeType@BWAPI@@H@std@@@4@$0A@@std@@@std@@IAEXPAU?$_Tree_node@U?$pair@$$CBVUpgradeType@BWAPI@@H@std@@PAX@2@@Z 1002b900 f i SkillOpeningTiming.obj
 0001:0002a900       ?_Destroy_if_node@?$_Tree@V?$_Tmap_traits@PAVUnitInterface@BWAPI@@_NU?$less@PAVUnitInterface@BWAPI@@@std@@V?$allocator@U?$pair@QAVUnitInterface@BWAPI@@_N@std@@@4@$0A@@std@@@std@@IAEXPAU?$_Tree_node@U?$pair@QAVUnitInterface@BWAPI@@_N@std@@PAX@2@@Z 1002b900 f i Squad.obj
 0001:0002a920       ??$_Insert_at@AAU?$pair@QAVUnitInterface@BWAPI@@PAVBase@UAlbertaBot@@@std@@PAU?$_Tree_node@U?$pair@QAVUnitInterface@BWAPI@@PAVBase@UAlbertaBot@@@std@@PAX@2@@?$_Tree@V?$_Tmap_traits@PAVUnitInterface@BWAPI@@PAVBase@UAlbertaBot@@U?$less@PAVUnitInterface@BWAPI@@@std@@V?$allocator@U?$pair@QAVUnitInterface@BWAPI@@PAVBase@UAlbertaBot@@@std@@@6@$0A@@std@@@std@@IAE?AV?$_Tree_iterator@V?$_Tree_val@U?$_Tree_simple_types@U?$pair@QAVUnitInterface@BWAPI@@PAVBase@UAlbertaBot@@@std@@@std@@@std@@@1@_NPAU?$_Tree_node@U?$pair@QAVUnitInterface@BWAPI@@PAVBase@UAlbertaBot@@@std@@PAX@1@AAU?$pair@QAVUnitInterface@BWAPI@@PAVBase@UAlbertaBot@@@1@1@Z 1002b920 f i Bases.obj
 0001:0002aa80       ??$_Insert_nohint@AAU?$pair@QAVUnitInterface@BWAPI@@PAVBase@UAlbertaBot@@@std@@PAU?$_Tree_node@U?$pair@QAVUnitInterface@BWAPI@@PAVBase@UAlbertaBot@@@std@@PAX@2@@?$_Tree@V?$_Tmap_traits@PAVUnitInterface@BWAPI@@PAVBase@UAlbertaBot@@U?$less@PAVUnitInterface@BWAPI@@@std@@V?$allocator@U?$pair@QAVUnitInterface@BWAPI@@PAVBase@UAlbertaBot@@@std@@@6@$0A@@std@@@std@@IAE?AU?$pair@V?$_Tree_iterator@V?$_Tree_val@U?$_Tree_simple_types@U?$pair@QAVUnitInterface@BWAPI@@PAVBase@UAlbertaBot@@@std@@@std@@@std@@@std@@_N@1@_NAAU?$pair@QAVUnitInterface@BWAPI@@PAVBase@UAlbertaBot@@@1@PAU?$_Tree_node@U?$pair@QAVUnitInterface@BWAPI@@PAVBase@UAlbertaBot@@@std@@PAX@1@@Z 1002ba80 f i Bases.obj
 0001:0002abf0       ??A?$map@VUnitType@BWAPI@@HU?$less@VUnitType@BWAPI@@@std@@V?$allocator@U?$pair@$$CBVUnitType@BWAPI@@H@std@@@4@@std@@QAEAAH$$QAVUnitType@BWAPI@@@Z 1002bbf0 f i CombatSimulation.obj
 0001:0002abf0       ??A?$map@VUnitType@BWAPI@@HU?$less@VUnitType@BWAPI@@@std@@V?$allocator@U?$pair@$$CBVUnitType@BWAPI@@H@std@@@4@@std@@QAEAAHABVUnitType@BWAPI@@@Z 1002bbf0 f i BOSimulator.obj
 0001:0002ac60       ??$emplace_hint@ABUpiecewise_construct_t@std@@V?$tuple@ABVUnitType@BWAPI@@@2@V?$tuple@$$V@2@@?$_Tree@V?$_Tmap_traits@VUnitType@BWAPI@@HU?$less@VUnitType@BWAPI@@@std@@V?$allocator@U?$pair@$$CBVUnitType@BWAPI@@H@std@@@4@$0A@@std@@@std@@QAE?AV?$_Tree_iterator@V?$_Tree_val@U?$_Tree_simple_types@U?$pair@$$CBVUnitType@BWAPI@@H@std@@@std@@@std@@@1@V?$_Tree_const_iterator@V?$_Tree_val@U?$_Tree_simple_types@U?$pair@$$CBVUnitType@BWAPI@@H@std@@@std@@@std@@@1@ABUpiecewise_construct_t@1@$$QAV?$tuple@ABVUnitType@BWAPI@@@1@$$QAV?$tuple@$$V@1@@Z 1002bc60 f i BOSimulator.obj
 0001:0002ac90       ??$_Insert_hint@AAU?$pair@$$CBVUnitType@BWAPI@@H@std@@PAU?$_Tree_node@U?$pair@$$CBVUnitType@BWAPI@@H@std@@PAX@2@@?$_Tree@V?$_Tmap_traits@VUnitType@BWAPI@@HU?$less@VUnitType@BWAPI@@@std@@V?$allocator@U?$pair@$$CBVUnitType@BWAPI@@H@std@@@4@$0A@@std@@@std@@IAE?AV?$_Tree_iterator@V?$_Tree_val@U?$_Tree_simple_types@U?$pair@$$CBVUnitType@BWAPI@@H@std@@@std@@@std@@@1@V?$_Tree_const_iterator@V?$_Tree_val@U?$_Tree_simple_types@U?$pair@$$CBVUnitType@BWAPI@@H@std@@@std@@@std@@@1@AAU?$pair@$$CBVUnitType@BWAPI@@H@1@PAU?$_Tree_node@U?$pair@$$CBVUnitType@BWAPI@@H@std@@PAX@1@@Z 1002bc90 f i BOSimulator.obj
 0001:0002ac90       ??$_Insert_hint@AAU?$pair@$$CBVUpgradeType@BWAPI@@H@std@@PAU?$_Tree_node@U?$pair@$$CBVUpgradeType@BWAPI@@H@std@@PAX@2@@?$_Tree@V?$_Tmap_traits@VUpgradeType@BWAPI@@HU?$less@VUpgradeType@BWAPI@@@std@@V?$allocator@U?$pair@$$CBVUpgradeType@BWAPI@@H@std@@@4@$0A@@std@@@std@@IAE?AV?$_Tree_iterator@V?$_Tree_val@U?$_Tree_simple_types@U?$pair@$$CBVUpgradeType@BWAPI@@H@std@@@std@@@std@@@1@V?$_Tree_const_iterator@V?$_Tree_val@U?$_Tree_simple_types@U?$pair@$$CBVUpgradeType@BWAPI@@H@std@@@std@@@std@@@1@AAU?$pair@$$CBVUpgradeType@BWAPI@@H@1@PAU?$_Tree_node@U?$pair@$$CBVUpgradeType@BWAPI@@H@std@@PAX@1@@Z 1002bc90 f i SkillOpeningTiming.obj
 0001:0002ac90       ??$_Insert_hint@AAU?$pair@$$CBVTechType@BWAPI@@H@std@@PAU?$_Tree_node@U?$pair@$$CBVTechType@BWAPI@@H@std@@PAX@2@@?$_Tree@V?$_Tmap_traits@VTechType@BWAPI@@HU?$less@VTechType@BWAPI@@@std@@V?$allocator@U?$pair@$$CBVTechType@BWAPI@@H@std@@@4@$0A@@std@@@std@@IAE?AV?$_Tree_iterator@V?$_Tree_val@U?$_Tree_simple_types@U?$pair@$$CBVTechType@BWAPI@@H@std@@@std@@@std@@@1@V?$_Tree_const_iterator@V?$_Tree_val@U?$_Tree_simple_types@U?$pair@$$CBVTechType@BWAPI@@H@std@@@std@@@std@@@1@AAU?$pair@$$CBVTechType@BWAPI@@H@1@PAU?$_Tree_node@U?$pair@$$CBVTechType@BWAPI@@H@std@@PAX@1@@Z 1002bc90 f i SkillOpeningTiming.obj
 0001:0002aef0       ??$_Insert_at@AAU?$pair@$$CBVUnitType@BWAPI@@H@std@@PAU?$_Tree_node@U?$pair@$$CBVUnitType@BWAPI@@H@std@@PAX@2@@?$_Tree@V?$_Tmap_traits@VUnitType@BWAPI@@HU?$less@VUnitType@BWAPI@@@std@@V?$allocator@U?$pair@$$CBVUnitType@BWAPI@@H@std@@@4@$0A@@std@@@std@@IAE?AV?$_Tree_iterator@V?$_Tree_val@U?$_Tree_simple_types@U?$pair@$$CBVUnitType@BWAPI@@H@std@@@std@@@std@@@1@_NPAU?$_Tree_node@U?$pair@$$CBVUnitType@BWAPI@@H@std@@PAX@1@AAU?$pair@$$CBVUnitType@BWAPI@@H@1@1@Z 1002bef0 f i BOSimulator.obj
 0001:0002aef0       ??$_Insert_at@AAU?$pair@QAVUnitInterface@BWAPI@@H@std@@PAU?$_Tree_node@U?$pair@QAVUnitInterface@BWAPI@@H@std@@PAX@2@@?$_Tree@V?$_Tmap_traits@PAVUnitInterface@BWAPI@@HU?$less@PAVUnitInterface@BWAPI@@@std@@V?$allocator@U?$pair@QAVUnitInterface@BWAPI@@H@std@@@4@$0A@@std@@@std@@IAE?AV?$_Tree_iterator@V?$_Tree_val@U?$_Tree_simple_types@U?$pair@QAVUnitInterface@BWAPI@@H@std@@@std@@@std@@@1@_NPAU?$_Tree_node@U?$pair@QAVUnitInterface@BWAPI@@H@std@@PAX@1@AAU?$pair@QAVUnitInterface@BWAPI@@H@1@1@Z 1002bef0 f i WorkerData.obj
 0001:0002aef0       ??$_Insert_at@AAU?$pair@$$CBVUpgradeType@BWAPI@@H@std@@PAU?$_Tree_node@U?$pair@$$CBVUpgradeType@BWAPI@@H@std@@PAX@2@@?$_Tree@V?$_Tmap_traits@VUpgradeType@BWAPI@@HU?$less@VUpgradeType@BWAPI@@@std@@V?$allocator@U?$pair@$$CBVUpgradeType@BWAPI@@H@std@@@4@$0A@@std@@@std@@IAE?AV?$_Tree_iterator@V?$_Tree_val@U?$_Tree_simple_types@U?$pair@$$CBVUpgradeType@BWAPI@@H@std@@@std@@@std@@@1@_NPAU?$_Tree_node@U?$pair@$$CBVUpgradeType@BWAPI@@H@std@@PAX@1@AAU?$pair@$$CBVUpgradeType@BWAPI@@H@1@1@Z 1002bef0 f i SkillOpeningTiming.obj
 0001:0002aef0       ??$_Insert_at@AAU?$pair@QAVUnitInterface@BWAPI@@W4WorkerJob@WorkerData@UAlbertaBot@@@std@@PAU?$_Tree_node@U?$pair@QAVUnitInterface@BWAPI@@W4WorkerJob@WorkerData@UAlbertaBot@@@std@@PAX@2@@?$_Tree@V?$_Tmap_traits@PAVUnitInterface@BWAPI@@W4WorkerJob@WorkerData@UAlbertaBot@@U?$less@PAVUnitInterface@BWAPI@@@std@@V?$allocator@U?$pair@QAVUnitInterface@BWAPI@@W4WorkerJob@WorkerData@UAlbertaBot@@@std@@@7@$0A@@std@@@std@@IAE?AV?$_Tree_iterator@V?$_Tree_val@U?$_Tree_simple_types@U?$pair@QAVUnitInterface@BWAPI@@W4WorkerJob@WorkerData@UAlbertaBot@@@std@@@std@@@std@@@1@_NPAU?$_Tree_node@U?$pair@QAVUnitInterface@BWAPI@@W4WorkerJob@WorkerData@UAlbertaBot@@@std@@PAX@1@AAU?$pair@QAVUnitInterface@BWAPI@@W4WorkerJob@WorkerData@UAlbertaBot@@@1@1@Z 1002bef0 f i WorkerData.obj
 0001:0002aef0       ??$_Insert_at@AAU?$pair@QAVUnitInterface@BWAPI@@PAV12@@std@@PAU?$_Tree_node@U?$pair@QAVUnitInterface@BWAPI@@PAV12@@std@@PAX@2@@?$_Tree@V?$_Tmap_traits@PAVUnitInterface@BWAPI@@PAV12@U?$less@PAVUnitInterface@BWAPI@@@std@@V?$allocator@U?$pair@QAVUnitInterface@BWAPI@@PAV12@@std@@@4@$0A@@std@@@std@@IAE?AV?$_Tree_iterator@V?$_Tree_val@U?$_Tree_simple_types@U?$pair@QAVUnitInterface@BWAPI@@PAV12@@std@@@std@@@std@@@1@_NPAU?$_Tree_node@U?$pair@QAVUnitInterface@BWAPI@@PAV12@@std@@PAX@1@AAU?$pair@QAVUnitInterface@BWAPI@@PAV12@@1@1@Z 1002bef0 f i WorkerData.obj
 0001:0002aef0       ??$_Insert_at@AAU?$pair@QAVUnitInterface@BWAPI@@_N@std@@PAU?$_Tree_node@U?$pair@QAVUnitInterface@BWAPI@@_N@std@@PAX@2@@?$_Tree@V?$_Tmap_traits@PAVUnitInterface@BWAPI@@_NU?$less@PAVUnitInterface@BWAPI@@@std@@V?$allocator@U?$pair@QAVUnitInterface@BWAPI@@_N@std@@@4@$0A@@std@@@std@@IAE?AV?$_Tree_iterator@V?$_Tree_val@U?$_Tree_simple_types@U?$pair@QAVUnitInterface@BWAPI@@_N@std@@@std@@@std@@@1@_NPAU?$_Tree_node@U?$pair@QAVUnitInterface@BWAPI@@_N@std@@PAX@1@AAU?$pair@QAVUnitInterface@BWAPI@@_N@1@1@Z 1002bef0 f i Squad.obj
 0001:0002aef0       ??$_Insert_at@AAU?$pair@$$CBVTechType@BWAPI@@H@std@@PAU?$_Tree_node@U?$pair@$$CBVTechType@BWAPI@@H@std@@PAX@2@@?$_Tree@V?$_Tmap_traits@VTechType@BWAPI@@HU?$less@VTechType@BWAPI@@@std@@V?$allocator@U?$pair@$$CBVTechType@BWAPI@@H@std@@@4@$0A@@std@@@std@@IAE?AV?$_Tree_iterator@V?$_Tree_val@U?$_Tree_simple_types@U?$pair@$$CBVTechType@BWAPI@@H@std@@@std@@@std@@@1@_NPAU?$_Tree_node@U?$pair@$$CBVTechType@BWAPI@@H@std@@PAX@1@AAU?$pair@$$CBVTechType@BWAPI@@H@1@1@Z 1002bef0 f i SkillOpeningTiming.obj
 0001:0002b120       ??$_Insert_nohint@AAU?$pair@$$CBVTechType@BWAPI@@H@std@@PAU?$_Tree_node@U?$pair@$$CBVTechType@BWAPI@@H@std@@PAX@2@@?$_Tree@V?$_Tmap_traits@VTechType@BWAPI@@HU?$less@VTechType@BWAPI@@@std@@V?$allocator@U?$pair@$$CBVTechType@BWAPI@@H@std@@@4@$0A@@std@@@std@@IAE?AU?$pair@V?$_Tree_iterator@V?$_Tree_val@U?$_Tree_simple_types@U?$pair@$$CBVTechType@BWAPI@@H@std@@@std@@@std@@@std@@_N@1@_NAAU?$pair@$$CBVTechType@BWAPI@@H@1@PAU?$_Tree_node@U?$pair@$$CBVTechType@BWAPI@@H@std@@PAX@1@@Z 1002c120 f i SkillOpeningTiming.obj
 0001:0002b120       ??$_Insert_nohint@AAU?$pair@$$CBVUnitType@BWAPI@@H@std@@PAU?$_Tree_node@U?$pair@$$CBVUnitType@BWAPI@@H@std@@PAX@2@@?$_Tree@V?$_Tmap_traits@VUnitType@BWAPI@@HU?$less@VUnitType@BWAPI@@@std@@V?$allocator@U?$pair@$$CBVUnitType@BWAPI@@H@std@@@4@$0A@@std@@@std@@IAE?AU?$pair@V?$_Tree_iterator@V?$_Tree_val@U?$_Tree_simple_types@U?$pair@$$CBVUnitType@BWAPI@@H@std@@@std@@@std@@@std@@_N@1@_NAAU?$pair@$$CBVUnitType@BWAPI@@H@1@PAU?$_Tree_node@U?$pair@$$CBVUnitType@BWAPI@@H@std@@PAX@1@@Z 1002c120 f i BOSimulator.obj
 0001:0002b120       ??$_Insert_nohint@AAU?$pair@$$CBVUpgradeType@BWAPI@@H@std@@PAU?$_Tree_node@U?$pair@$$CBVUpgradeType@BWAPI@@H@std@@PAX@2@@?$_Tree@V?$_Tmap_traits@VUpgradeType@BWAPI@@HU?$less@VUpgradeType@BWAPI@@@std@@V?$allocator@U?$pair@$$CBVUpgradeType@BWAPI@@H@std@@@4@$0A@@std@@@std@@IAE?AU?$pair@V?$_Tree_iterator@V?$_Tree_val@U?$_Tree_simple_types@U?$pair@$$CBVUpgradeType@BWAPI@@H@std@@@std@@@std@@@std@@_N@1@_NAAU?$pair@$$CBVUpgradeType@BWAPI@@H@1@PAU?$_Tree_node@U?$pair@$$CBVUpgradeType@BWAPI@@H@std@@PAX@1@@Z 1002c120 f i SkillOpeningTiming.obj
 0001:0002b290       ?_Get_deleter@_Ref_count_base@std@@UBEPAXABVtype_info@@@Z 1002c290 f i BOSSManager.obj
 0001:0002b2a0       ??1BuildOrder@BOSS@@QAE@XZ 1002c2a0 f i BOSSManager.obj
 0001:0002b2c0       ??1BuildOrder@UAlbertaBot@@QAE@XZ 1002c2c0 f i BOSSManager.obj
 0001:0002b2d0       ??1BOSSManager@UAlbertaBot@@QAE@XZ 1002c2d0 f i BOSSManager.obj
 0001:0002b480       ??1DFBB_BuildOrderSearchResults@BOSS@@QAE@XZ 1002c480 f i BOSSManager.obj
 0001:0002b4a0       ?drawSearchInformation@BOSSManager@UAlbertaBot@@QAEXHH@Z 1002c4a0 f   BOSSManager.obj
 0001:0002b710       ??1?$shared_ptr@U?$output_adapter_protocol@D@detail@json_abi_v3_11_3@nlohmann@@@std@@QAE@XZ 1002c710 f i db.obj
 0001:0002b710       ??1?$shared_ptr@VDFBB_BuildOrderSmartSearch@BOSS@@@std@@QAE@XZ 1002c710 f i BOSSManager.obj
 0001:0002b770       ??1?$vector@U?$pair@VMacroAct@UAlbertaBot@@I@std@@V?$allocator@U?$pair@VMacroAct@UAlbertaBot@@I@std@@@2@@std@@QAE@XZ 1002c770 f i BOSSManager.obj
 0001:0002b780       ??1?$vector@VMacroAct@UAlbertaBot@@V?$allocator@VMacroAct@UAlbertaBot@@@std@@@std@@QAE@XZ 1002c780 f i BOSSManager.obj
 0001:0002b780       ??1?$vector@VTimer@BOSS@@V?$allocator@VTimer@BOSS@@@std@@@std@@QAE@XZ 1002c780 f i GameCommander.obj
 0001:0002b790       ?append@?$basic_string@DU?$char_traits@D@std@@V?$allocator@D@2@@std@@QAEAAV12@QBD@Z 1002c790 f i BOSSManager.obj
 0001:0002b800       ??4?$basic_string@DU?$char_traits@D@std@@V?$allocator@D@2@@std@@QAEAAV01@$$QAV01@@Z 1002c800 f i BOSSManager.obj
 0001:0002b840       ?_Tidy@?$vector@U?$pair@VMacroAct@UAlbertaBot@@I@std@@V?$allocator@U?$pair@VMacroAct@UAlbertaBot@@I@std@@@2@@std@@AAEXXZ 1002c840 f i BOSSManager.obj
 0001:0002b8b0       ?_Tidy@?$vector@VTimer@BOSS@@V?$allocator@VTimer@BOSS@@@std@@@std@@AAEXXZ 1002c8b0 f i GameCommander.obj
 0001:0002b8b0       ??1?$vector@UUnitInfo@UAlbertaBot@@V?$allocator@UUnitInfo@UAlbertaBot@@@std@@@std@@QAE@XZ 1002c8b0 f i CombatSimulation.obj
 0001:0002b8b0       ?_Tidy@?$vector@VMacroAct@UAlbertaBot@@V?$allocator@VMacroAct@UAlbertaBot@@@std@@@std@@AAEXXZ 1002c8b0 f i BOSSManager.obj
 0001:0002b920       ?_Tidy@?$vector@VActionPerformed@BOSS@@V?$allocator@VActionPerformed@BOSS@@@std@@@std@@AAEXXZ 1002c920 f i BOSSManager.obj
 0001:0002b920       ??1?$vector@UConnection@@V?$allocator@UConnection@@@std@@@std@@QAE@XZ 1002c920 f i NodeEval.obj
 0001:0002b980       ??$_Reallocate_grow_by@V<lambda_ab246b20b9526e2ef7792587e4298a77>@@PBDI@?$basic_string@DU?$char_traits@D@std@@V?$allocator@D@2@@std@@QAEAAV01@IV<lambda_ab246b20b9526e2ef7792587e4298a77>@@PBDI@Z 1002c980 f i BOSSManager.obj
 0001:0002bad0       ?_Change_array@?$vector@VMacroAct@UAlbertaBot@@V?$allocator@VMacroAct@UAlbertaBot@@@std@@@std@@AAEXQAVMacroAct@UAlbertaBot@@II@Z 1002cad0 f i BOSSManager.obj
 0001:0002bb50       ?_Umove_if_noexcept@?$vector@VMacroAct@UAlbertaBot@@V?$allocator@VMacroAct@UAlbertaBot@@@std@@@std@@AAEXPAVMacroAct@UAlbertaBot@@00@Z 1002cb50 f i BOSSManager.obj
 0001:0002bb90       ?_Umove@?$vector@VMacroAct@UAlbertaBot@@V?$allocator@VMacroAct@UAlbertaBot@@@std@@@std@@AAEPAVMacroAct@UAlbertaBot@@PAV34@00@Z 1002cb90 f i BOSSManager.obj
 0001:0002bbd0       ?_Buy@?$vector@IV?$allocator@I@std@@@std@@AAE_NI@Z 1002cbd0 f i BOSSManager.obj
 0001:0002bbd0       ?_Buy@?$vector@HV?$allocator@H@std@@@std@@AAE_NI@Z 1002cbd0 f i GameRecord.obj
 0001:0002bc90       ??0Building@UAlbertaBot@@QAE@VUnitType@BWAPI@@V?$Point@H$0CA@@3@@Z 1002cc90 f i BuildingManager.obj
 0001:0002bd00       ??1?$pair@W4OpeningPlan@UAlbertaBot@@V?$basic_string@DU?$char_traits@D@std@@V?$allocator@D@2@@std@@@std@@QAE@XZ 1002cd00 f i BuildingManager.obj
 0001:0002bd00       ??1?$pair@W4LurkerTactic@UAlbertaBot@@V?$basic_string@DU?$char_traits@D@std@@V?$allocator@D@2@@std@@@std@@QAE@XZ 1002cd00 f i CombatCommander.obj
 0001:0002bd00       ??1Skill@UAlbertaBot@@QAE@XZ 1002cd00 f i SkillBattles.obj
 0001:0002bd50       ?update@BuildingManager@UAlbertaBot@@QAEXXZ 1002cd50 f   BuildingManager.obj
 0001:0002beb0       ?validateBuildings@BuildingManager@UAlbertaBot@@AAEXXZ 1002ceb0 f   BuildingManager.obj
 0001:0002c010       ?assignWorkersToUnassignedBuildings@BuildingManager@UAlbertaBot@@AAEXXZ 1002d010 f   BuildingManager.obj
 0001:0002c1f0       ?constructAssignedBuildings@BuildingManager@UAlbertaBot@@AAEXXZ 1002d1f0 f   BuildingManager.obj
 0001:0002c7a0       ?checkForStartedConstruction@BuildingManager@UAlbertaBot@@AAEXXZ 1002d7a0 f   BuildingManager.obj
 0001:0002c950       ?checkForCompletedBuildings@BuildingManager@UAlbertaBot@@AAEXXZ 1002d950 f   BuildingManager.obj
 0001:0002cbd0       ?clearAbandonedTerranBuildings@BuildingManager@UAlbertaBot@@AAEXXZ 1002dbd0 f   BuildingManager.obj
 0001:0002ce20       ?addBuildingTask@BuildingManager@UAlbertaBot@@QAEXABVMacroAct@2@V?$Point@H$0CA@@BWAPI@@PAVUnitInterface@5@_N@Z 1002de20 f   BuildingManager.obj
 0001:0002cf30       ?validBuilder@BuildingManager@UAlbertaBot@@ABE_NPAVUnitInterface@BWAPI@@@Z 1002df30 f   BuildingManager.obj
 0001:0002cfe0       ?isBeingBuilt@BuildingManager@UAlbertaBot@@QBE_NVUnitType@BWAPI@@@Z 1002dfe0 f   BuildingManager.obj
 0001:0002d010       ?drawBuildingInformation@BuildingManager@UAlbertaBot@@QAEXHH@Z 1002e010 f   BuildingManager.obj
 0001:0002d5e0       ?Instance@BuildingManager@UAlbertaBot@@SAAAV12@XZ 1002e5e0 f   BuildingManager.obj
 0001:0002d650       ?getBuildingLocation@BuildingManager@UAlbertaBot@@QAE?AV?$Point@H$0CA@@BWAPI@@ABVBuilding@2@@Z 1002e650 f   BuildingManager.obj
 0001:0002d900       ?undoBuildings@BuildingManager@UAlbertaBot@@AAEXABV?$vector@V?$reference_wrapper@VBuilding@UAlbertaBot@@@std@@V?$allocator@V?$reference_wrapper@VBuilding@UAlbertaBot@@@std@@@2@@std@@@Z 1002e900 f   BuildingManager.obj
 0001:0002db50       ?removeBuildings@BuildingManager@UAlbertaBot@@AAEXABV?$vector@V?$reference_wrapper@VBuilding@UAlbertaBot@@@std@@V?$allocator@V?$reference_wrapper@VBuilding@UAlbertaBot@@@std@@@2@@std@@@Z 1002eb50 f   BuildingManager.obj
 0001:0002dbe0       ?typeIsStalled@BuildingManager@UAlbertaBot@@QBE_NVUnitType@BWAPI@@@Z 1002ebe0 f   BuildingManager.obj
 0001:0002dc10       ??0?$basic_string@DU?$char_traits@D@std@@V?$allocator@D@2@@std@@QAE@ABV01@@Z 1002ec10 f i BuildingManager.obj
 0001:0002dcd0       ?_Tidy@?$vector@U?$pair@W4OpeningPlan@UAlbertaBot@@V?$basic_string@DU?$char_traits@D@std@@V?$allocator@D@2@@std@@@std@@V?$allocator@U?$pair@W4OpeningPlan@UAlbertaBot@@V?$basic_string@DU?$char_traits@D@std@@V?$allocator@D@2@@std@@@std@@@2@@std@@AAEXXZ 1002ecd0 f i BuildingManager.obj
 0001:0002dcd0       ?_Tidy@?$vector@U?$pair@W4LurkerTactic@UAlbertaBot@@V?$basic_string@DU?$char_traits@D@std@@V?$allocator@D@2@@std@@@std@@V?$allocator@U?$pair@W4LurkerTactic@UAlbertaBot@@V?$basic_string@DU?$char_traits@D@std@@V?$allocator@D@2@@std@@@std@@@2@@std@@AAEXXZ 1002ecd0 f i CombatCommander.obj
 0001:0002dd50       ??$_Range_construct_or_tidy@PBU?$pair@W4LurkerTactic@UAlbertaBot@@V?$basic_string@DU?$char_traits@D@std@@V?$allocator@D@2@@std@@@std@@@?$vector@U?$pair@W4LurkerTactic@UAlbertaBot@@V?$basic_string@DU?$char_traits@D@std@@V?$allocator@D@2@@std@@@std@@V?$allocator@U?$pair@W4LurkerTactic@UAlbertaBot@@V?$basic_string@DU?$char_traits@D@std@@V?$allocator@D@2@@std@@@std@@@2@@std@@AAEXPBU?$pair@W4LurkerTactic@UAlbertaBot@@V?$basic_string@DU?$char_traits@D@std@@V?$allocator@D@2@@std@@@1@0Uforward_iterator_tag@1@@Z 1002ed50 f i CombatCommander.obj
 0001:0002dd50       ??$_Range_construct_or_tidy@PBU?$pair@W4OpeningPlan@UAlbertaBot@@V?$basic_string@DU?$char_traits@D@std@@V?$allocator@D@2@@std@@@std@@@?$vector@U?$pair@W4OpeningPlan@UAlbertaBot@@V?$basic_string@DU?$char_traits@D@std@@V?$allocator@D@2@@std@@@std@@V?$allocator@U?$pair@W4OpeningPlan@UAlbertaBot@@V?$basic_string@DU?$char_traits@D@std@@V?$allocator@D@2@@std@@@std@@@2@@std@@AAEXPBU?$pair@W4OpeningPlan@UAlbertaBot@@V?$basic_string@DU?$char_traits@D@std@@V?$allocator@D@2@@std@@@1@0Uforward_iterator_tag@1@@Z 1002ed50 f i BuildingManager.obj
 0001:0002dea0       ??$_Emplace_reallocate@ABVUnitType@BWAPI@@@?$vector@VUnitType@BWAPI@@V?$allocator@VUnitType@BWAPI@@@std@@@std@@QAEPAVUnitType@BWAPI@@QAV23@ABV23@@Z 1002eea0 f i BuildingManager.obj
 0001:0002dea0       ??$_Emplace_reallocate@V?$reference_wrapper@VBuilding@UAlbertaBot@@@std@@@?$vector@V?$reference_wrapper@VBuilding@UAlbertaBot@@@std@@V?$allocator@V?$reference_wrapper@VBuilding@UAlbertaBot@@@std@@@2@@std@@QAEPAV?$reference_wrapper@VBuilding@UAlbertaBot@@@1@QAV21@$$QAV21@@Z 1002eea0 f i BuildingManager.obj
 0001:0002e070       ??$_Emplace_reallocate@ABVBuilding@UAlbertaBot@@@?$vector@VBuilding@UAlbertaBot@@V?$allocator@VBuilding@UAlbertaBot@@@std@@@std@@QAEPAVBuilding@UAlbertaBot@@QAV23@ABV23@@Z 1002f070 f i BuildingManager.obj
 0001:0002e240       ??$_Destroy_range@V?$allocator@U?$pair@W4LurkerTactic@UAlbertaBot@@V?$basic_string@DU?$char_traits@D@std@@V?$allocator@D@2@@std@@@std@@@std@@@std@@YAXPAU?$pair@W4LurkerTactic@UAlbertaBot@@V?$basic_string@DU?$char_traits@D@std@@V?$allocator@D@2@@std@@@0@0AAV?$allocator@U?$pair@W4LurkerTactic@UAlbertaBot@@V?$basic_string@DU?$char_traits@D@std@@V?$allocator@D@2@@std@@@std@@@0@@Z 1002f240 f i CombatCommander.obj
 0001:0002e240       ??$_Destroy_range@V?$allocator@U?$pair@W4OpeningPlan@UAlbertaBot@@V?$basic_string@DU?$char_traits@D@std@@V?$allocator@D@2@@std@@@std@@@std@@@std@@YAXPAU?$pair@W4OpeningPlan@UAlbertaBot@@V?$basic_string@DU?$char_traits@D@std@@V?$allocator@D@2@@std@@@0@0AAV?$allocator@U?$pair@W4OpeningPlan@UAlbertaBot@@V?$basic_string@DU?$char_traits@D@std@@V?$allocator@D@2@@std@@@std@@@0@@Z 1002f240 f i BuildingManager.obj
 0001:0002e2b0       ?_Umove@?$vector@VBuilding@UAlbertaBot@@V?$allocator@VBuilding@UAlbertaBot@@@std@@@std@@AAEPAVBuilding@UAlbertaBot@@PAV34@00@Z 1002f2b0 f i BuildingManager.obj
 0001:0002e2f0       ??1?$_Uninitialized_backout_al@PAU?$pair@W4OpeningPlan@UAlbertaBot@@V?$basic_string@DU?$char_traits@D@std@@V?$allocator@D@2@@std@@@std@@V?$allocator@U?$pair@W4OpeningPlan@UAlbertaBot@@V?$basic_string@DU?$char_traits@D@std@@V?$allocator@D@2@@std@@@std@@@2@@std@@QAE@XZ 1002f2f0 f i BuildingManager.obj
 0001:0002e2f0       ??1?$_Uninitialized_backout_al@PAU?$pair@W4LurkerTactic@UAlbertaBot@@V?$basic_string@DU?$char_traits@D@std@@V?$allocator@D@2@@std@@@std@@V?$allocator@U?$pair@W4LurkerTactic@UAlbertaBot@@V?$basic_string@DU?$char_traits@D@std@@V?$allocator@D@2@@std@@@std@@@2@@std@@QAE@XZ 1002f2f0 f i CombatCommander.obj
 0001:0002e300       ?reserveSpaceNearResources@BuildingPlacer@UAlbertaBot@@AAEXXZ 1002f300 f   BuildingPlacer.obj
 0001:0002e4b0       ?setReserve@BuildingPlacer@UAlbertaBot@@AAEXABV?$Point@H$0CA@@BWAPI@@HH_N@Z 1002f4b0 f   BuildingPlacer.obj
 0001:0002e560       ?isFreeTile@BuildingPlacer@UAlbertaBot@@ABE_NHH@Z 1002f560 f   BuildingPlacer.obj
 0001:0002e760       ?freeOnRight@BuildingPlacer@UAlbertaBot@@ABE_NABV?$Point@H$0CA@@BWAPI@@VUnitType@4@@Z 1002f760 f   BuildingPlacer.obj
 0001:0002e7e0       ?freeOnBottom@BuildingPlacer@UAlbertaBot@@ABE_NABV?$Point@H$0CA@@BWAPI@@VUnitType@4@@Z 1002f7e0 f   BuildingPlacer.obj
 0001:0002e870       ?freeOnAllSides@BuildingPlacer@UAlbertaBot@@ABE_NPAVUnitInterface@BWAPI@@@Z 1002f870 f   BuildingPlacer.obj
 0001:0002e9d0       ?canBuildHere@BuildingPlacer@UAlbertaBot@@ABE_NABV?$Point@H$0CA@@BWAPI@@ABVBuilding@2@@Z 1002f9d0 f   BuildingPlacer.obj
 0001:0002ea60       ?canBuildWithSpace@BuildingPlacer@UAlbertaBot@@ABE_NABV?$Point@H$0CA@@BWAPI@@ABVBuilding@2@H@Z 1002fa60 f   BuildingPlacer.obj
 0001:0002ebc0       ?groupTogether@BuildingPlacer@UAlbertaBot@@ABE_NVUnitType@BWAPI@@@Z 1002fbc0 f   BuildingPlacer.obj
 0001:0002ebf0       ?findEdgeLocation@BuildingPlacer@UAlbertaBot@@ABE?AV?$Point@H$0CA@@BWAPI@@ABVBuilding@2@@Z 1002fbf0 f   BuildingPlacer.obj
 0001:0002f0b0       ?findGroupedLocation@BuildingPlacer@UAlbertaBot@@ABE?AV?$Point@H$0CA@@BWAPI@@ABVBuilding@2@@Z 100300b0 f   BuildingPlacer.obj
 0001:0002f8e0       ?findAnyLocation@BuildingPlacer@UAlbertaBot@@ABE?AV?$Point@H$0CA@@BWAPI@@ABVBuilding@2@H@Z 100308e0 f   BuildingPlacer.obj
 0001:0002f980       ?getBuildLocationNear@BuildingPlacer@UAlbertaBot@@QBE?AV?$Point@H$0CA@@BWAPI@@ABVBuilding@2@H@Z 10030980 f   BuildingPlacer.obj
 0001:0002fbd0       ?isReserved@BuildingPlacer@UAlbertaBot@@QBE_NHH@Z 10030bd0 f   BuildingPlacer.obj
 0001:0002fc80       ?buildingOK@BuildingPlacer@UAlbertaBot@@QBE_NABVBuilding@2@ABV?$Point@H$0CA@@BWAPI@@@Z 10030c80 f   BuildingPlacer.obj
 0001:0002fcb0       ?getMacroLocationTile@BuildingPlacer@UAlbertaBot@@QBE?AV?$Point@H$0CA@@BWAPI@@W4MacroLocation@2@@Z 10030cb0 f   BuildingPlacer.obj
 0001:000300a0       ?getRefineryPosition@BuildingPlacer@UAlbertaBot@@QBE?AV?$Point@H$0CA@@BWAPI@@XZ 100310a0 f   BuildingPlacer.obj
 0001:00030320       ?getInBaseProxyPosition@BuildingPlacer@UAlbertaBot@@QBE?AV?$Point@H$0CA@@BWAPI@@PBVBase@2@@Z 10031320 f   BuildingPlacer.obj
 0001:00030540       ??0?$vector@V?$vector@_NV?$allocator@_N@std@@@std@@V?$allocator@V?$vector@_NV?$allocator@_N@std@@@std@@@2@@std@@QAE@IABV?$vector@_NV?$allocator@_N@std@@@1@ABV?$allocator@V?$vector@_NV?$allocator@_N@std@@@std@@@1@@Z 10031540 f i BuildingPlacer.obj
 0001:00030660       ??0?$vector@_NV?$allocator@_N@std@@@std@@QAE@IAB_NABV?$allocator@_N@1@@Z 10031660 f i BuildingPlacer.obj
 0001:00030710       ??0?$vector@HV?$allocator@H@std@@@std@@QAE@IABHABV?$allocator@H@1@@Z 10031710 f i UnitData.obj
 0001:00030710       ??0?$vector@IV?$allocator@I@std@@@std@@QAE@IABIABV?$allocator@I@1@@Z 10031710 f i BuildingPlacer.obj
 0001:00030760       ?_Xlen@?$vector@_NV?$allocator@_N@std@@@std@@QBEXXZ 10031760 f i BuildingPlacer.obj
 0001:00030770       ??$?WV?$UnaryFilter@PAVUnitInterface@BWAPI@@V?$function@$$A6A_NPAVUnitInterface@BWAPI@@@Z@std@@@BWAPI@@@?$UnaryFilter@PAVUnitInterface@BWAPI@@V?$function@$$A6A_NPAVUnitInterface@BWAPI@@@Z@std@@@BWAPI@@QBE?AV01@ABV01@@Z 10031770 f i BuildingPlacer.obj
 0001:00030880       ??1?$_Uninitialized_backout_al@PAV?$vector@_NV?$allocator@_N@std@@@std@@V?$allocator@V?$vector@_NV?$allocator@_N@std@@@std@@@2@@std@@QAE@XZ 10031880 f i BuildingPlacer.obj
 0001:000308b0       ?_Target_type@?$_Func_impl_no_alloc@V<lambda_a75142be93029274f5333ecd96084427>@@_NPAVUnitInterface@BWAPI@@@std@@EBEABVtype_info@@XZ 100318b0 f i BuildingPlacer.obj
 0001:000308c0       ?_Move@?$_Func_impl_no_alloc@V<lambda_a75142be93029274f5333ecd96084427>@@_NPAVUnitInterface@BWAPI@@@std@@EAEPAV?$_Func_base@_NPAVUnitInterface@BWAPI@@@2@PAX@Z 100318c0 f i BuildingPlacer.obj
 0001:00030930       ?_Copy@?$_Func_impl_no_alloc@V<lambda_a75142be93029274f5333ecd96084427>@@_NPAVUnitInterface@BWAPI@@@std@@EBEPAV?$_Func_base@_NPAVUnitInterface@BWAPI@@@2@PAX@Z 10031930 f i BuildingPlacer.obj
 0001:00030940       ??0?$vector@IV?$allocator@I@std@@@std@@QAE@ABV01@@Z 10031940 f i BuildingPlacer.obj
 0001:000309a0       ?_Do_call@?$_Func_impl_no_alloc@V<lambda_a75142be93029274f5333ecd96084427>@@_NPAVUnitInterface@BWAPI@@@std@@EAE_N$$QAPAVUnitInterface@BWAPI@@@Z 100319a0 f i BuildingPlacer.obj
 0001:00030a00       ??$_Global_new@V?$_Func_impl_no_alloc@V<lambda_a75142be93029274f5333ecd96084427>@@_NPAVUnitInterface@BWAPI@@@std@@V<lambda_a75142be93029274f5333ecd96084427>@@@std@@YAPAV?$_Func_impl_no_alloc@V<lambda_a75142be93029274f5333ecd96084427>@@_NPAVUnitInterface@BWAPI@@@0@$$QAV<lambda_a75142be93029274f5333ecd96084427>@@@Z 10031a00 f i BuildingPlacer.obj
 0001:00030a00       ??$_Global_new@V?$_Func_impl_no_alloc@V<lambda_a75142be93029274f5333ecd96084427>@@_NPAVUnitInterface@BWAPI@@@std@@ABV<lambda_a75142be93029274f5333ecd96084427>@@@std@@YAPAV?$_Func_impl_no_alloc@V<lambda_a75142be93029274f5333ecd96084427>@@_NPAVUnitInterface@BWAPI@@@0@ABV<lambda_a75142be93029274f5333ecd96084427>@@@Z 10031a00 f i BuildingPlacer.obj
 0001:00030aa0       ??0?$vector@VMacroAct@UAlbertaBot@@V?$allocator@VMacroAct@UAlbertaBot@@@std@@@std@@QAE@ABV01@@Z 10031aa0 f i BuildOrder.obj
 0001:00030b20       ?_Buy@?$vector@VMacroAct@UAlbertaBot@@V?$allocator@VMacroAct@UAlbertaBot@@@std@@@std@@AAE_NI@Z 10031b20 f i BuildOrder.obj
 0001:00030be0       ??$_Emplace_reallocate@ABVMacroAct@UAlbertaBot@@@?$vector@VMacroAct@UAlbertaBot@@V?$allocator@VMacroAct@UAlbertaBot@@@std@@@std@@QAEPAVMacroAct@UAlbertaBot@@QAV23@ABV23@@Z 10031be0 f i BuildOrder.obj
 0001:00030d40       ?queueAsHighestPriority@BuildOrderQueue@UAlbertaBot@@QAEXVMacroAct@2@_N@Z 10031d40 f   BuildOrderQueue.obj
 0001:00030df0       ?queueAsLowestPriority@BuildOrderQueue@UAlbertaBot@@QAEXVMacroAct@2@@Z 10031df0 f   BuildOrderQueue.obj
 0001:00030ea0       ?pullToTop@BuildOrderQueue@UAlbertaBot@@QAEXI@Z 10031ea0 f   BuildOrderQueue.obj
 0001:00030fd0       ?getHighestPriorityItem@BuildOrderQueue@UAlbertaBot@@QBEABUBuildOrderItem@2@XZ 10031fd0 f   BuildOrderQueue.obj
 0001:00031040       ?drawQueueInformation@BuildOrderQueue@UAlbertaBot@@QAEXHH_N@Z 10032040 f   BuildOrderQueue.obj
 0001:00031450       ??_D?$basic_stringstream@DU?$char_traits@D@std@@V?$allocator@D@2@@std@@QAEXXZ 10032450 f i BuildOrderQueue.obj
 0001:000314a0       ?str@?$basic_stringstream@DU?$char_traits@D@std@@V?$allocator@D@2@@std@@QBE?AV?$basic_string@DU?$char_traits@D@std@@V?$allocator@D@2@@2@XZ 100324a0 f i BuildOrderQueue.obj
 0001:000314c0       ??0?$basic_stringstream@DU?$char_traits@D@std@@V?$allocator@D@2@@std@@QAE@H@Z 100324c0 f i BuildOrderQueue.obj
 0001:00031580       ?seekpos@?$basic_stringbuf@DU?$char_traits@D@std@@V?$allocator@D@2@@std@@MAE?AV?$fpos@U_Mbstatet@@@2@V32@H@Z 10032580 f i BuildOrderQueue.obj
 0001:00031680       ?seekoff@?$basic_stringbuf@DU?$char_traits@D@std@@V?$allocator@D@2@@std@@MAE?AV?$fpos@U_Mbstatet@@@2@_JHH@Z 10032680 f i BuildOrderQueue.obj
 0001:000317f0       ?underflow@?$basic_stringbuf@DU?$char_traits@D@std@@V?$allocator@D@2@@std@@MAEHXZ 100327f0 f i BuildOrderQueue.obj
 0001:00031850       ?pbackfail@?$basic_stringbuf@DU?$char_traits@D@std@@V?$allocator@D@2@@std@@MAEHH@Z 10032850 f i BuildOrderQueue.obj
 0001:000318b0       ?overflow@?$basic_stringbuf@DU?$char_traits@D@std@@V?$allocator@D@2@@std@@MAEHH@Z 100328b0 f i BuildOrderQueue.obj
 0001:00031a60       ??_E?$basic_stringstream@DU?$char_traits@D@std@@V?$allocator@D@2@@std@@UAEPAXI@Z 10032a60 f i * CIL library *:* CIL module *
 0001:00031a60       ??_G?$basic_stringstream@DU?$char_traits@D@std@@V?$allocator@D@2@@std@@UAEPAXI@Z 10032a60 f i BuildOrderQueue.obj
 0001:00031ad0       ??_G?$basic_stringbuf@DU?$char_traits@D@std@@V?$allocator@D@2@@std@@UAEPAXI@Z 10032ad0 f i BuildOrderQueue.obj
 0001:00031ad0       ??_E?$basic_stringbuf@DU?$char_traits@D@std@@V?$allocator@D@2@@std@@UAEPAXI@Z 10032ad0 f i * CIL library *:* CIL module *
 0001:00031b10       ?_Tidy@?$deque@UBuildOrderItem@UAlbertaBot@@V?$allocator@UBuildOrderItem@UAlbertaBot@@@std@@@std@@IAEXXZ 10032b10 f i BuildOrderQueue.obj
 0001:00031bb0       ?_Growmap@?$deque@UBuildOrderItem@UAlbertaBot@@V?$allocator@UBuildOrderItem@UAlbertaBot@@@std@@@std@@IAEXI@Z 10032bb0 f i BuildOrderQueue.obj
 0001:00031d80       ?erase@?$deque@UBuildOrderItem@UAlbertaBot@@V?$allocator@UBuildOrderItem@UAlbertaBot@@@std@@@std@@QAE?AV?$_Deque_iterator@V?$_Deque_val@U?$_Deque_simple_types@UBuildOrderItem@UAlbertaBot@@@std@@@std@@@2@V?$_Deque_const_iterator@V?$_Deque_val@U?$_Deque_simple_types@UBuildOrderItem@UAlbertaBot@@@std@@@std@@@2@0@Z 10032d80 f i BuildOrderQueue.obj
 0001:00031fa0       ??1sentry@?$basic_ostream@DU?$char_traits@D@std@@@std@@QAE@XZ 10032fa0 f i BuildOrderQueue.obj
 0001:00032010       ?_Tidy@?$basic_stringbuf@DU?$char_traits@D@std@@V?$allocator@D@2@@std@@IAEXXZ 10033010 f i BuildOrderQueue.obj
 0001:000320b0       ?str@?$basic_stringbuf@DU?$char_traits@D@std@@V?$allocator@D@2@@std@@QBE?AV?$basic_string@DU?$char_traits@D@std@@V?$allocator@D@2@@2@XZ 100330b0 f i BuildOrderQueue.obj
 0001:00032160       ?_Xlen@?$deque@UBuildOrderItem@UAlbertaBot@@V?$allocator@UBuildOrderItem@UAlbertaBot@@@std@@@std@@IBEXXZ 10033160 f i BuildOrderQueue.obj
 0001:00032170       ??1_Sentry_base@?$basic_istream@DU?$char_traits@D@std@@@std@@QAE@XZ 10033170 f i GameRecord.obj
 0001:00032170       ??1_Sentry_base@?$basic_ostream@DU?$char_traits@D@std@@@std@@QAE@XZ 10033170 f i BuildOrderQueue.obj
 0001:000321c0       ??$?6U?$char_traits@D@std@@@std@@YAAAV?$basic_ostream@DU?$char_traits@D@std@@@0@AAV10@PBD@Z 100331c0 f i BuildOrderQueue.obj
 0001:00032400       ??$?6U?$char_traits@D@std@@@std@@YAAAV?$basic_ostream@DU?$char_traits@D@std@@@0@AAV10@D@Z 10033400 f i BuildOrderQueue.obj
 0001:00032609       ??_E?$basic_stringstream@DU?$char_traits@D@std@@V?$allocator@D@2@@std@@$4PPPPPPPM@A@AEPAXI@Z 10033609 f i BuildOrderQueue.obj
 0001:00032620       ?analyzeForEnemies@CombatSimulation@UAlbertaBot@@ABE?AW4CombatSimEnemies@2@ABVUnitset@BWAPI@@@Z 10033620 f   CombatSimulation.obj
 0001:000327d0       ?includeEnemy@CombatSimulation@UAlbertaBot@@ABE_NW4CombatSimEnemies@2@VUnitType@BWAPI@@@Z 100337d0 f   CombatSimulation.obj
 0001:00032890       ?getClosestEnemyCombatUnit@CombatSimulation@UAlbertaBot@@ABE?AV?$Point@H$00@BWAPI@@ABV34@H@Z 10033890 f   CombatSimulation.obj
 0001:00032a20       ?setCombatUnits@CombatSimulation@UAlbertaBot@@QAEXABVUnitset@BWAPI@@ABV?$Point@H$00@4@H_N@Z 10033a20 f   CombatSimulation.obj
 0001:000335c0       ??$_Copy@U_Copy_tag@?$_Tree@V?$_Tmap_traits@VUnitType@BWAPI@@HU?$less@VUnitType@BWAPI@@@std@@V?$allocator@U?$pair@$$CBVUnitType@BWAPI@@H@std@@@4@$0A@@std@@@std@@@?$_Tree@V?$_Tmap_traits@VUnitType@BWAPI@@HU?$less@VUnitType@BWAPI@@@std@@V?$allocator@U?$pair@$$CBVUnitType@BWAPI@@H@std@@@4@$0A@@std@@@std@@IAEXABV01@U_Copy_tag@01@@Z 100345c0 f i CombatSimulation.obj
 0001:00033640       ??$_Copy_nodes@U_Copy_tag@?$_Tree@V?$_Tmap_traits@VUnitType@BWAPI@@HU?$less@VUnitType@BWAPI@@@std@@V?$allocator@U?$pair@$$CBVUnitType@BWAPI@@H@std@@@4@$0A@@std@@@std@@@?$_Tree@V?$_Tmap_traits@VUnitType@BWAPI@@HU?$less@VUnitType@BWAPI@@@std@@V?$allocator@U?$pair@$$CBVUnitType@BWAPI@@H@std@@@4@$0A@@std@@@std@@IAEPAU?$_Tree_node@U?$pair@$$CBVUnitType@BWAPI@@H@std@@PAX@1@PAU21@0U_Copy_tag@01@@Z 10034640 f i CombatSimulation.obj
 0001:00033640       ??$_Copy_nodes@U_Copy_tag@?$_Tree@V?$_Tmap_traits@PAVUnitInterface@BWAPI@@_NU?$less@PAVUnitInterface@BWAPI@@@std@@V?$allocator@U?$pair@QAVUnitInterface@BWAPI@@_N@std@@@4@$0A@@std@@@std@@@?$_Tree@V?$_Tmap_traits@PAVUnitInterface@BWAPI@@_NU?$less@PAVUnitInterface@BWAPI@@@std@@V?$allocator@U?$pair@QAVUnitInterface@BWAPI@@_N@std@@@4@$0A@@std@@@std@@IAEPAU?$_Tree_node@U?$pair@QAVUnitInterface@BWAPI@@_N@std@@PAX@1@PAU21@0U_Copy_tag@01@@Z 10034640 f i SquadData.obj
 0001:00033700       ??$_Buynode@ABV?$Point@H$0CA@@BWAPI@@@?$_Tree_comp_alloc@V?$_Tset_traits@V?$Point@H$0CA@@BWAPI@@U?$less@V?$Point@H$0CA@@BWAPI@@@std@@V?$allocator@V?$Point@H$0CA@@BWAPI@@@4@$0A@@std@@@std@@QAEPAU?$_Tree_node@V?$Point@H$0CA@@BWAPI@@PAX@1@ABV?$Point@H$0CA@@BWAPI@@@Z 10034700 f i MicroOverlords.obj
 0001:00033700       ??$_Buynode@AAU?$pair@$$CBVUnitType@BWAPI@@H@std@@@?$_Tree_comp_alloc@V?$_Tmap_traits@VUnitType@BWAPI@@HU?$less@VUnitType@BWAPI@@@std@@V?$allocator@U?$pair@$$CBVUnitType@BWAPI@@H@std@@@4@$0A@@std@@@std@@QAEPAU?$_Tree_node@U?$pair@$$CBVUnitType@BWAPI@@H@std@@PAX@1@AAU?$pair@$$CBVUnitType@BWAPI@@H@1@@Z 10034700 f i CombatSimulation.obj
 0001:00033700       ??$_Buynode@AAU?$pair@QAVUnitInterface@BWAPI@@_N@std@@@?$_Tree_comp_alloc@V?$_Tmap_traits@PAVUnitInterface@BWAPI@@_NU?$less@PAVUnitInterface@BWAPI@@@std@@V?$allocator@U?$pair@QAVUnitInterface@BWAPI@@_N@std@@@4@$0A@@std@@@std@@QAEPAU?$_Tree_node@U?$pair@QAVUnitInterface@BWAPI@@_N@std@@PAX@1@AAU?$pair@QAVUnitInterface@BWAPI@@_N@1@@Z 10034700 f i SquadData.obj
 0001:00033700       ??$_Buynode@U?$pair@VUnitType@BWAPI@@H@std@@@?$_Tree_comp_alloc@V?$_Tmap_traits@VUnitType@BWAPI@@HU?$less@VUnitType@BWAPI@@@std@@V?$allocator@U?$pair@$$CBVUnitType@BWAPI@@H@std@@@4@$0A@@std@@@std@@QAEPAU?$_Tree_node@U?$pair@$$CBVUnitType@BWAPI@@H@std@@PAX@1@$$QAU?$pair@VUnitType@BWAPI@@H@1@@Z 10034700 f i SkillUnitTimings.obj
 0001:00033720       ?enemyRace@The@UAlbertaBot@@QBE?AVRace@BWAPI@@XZ 10034720 f i CombatCommander.obj
 0001:00033750       ??1SquadData@UAlbertaBot@@QAE@XZ 10034750 f i CombatCommander.obj
 0001:00033780       ?update@CombatCommander@UAlbertaBot@@QAEXABVUnitset@BWAPI@@@Z 10034780 f   CombatCommander.obj
 0001:00033b80       ?loadOrUnloadBunkers@CombatCommander@UAlbertaBot@@AAEXXZ 10034b80 f   CombatCommander.obj
 0001:00034180       ?NEAT_CreateSquads@CombatCommander@UAlbertaBot@@QAEXXZ 10035180 f   CombatCommander.obj
 0001:000345d0       ?NEAT_SetSquadOrder@CombatCommander@UAlbertaBot@@QAEXW4SquadOrderTypes@2@HV?$Point@H$0CA@@BWAPI@@@Z 100355d0 f   CombatCommander.obj
 0001:000347f0       ?Instance@CombatCommander@UAlbertaBot@@SAAAV12@XZ 100357f0 f   CombatCommander.obj
 0001:00034980       ??8?$Point@H$00@BWAPI@@QBE_NABV01@@Z 10035980 f i CombatCommander.obj
 0001:000349a0       ?append@?$basic_string@DU?$char_traits@D@std@@V?$allocator@D@2@@std@@QAEAAV12@ABV12@@Z 100359a0 f i CombatCommander.obj
 0001:00034a20       ??0?$basic_string@DU?$char_traits@D@std@@V?$allocator@D@2@@std@@QAE@XZ 10035a20 f i CombatCommander.obj
 0001:00034a40       ?erase@?$_Tree@V?$_Tmap_traits@W4LurkerTactic@UAlbertaBot@@ULurkerState@2@U?$less@W4LurkerTactic@UAlbertaBot@@@std@@V?$allocator@U?$pair@$$CBW4LurkerTactic@UAlbertaBot@@ULurkerState@2@@std@@@5@$0A@@std@@@std@@QAE?AV?$_Tree_iterator@V?$_Tree_val@U?$_Tree_simple_types@U?$pair@$$CBW4LurkerTactic@UAlbertaBot@@ULurkerState@2@@std@@@std@@@std@@@2@V?$_Tree_const_iterator@V?$_Tree_val@U?$_Tree_simple_types@U?$pair@$$CBW4LurkerTactic@UAlbertaBot@@ULurkerState@2@@std@@@std@@@std@@@2@0@Z 10035a40 f i CombatCommander.obj
 0001:00034b90       ?erase@?$_Tree@V?$_Tmap_traits@V?$basic_string@DU?$char_traits@D@std@@V?$allocator@D@2@@std@@VSquad@UAlbertaBot@@U?$less@V?$basic_string@DU?$char_traits@D@std@@V?$allocator@D@2@@std@@@2@V?$allocator@U?$pair@$$CBV?$basic_string@DU?$char_traits@D@std@@V?$allocator@D@2@@std@@VSquad@UAlbertaBot@@@std@@@2@$0A@@std@@@std@@QAE?AV?$_Tree_iterator@V?$_Tree_val@U?$_Tree_simple_types@U?$pair@$$CBV?$basic_string@DU?$char_traits@D@std@@V?$allocator@D@2@@std@@VSquad@UAlbertaBot@@@std@@@std@@@std@@@2@V?$_Tree_const_iterator@V?$_Tree_val@U?$_Tree_simple_types@U?$pair@$$CBV?$basic_string@DU?$char_traits@D@std@@V?$allocator@D@2@@std@@VSquad@UAlbertaBot@@@std@@@std@@@std@@@2@0@Z 10035b90 f i CombatCommander.obj
 0001:00034c80       ?_Extract@?$_Tree_val@U?$_Tree_simple_types@U?$pair@$$CBV?$basic_string@DU?$char_traits@D@std@@V?$allocator@D@2@@std@@UStrategy@UAlbertaBot@@@std@@@std@@@std@@QAEPAU?$_Tree_node@U?$pair@$$CBV?$basic_string@DU?$char_traits@D@std@@V?$allocator@D@2@@std@@UStrategy@UAlbertaBot@@@std@@PAX@2@V?$_Tree_const_iterator@V?$_Tree_val@U?$_Tree_simple_types@U?$pair@$$CBV?$basic_string@DU?$char_traits@D@std@@V?$allocator@D@2@@std@@UStrategy@UAlbertaBot@@@std@@@std@@@std@@@2@@Z 10035c80 f i StrategyManager.obj
 0001:00034c80       ?_Extract@?$_Tree_val@U?$_Tree_simple_types@U?$pair@$$CBW4LurkerTactic@UAlbertaBot@@ULurkerState@2@@std@@@std@@@std@@QAEPAU?$_Tree_node@U?$pair@$$CBW4LurkerTactic@UAlbertaBot@@ULurkerState@2@@std@@PAX@2@V?$_Tree_const_iterator@V?$_Tree_val@U?$_Tree_simple_types@U?$pair@$$CBW4LurkerTactic@UAlbertaBot@@ULurkerState@2@@std@@@std@@@std@@@2@@Z 10035c80 f i CombatCommander.obj
 0001:00034c80       ?_Extract@?$_Tree_val@U?$_Tree_simple_types@U?$pair@$$CBV?$basic_string@DU?$char_traits@D@std@@V?$allocator@D@2@@std@@VUnitType@BWAPI@@@std@@@std@@@std@@QAEPAU?$_Tree_node@U?$pair@$$CBV?$basic_string@DU?$char_traits@D@std@@V?$allocator@D@2@@std@@VUnitType@BWAPI@@@std@@PAX@2@V?$_Tree_const_iterator@V?$_Tree_val@U?$_Tree_simple_types@U?$pair@$$CBV?$basic_string@DU?$char_traits@D@std@@V?$allocator@D@2@@std@@VUnitType@BWAPI@@@std@@@std@@@std@@@2@@Z 10035c80 f i MacroAct.obj
 0001:00034c80       ?_Extract@?$_Tree_val@U?$_Tree_simple_types@PAVZone@UAlbertaBot@@@std@@@std@@QAEPAU?$_Tree_node@PAVZone@UAlbertaBot@@PAX@2@V?$_Tree_const_iterator@V?$_Tree_val@U?$_Tree_simple_types@PAVZone@UAlbertaBot@@@std@@@std@@@2@@Z 10035c80 f i GridZone.obj
 0001:000350c0       ?_Erase@?$_Tree@V?$_Tmap_traits@W4LurkerTactic@UAlbertaBot@@ULurkerState@2@U?$less@W4LurkerTactic@UAlbertaBot@@@std@@V?$allocator@U?$pair@$$CBW4LurkerTactic@UAlbertaBot@@ULurkerState@2@@std@@@5@$0A@@std@@@std@@IAEXPAU?$_Tree_node@U?$pair@$$CBW4LurkerTactic@UAlbertaBot@@ULurkerState@2@@std@@PAX@2@@Z 100360c0 f i CombatCommander.obj
 0001:00035110       ?_Extract@?$_Tree_val@U?$_Tree_simple_types@U?$pair@QAVUnitInterface@BWAPI@@UUnitInfo@UAlbertaBot@@@std@@@std@@@std@@QAEPAU?$_Tree_node@U?$pair@QAVUnitInterface@BWAPI@@UUnitInfo@UAlbertaBot@@@std@@PAX@2@V?$_Tree_const_iterator@V?$_Tree_val@U?$_Tree_simple_types@U?$pair@QAVUnitInterface@BWAPI@@UUnitInfo@UAlbertaBot@@@std@@@std@@@std@@@2@@Z 10036110 f i InformationManager.obj
 0001:00035110       ?_Extract@?$_Tree_val@U?$_Tree_simple_types@U?$pair@QAVUnitInterface@BWAPI@@H@std@@@std@@@std@@QAEPAU?$_Tree_node@U?$pair@QAVUnitInterface@BWAPI@@H@std@@PAX@2@V?$_Tree_const_iterator@V?$_Tree_val@U?$_Tree_simple_types@U?$pair@QAVUnitInterface@BWAPI@@H@std@@@std@@@std@@@2@@Z 10036110 f i WorkerData.obj
 0001:00035110       ?_Extract@?$_Tree_val@U?$_Tree_simple_types@U?$pair@$$CBV?$basic_string@DU?$char_traits@D@std@@V?$allocator@D@2@@std@@VSquad@UAlbertaBot@@@std@@@std@@@std@@QAEPAU?$_Tree_node@U?$pair@$$CBV?$basic_string@DU?$char_traits@D@std@@V?$allocator@D@2@@std@@VSquad@UAlbertaBot@@@std@@PAX@2@V?$_Tree_const_iterator@V?$_Tree_val@U?$_Tree_simple_types@U?$pair@$$CBV?$basic_string@DU?$char_traits@D@std@@V?$allocator@D@2@@std@@VSquad@UAlbertaBot@@@std@@@std@@@std@@@2@@Z 10036110 f i CombatCommander.obj
 0001:00035110       ?_Extract@?$_Tree_val@U?$_Tree_simple_types@U?$pair@QAVUnitInterface@BWAPI@@PAV12@@std@@@std@@@std@@QAEPAU?$_Tree_node@U?$pair@QAVUnitInterface@BWAPI@@PAV12@@std@@PAX@2@V?$_Tree_const_iterator@V?$_Tree_val@U?$_Tree_simple_types@U?$pair@QAVUnitInterface@BWAPI@@PAV12@@std@@@std@@@std@@@2@@Z 10036110 f i MicroMutas.obj
 0001:00035500       ?_Erase@?$_Tree@V?$_Tmap_traits@V?$basic_string@DU?$char_traits@D@std@@V?$allocator@D@2@@std@@VSquad@UAlbertaBot@@U?$less@V?$basic_string@DU?$char_traits@D@std@@V?$allocator@D@2@@std@@@2@V?$allocator@U?$pair@$$CBV?$basic_string@DU?$char_traits@D@std@@V?$allocator@D@2@@std@@VSquad@UAlbertaBot@@@std@@@2@$0A@@std@@@std@@IAEXPAU?$_Tree_node@U?$pair@$$CBV?$basic_string@DU?$char_traits@D@std@@V?$allocator@D@2@@std@@VSquad@UAlbertaBot@@@std@@PAX@2@@Z 10036500 f i CombatCommander.obj
 0001:00035560       ??$?HDU?$char_traits@D@std@@V?$allocator@D@1@@std@@YA?AV?$basic_string@DU?$char_traits@D@std@@V?$allocator@D@2@@0@QBDABV10@@Z 10036560 f i CombatCommander.obj
 0001:00035600       ??1?$pair@$$CBV?$basic_string@DU?$char_traits@D@std@@V?$allocator@D@2@@std@@VSquad@UAlbertaBot@@@std@@QAE@XZ 10036600 f i CombatCommander.obj
 0001:00035660       ?reserve@?$basic_string@DU?$char_traits@D@std@@V?$allocator@D@2@@std@@QAEXI@Z 10036660 f i CombatCommander.obj
 0001:00035800       ??$_UIntegral_to_buff@DI@std@@YAPADPADI@Z 10036800 f i CombatCommander.obj
 0001:00035830       ??$_Traits_equal@U?$char_traits@D@std@@@std@@YA_NQBDI0I@Z 10036830 f i CombatCommander.obj
 0001:000358a0       ?_Delete_this@?$_Func_impl_no_alloc@V?$UnaryFilter@PAVUnitInterface@BWAPI@@P6A_NPAV12@@Z@BWAPI@@_NPAVUnitInterface@2@@std@@EAEX_N@Z 100368a0 f i CombatCommander.obj
 0001:000358a0       ?_Delete_this@?$_Func_impl_no_alloc@P6ANABV?$vector@NV?$allocator@N@std@@@std@@@ZNABV12@@std@@EAEX_N@Z 100368a0 f i NodeEval.obj
 0001:000358a0       ?_Delete_this@?$_Func_impl_no_alloc@P6ANN@ZNN@std@@EAEX_N@Z 100368a0 f i NodeEval.obj
 0001:000358a0       ?_Delete_this@?$_Func_impl_no_alloc@P6ANV?$vector@NV?$allocator@N@std@@@std@@@ZNABV12@@std@@EAEX_N@Z 100368a0 f i NodeEval.obj
 0001:000358a0       ?_Delete_this@?$_Func_impl_no_alloc@V<lambda_a2cf48cc0ad720342f05725db62c6909>@@_NPAVUnitInterface@BWAPI@@@std@@EAEX_N@Z 100368a0 f i MicroDefilers.obj
 0001:000358c0       ?_Target_type@?$_Func_impl_no_alloc@V?$UnaryFilter@PAVUnitInterface@BWAPI@@P6A_NPAV12@@Z@BWAPI@@_NPAVUnitInterface@2@@std@@EBEABVtype_info@@XZ 100368c0 f i CombatCommander.obj
 0001:000358d0       ?_Copy@?$_Func_impl_no_alloc@V?$UnaryFilter@PAVUnitInterface@BWAPI@@P6A_NPAV12@@Z@BWAPI@@_NPAVUnitInterface@2@@std@@EBEPAV?$_Func_base@_NPAVUnitInterface@BWAPI@@@2@PAX@Z 100368d0 f i CombatCommander.obj
 0001:000358d0       ?_Move@?$_Func_impl_no_alloc@V?$UnaryFilter@PAVUnitInterface@BWAPI@@P6A_NPAV12@@Z@BWAPI@@_NPAVUnitInterface@2@@std@@EAEPAV?$_Func_base@_NPAVUnitInterface@BWAPI@@@2@PAX@Z 100368d0 f i CombatCommander.obj
 0001:000358f0       ?_Do_call@?$_Func_impl_no_alloc@V?$UnaryFilter@PAVUnitInterface@BWAPI@@P6A_NPAV12@@Z@BWAPI@@_NPAVUnitInterface@2@@std@@EAE_N$$QAPAVUnitInterface@BWAPI@@@Z 100368f0 f i CombatCommander.obj
 0001:00035910       ?Intersection@@YA?AVUnitset@BWAPI@@ABV12@0@Z 10036910 f   Common.obj
 0001:00035a00       ?GetIntFromString@@YAHABV?$basic_string@DU?$char_traits@D@std@@V?$allocator@D@2@@std@@@Z 10036a00 f   Common.obj
 0001:00035ad0       ?TrimRaceName@@YA?AV?$basic_string@DU?$char_traits@D@std@@V?$allocator@D@2@@std@@ABV12@@Z 10036ad0 f   Common.obj
 0001:00035d80       ?UnitTypeName@@YA?AV?$basic_string@DU?$char_traits@D@std@@V?$allocator@D@2@@std@@VUnitType@BWAPI@@@Z 10036d80 f   Common.obj
 0001:00035ea0       ?DistanceAndDirection@@YA?AV?$Point@H$00@BWAPI@@ABV12@0H@Z 10036ea0 f   Common.obj
 0001:00035f60       ?PredictMovement@@YA?AV?$Point@H$00@BWAPI@@PAVUnitInterface@2@H@Z 10036f60 f   Common.obj
 0001:00036070       ?contains@?$SetContainer@PAVUnitInterface@BWAPI@@U?$hash@PAX@std@@@BWAPI@@QBE_NABQAVUnitInterface@2@@Z 10037070 f i Common.obj
 0001:00036150       ?substr@?$basic_string@DU?$char_traits@D@std@@V?$allocator@D@2@@std@@QBE?AV12@II@Z 10037150 f i Common.obj
 0001:000361a0       ??0?$basic_stringstream@DU?$char_traits@D@std@@V?$allocator@D@2@@std@@QAE@ABV?$basic_string@DU?$char_traits@D@std@@V?$allocator@D@2@@1@H@Z 100371a0 f i Common.obj
 0001:00036250       ??0?$basic_string@DU?$char_traits@D@std@@V?$allocator@D@2@@std@@QAE@ABV01@IIABV?$allocator@D@1@@Z 10037250 f i Common.obj
 0001:000362a0       ??0?$basic_stringbuf@DU?$char_traits@D@std@@V?$allocator@D@2@@std@@QAE@ABV?$basic_string@DU?$char_traits@D@std@@V?$allocator@D@2@@1@H@Z 100372a0 f i Common.obj
 0001:00036340       ?_Init@?$basic_stringbuf@DU?$char_traits@D@std@@V?$allocator@D@2@@std@@IAEXPBDIH@Z 10037340 f i Common.obj
 0001:00036440       ?_Xran@?$_String_val@U?$_Simple_types@D@std@@@std@@SAXXZ 10037440 f i Common.obj
 0001:00036450       ___local_stdio_printf_options 10037450 f i db.obj
 0001:00036460       __vfprintf_l               10037460 f i db.obj
 0001:00036490       _fprintf                   10037490 f i db.obj
 0001:000364b0       _vsnprintf                 100374b0 f i db.obj
 0001:000364f0       _snprintf                  100374f0 f i db.obj
 0001:00036510       ??0exception@std@@QAE@QBD@Z 10037510 f i db.obj
 0001:00036550       ??0exception@std@@QAE@ABV01@@Z 10037550 f i db.obj
 0001:00036580       ??1bad_cast@std@@UAE@XZ    10037580 f i Logger.obj
 0001:00036580       ??1overflow_error@std@@UAE@XZ 10037580 f i NEATCommander.obj
 0001:00036580       ??1game_record_read_error@@UAE@XZ 10037580 f i GameRecord.obj
 0001:00036580       ??1exception@std@@UAE@XZ   10037580 f i db.obj
 0001:00036580       ??1invalid_argument@std@@UAE@XZ 10037580 f i NEATCommander.obj
 0001:000365a0       ?what@exception@std@@UBEPBDXZ 100375a0 f i db.obj
 0001:000365b0       ??_Glogic_error@std@@UAEPAXI@Z 100375b0 f i NEATCommander.obj
 0001:000365b0       ??_Gruntime_error@std@@UAEPAXI@Z 100375b0 f i db.obj
 0001:000365b0       ??_Einvalid_argument@std@@UAEPAXI@Z 100375b0 f i * CIL library *:* CIL module *
 0001:000365b0       ??_Egame_record_read_error@@UAEPAXI@Z 100375b0 f i * CIL library *:* CIL module *
 0001:000365b0       ??_Eruntime_error@std@@UAEPAXI@Z 100375b0 f i * CIL library *:* CIL module *
 0001:000365b0       ??_Goverflow_error@std@@UAEPAXI@Z 100375b0 f i NEATCommander.obj
 0001:000365b0       ??_Gexception@std@@UAEPAXI@Z 100375b0 f i db.obj
 0001:000365b0       ??_Ebad_cast@std@@UAEPAXI@Z 100375b0 f i * CIL library *:* CIL module *
 0001:000365b0       ??_Ginvalid_argument@std@@UAEPAXI@Z 100375b0 f i NEATCommander.obj
 0001:000365b0       ??_Eoverflow_error@std@@UAEPAXI@Z 100375b0 f i * CIL library *:* CIL module *
 0001:000365b0       ??_Gbad_cast@std@@UAEPAXI@Z 100375b0 f i Logger.obj
 0001:000365b0       ??_Ggame_record_read_error@@UAEPAXI@Z 100375b0 f i GameRecord.obj
 0001:000365b0       ??_Eexception@std@@UAEPAXI@Z 100375b0 f i * CIL library *:* CIL module *
 0001:000365b0       ??_Elogic_error@std@@UAEPAXI@Z 100375b0 f i * CIL library *:* CIL module *
 0001:000365f0       ??0runtime_error@std@@QAE@ABV01@@Z 100375f0 f i db.obj
 0001:00036630       ?to_string@std@@YA?AV?$basic_string@DU?$char_traits@D@std@@V?$allocator@D@2@@1@I@Z 10037630 f i db.obj
 0001:00036690       ?what@exception@detail@json_abi_v3_11_3@nlohmann@@UBEPBDXZ 10037690 f i db.obj
 0001:000366d0       ?name@exception@detail@json_abi_v3_11_3@nlohmann@@KA?AV?$basic_string@DU?$char_traits@D@std@@V?$allocator@D@2@@std@@ABV56@H@Z 100376d0 f i db.obj
 0001:00036810       ??_Eother_error@detail@json_abi_v3_11_3@nlohmann@@UAEPAXI@Z 10037810 f i * CIL library *:* CIL module *
 0001:00036810       ??_Gtype_error@detail@json_abi_v3_11_3@nlohmann@@UAEPAXI@Z 10037810 f i db.obj
 0001:00036810       ??_Gother_error@detail@json_abi_v3_11_3@nlohmann@@UAEPAXI@Z 10037810 f i db.obj
 0001:00036810       ??_Gout_of_range@detail@json_abi_v3_11_3@nlohmann@@UAEPAXI@Z 10037810 f i db.obj
 0001:00036810       ??_Eout_of_range@detail@json_abi_v3_11_3@nlohmann@@UAEPAXI@Z 10037810 f i * CIL library *:* CIL module *
 0001:00036810       ??_Gexception@detail@json_abi_v3_11_3@nlohmann@@UAEPAXI@Z 10037810 f i db.obj
 0001:00036810       ??_Etype_error@detail@json_abi_v3_11_3@nlohmann@@UAEPAXI@Z 10037810 f i * CIL library *:* CIL module *
 0001:00036810       ??_Ginvalid_iterator@detail@json_abi_v3_11_3@nlohmann@@UAEPAXI@Z 10037810 f i db.obj
 0001:00036810       ??_Eexception@detail@json_abi_v3_11_3@nlohmann@@UAEPAXI@Z 10037810 f i * CIL library *:* CIL module *
 0001:00036810       ??_Einvalid_iterator@detail@json_abi_v3_11_3@nlohmann@@UAEPAXI@Z 10037810 f i * CIL library *:* CIL module *
 0001:00036860       ??1out_of_range@detail@json_abi_v3_11_3@nlohmann@@UAE@XZ 10037860 f i db.obj
 0001:00036860       ??1invalid_iterator@detail@json_abi_v3_11_3@nlohmann@@UAE@XZ 10037860 f i db.obj
 0001:00036860       ??1other_error@detail@json_abi_v3_11_3@nlohmann@@UAE@XZ 10037860 f i db.obj
 0001:00036860       ??1type_error@detail@json_abi_v3_11_3@nlohmann@@UAE@XZ 10037860 f i db.obj
 0001:00036860       ??1exception@detail@json_abi_v3_11_3@nlohmann@@UAE@XZ 10037860 f i db.obj
 0001:00036860       ??1parse_error@detail@json_abi_v3_11_3@nlohmann@@UAE@XZ 10037860 f i db.obj
 0001:00036890       ?position_string@parse_error@detail@json_abi_v3_11_3@nlohmann@@CA?AV?$basic_string@DU?$char_traits@D@std@@V?$allocator@D@2@@std@@ABUposition_t@234@@Z 10037890 f i db.obj
 0001:00036a20       ??_Eparse_error@detail@json_abi_v3_11_3@nlohmann@@UAEPAXI@Z 10037a20 f i * CIL library *:* CIL module *
 0001:00036a20       ??_Gparse_error@detail@json_abi_v3_11_3@nlohmann@@UAEPAXI@Z 10037a20 f i db.obj
 0001:00036a70       ?now@steady_clock@chrono@std@@SA?AV?$time_point@Usteady_clock@chrono@std@@V?$duration@_JU?$ratio@$00$0DLJKMKAA@@std@@@23@@23@XZ 10037a70 f i db.obj
 0001:00036af0       ?mul@diyfp@dtoa_impl@detail@json_abi_v3_11_3@nlohmann@@SA?AU12345@ABU12345@0@Z 10037af0 f i db.obj
 0001:00036ba0       ?grisu2_round@dtoa_impl@detail@json_abi_v3_11_3@nlohmann@@YAXPADH_K111@Z 10037ba0 f i db.obj
 0001:00036c50       ?grisu2_digit_gen@dtoa_impl@detail@json_abi_v3_11_3@nlohmann@@YAXPADAAH1Udiyfp@1234@22@Z 10037c50 f i db.obj
 0001:00036f10       ?format_buffer@dtoa_impl@detail@json_abi_v3_11_3@nlohmann@@YAPADPADHHHH@Z 10037f10 f i db.obj
 0001:00037080       ??1DBKeySpace@@QAE@XZ      10038080 f i db.obj
 0001:00037080       ??1?$vector@V?$basic_string@DU?$char_traits@D@std@@V?$allocator@D@2@@std@@V?$allocator@V?$basic_string@DU?$char_traits@D@std@@V?$allocator@D@2@@std@@@2@@std@@QAE@XZ 10038080 f i db.obj
 0001:00037090       ?sendData@DBConnector@@QAEXPBDW4KEYSPACEPOLICIES@@@Z 10038090 f   db.obj
 0001:00037310       ?getData@DBConnector@@QAE_NPBDAAV?$basic_json@Vmap@std@@Vvector@2@V?$basic_string@DU?$char_traits@D@std@@V?$allocator@D@2@@2@_N_J_KNVallocator@2@Uadl_serializer@json_abi_v3_11_3@nlohmann@@V?$vector@EV?$allocator@E@std@@@2@X@json_abi_v3_11_3@nlohmann@@@Z 10038310 f   db.obj
 0001:00037800       ?dataCallback@DBConnector@@CAIPADIIPAX@Z 10038800 f   db.obj
 0001:00037850       ??0?$vector@V?$basic_string@DU?$char_traits@D@std@@V?$allocator@D@2@@std@@V?$allocator@V?$basic_string@DU?$char_traits@D@std@@V?$allocator@D@2@@std@@@2@@std@@QAE@ABV01@@Z 10038850 f i db.obj
 0001:00037990       ??6json_abi_v3_11_3@nlohmann@@YAAAV?$basic_ostream@DU?$char_traits@D@std@@@std@@AAV23@ABV?$basic_json@Vmap@std@@Vvector@2@V?$basic_string@DU?$char_traits@D@std@@V?$allocator@D@2@@2@_N_J_KNVallocator@2@Uadl_serializer@json_abi_v3_11_3@nlohmann@@V?$vector@EV?$allocator@E@std@@@2@X@01@@Z 10038990 f i db.obj
 0001:00037b20       ?end@?$basic_json@Vmap@std@@Vvector@2@V?$basic_string@DU?$char_traits@D@std@@V?$allocator@D@2@@2@_N_J_KNVallocator@2@Uadl_serializer@json_abi_v3_11_3@nlohmann@@V?$vector@EV?$allocator@E@std@@@2@X@json_abi_v3_11_3@nlohmann@@QAE?AV?$iter_impl@V?$basic_json@Vmap@std@@Vvector@2@V?$basic_string@DU?$char_traits@D@std@@V?$allocator@D@2@@2@_N_J_KNVallocator@2@Uadl_serializer@json_abi_v3_11_3@nlohmann@@V?$vector@EV?$allocator@E@std@@@2@X@json_abi_v3_11_3@nlohmann@@@detail@23@XZ 10038b20 f i db.obj
 0001:00037ba0       ??A?$basic_json@Vmap@std@@Vvector@2@V?$basic_string@DU?$char_traits@D@std@@V?$allocator@D@2@@2@_N_J_KNVallocator@2@Uadl_serializer@json_abi_v3_11_3@nlohmann@@V?$vector@EV?$allocator@E@std@@@2@X@json_abi_v3_11_3@nlohmann@@QAEAAV012@V?$basic_string@DU?$char_traits@D@std@@V?$allocator@D@2@@std@@@Z 10038ba0 f i db.obj
 0001:00037ce0       ??A?$basic_json@Vmap@std@@Vvector@2@V?$basic_string@DU?$char_traits@D@std@@V?$allocator@D@2@@2@_N_J_KNVallocator@2@Uadl_serializer@json_abi_v3_11_3@nlohmann@@V?$vector@EV?$allocator@E@std@@@2@X@json_abi_v3_11_3@nlohmann@@QAEAAV012@I@Z 10038ce0 f i db.obj
 0001:00037dc0       ?dump@?$basic_json@Vmap@std@@Vvector@2@V?$basic_string@DU?$char_traits@D@std@@V?$allocator@D@2@@2@_N_J_KNVallocator@2@Uadl_serializer@json_abi_v3_11_3@nlohmann@@V?$vector@EV?$allocator@E@std@@@2@X@json_abi_v3_11_3@nlohmann@@QBE?AV?$basic_string@DU?$char_traits@D@std@@V?$allocator@D@2@@std@@HD_NW4error_handler_t@detail@23@@Z 10038dc0 f i db.obj
 0001:00037f20       ??1?$basic_json@Vmap@std@@Vvector@2@V?$basic_string@DU?$char_traits@D@std@@V?$allocator@D@2@@2@_N_J_KNVallocator@2@Uadl_serializer@json_abi_v3_11_3@nlohmann@@V?$vector@EV?$allocator@E@std@@@2@X@json_abi_v3_11_3@nlohmann@@QAE@XZ 10038f20 f i db.obj
 0001:00037f70       ??4?$basic_json@Vmap@std@@Vvector@2@V?$basic_string@DU?$char_traits@D@std@@V?$allocator@D@2@@2@_N_J_KNVallocator@2@Uadl_serializer@json_abi_v3_11_3@nlohmann@@V?$vector@EV?$allocator@E@std@@@2@X@json_abi_v3_11_3@nlohmann@@QAEAAV012@V012@@Z 10038f70 f i db.obj
 0001:00037fb0       ?resize@?$basic_string@DU?$char_traits@D@std@@V?$allocator@D@2@@std@@QAEXID@Z 10038fb0 f i db.obj
 0001:00038030       ??1?$output_adapter@DV?$basic_string@DU?$char_traits@D@std@@V?$allocator@D@2@@std@@@detail@json_abi_v3_11_3@nlohmann@@QAE@XZ 10039030 f i db.obj
 0001:000380a0       ??1?$serializer@V?$basic_json@Vmap@std@@Vvector@2@V?$basic_string@DU?$char_traits@D@std@@V?$allocator@D@2@@2@_N_J_KNVallocator@2@Uadl_serializer@json_abi_v3_11_3@nlohmann@@V?$vector@EV?$allocator@E@std@@@2@X@json_abi_v3_11_3@nlohmann@@@detail@json_abi_v3_11_3@nlohmann@@QAE@XZ 100390a0 f i db.obj
 0001:00038160       ??0type_error@detail@json_abi_v3_11_3@nlohmann@@QAE@ABV0123@@Z 10039160 f i db.obj
 0001:00038180       ??0exception@detail@json_abi_v3_11_3@nlohmann@@QAE@ABV0123@@Z 10039180 f i db.obj
 0001:000381e0       ?_Tidy@?$vector@V?$basic_string@DU?$char_traits@D@std@@V?$allocator@D@2@@std@@V?$allocator@V?$basic_string@DU?$char_traits@D@std@@V?$allocator@D@2@@std@@@2@@std@@AAEXXZ 100391e0 f i db.obj
 0001:00038260       ??1data@?$basic_json@Vmap@std@@Vvector@2@V?$basic_string@DU?$char_traits@D@std@@V?$allocator@D@2@@2@_N_J_KNVallocator@2@Uadl_serializer@json_abi_v3_11_3@nlohmann@@V?$vector@EV?$allocator@E@std@@@2@X@json_abi_v3_11_3@nlohmann@@QAE@XZ 10039260 f i db.obj
 0001:000382a0       ??R<lambda_81347dfc5f0aeeb4f702a2105f3e11fc>@@QBEPAV?$basic_json@Vmap@std@@Vvector@2@V?$basic_string@DU?$char_traits@D@std@@V?$allocator@D@2@@2@_N_J_KNVallocator@2@Uadl_serializer@json_abi_v3_11_3@nlohmann@@V?$vector@EV?$allocator@E@std@@@2@X@json_abi_v3_11_3@nlohmann@@PAV123@I@Z 100392a0 f i db.obj
 0001:00038310       ?dump@?$serializer@V?$basic_json@Vmap@std@@Vvector@2@V?$basic_string@DU?$char_traits@D@std@@V?$allocator@D@2@@2@_N_J_KNVallocator@2@Uadl_serializer@json_abi_v3_11_3@nlohmann@@V?$vector@EV?$allocator@E@std@@@2@X@json_abi_v3_11_3@nlohmann@@@detail@json_abi_v3_11_3@nlohmann@@QAEXABV?$basic_json@Vmap@std@@Vvector@2@V?$basic_string@DU?$char_traits@D@std@@V?$allocator@D@2@@2@_N_J_KNVallocator@2@Uadl_serializer@json_abi_v3_11_3@nlohmann@@V?$vector@EV?$allocator@E@std@@@2@X@34@_N1II@Z 10039310 f i db.obj
 0001:00038c10       ??0?$serializer@V?$basic_json@Vmap@std@@Vvector@2@V?$basic_string@DU?$char_traits@D@std@@V?$allocator@D@2@@2@_N_J_KNVallocator@2@Uadl_serializer@json_abi_v3_11_3@nlohmann@@V?$vector@EV?$allocator@E@std@@@2@X@json_abi_v3_11_3@nlohmann@@@detail@json_abi_v3_11_3@nlohmann@@QAE@V?$shared_ptr@U?$output_adapter_protocol@D@detail@json_abi_v3_11_3@nlohmann@@@std@@DW4error_handler_t@123@@Z 10039c10 f i db.obj
 0001:00038e30       ?type_name@?$basic_json@Vmap@std@@Vvector@2@V?$basic_string@DU?$char_traits@D@std@@V?$allocator@D@2@@2@_N_J_KNVallocator@2@Uadl_serializer@json_abi_v3_11_3@nlohmann@@V?$vector@EV?$allocator@E@std@@@2@X@json_abi_v3_11_3@nlohmann@@QBEPBDXZ 10039e30 f i db.obj
 0001:00038ea0       ??0?$basic_json@Vmap@std@@Vvector@2@V?$basic_string@DU?$char_traits@D@std@@V?$allocator@D@2@@2@_N_J_KNVallocator@2@Uadl_serializer@json_abi_v3_11_3@nlohmann@@V?$vector@EV?$allocator@E@std@@@2@X@json_abi_v3_11_3@nlohmann@@QAE@W4value_t@detail@12@@Z 10039ea0 f i db.obj
 0001:00038ff0       ?push_back@?$basic_string@DU?$char_traits@D@std@@V?$allocator@D@2@@std@@QAEXD@Z 10039ff0 f i db.obj
 0001:00039140       ??0parse_error@detail@json_abi_v3_11_3@nlohmann@@QAE@ABV0123@@Z 1003a140 f i db.obj
 0001:00039170       ?write_characters@?$output_stream_adapter@D@detail@json_abi_v3_11_3@nlohmann@@UAEXPBDI@Z 1003a170 f i db.obj
 0001:00039190       ?write_character@?$output_stream_adapter@D@detail@json_abi_v3_11_3@nlohmann@@UAEXD@Z 1003a190 f i db.obj
 0001:000391a0       ?write_characters@?$output_string_adapter@DV?$basic_string@DU?$char_traits@D@std@@V?$allocator@D@2@@std@@@detail@json_abi_v3_11_3@nlohmann@@UAEXPBDI@Z 1003a1a0 f i db.obj
 0001:00039200       ?write_character@?$output_string_adapter@DV?$basic_string@DU?$char_traits@D@std@@V?$allocator@D@2@@std@@@detail@json_abi_v3_11_3@nlohmann@@UAEXD@Z 1003a200 f i db.obj
 0001:00039210       ?_Destroy@?$vector@V?$basic_string@DU?$char_traits@D@std@@V?$allocator@D@2@@std@@V?$allocator@V?$basic_string@DU?$char_traits@D@std@@V?$allocator@D@2@@std@@@2@@std@@AAEXPAV?$basic_string@DU?$char_traits@D@std@@V?$allocator@D@2@@2@0@Z 1003a210 f i db.obj
 0001:00039230       ?deallocate@?$allocator@V?$basic_string@DU?$char_traits@D@std@@V?$allocator@D@2@@std@@@std@@QAEXQAV?$basic_string@DU?$char_traits@D@std@@V?$allocator@D@2@@2@I@Z 1003a230 f i db.obj
 0001:00039270       ?destroy@json_value@?$basic_json@Vmap@std@@Vvector@2@V?$basic_string@DU?$char_traits@D@std@@V?$allocator@D@2@@2@_N_J_KNVallocator@2@Uadl_serializer@json_abi_v3_11_3@nlohmann@@V?$vector@EV?$allocator@E@std@@@2@X@json_abi_v3_11_3@nlohmann@@QAEXW4value_t@detail@34@@Z 1003a270 f i db.obj
 0001:00039650       ?lower_bound@?$_Tree@V?$_Tmap_traits@V?$basic_string@DU?$char_traits@D@std@@V?$allocator@D@2@@std@@V?$basic_json@Vmap@std@@Vvector@2@V?$basic_string@DU?$char_traits@D@std@@V?$allocator@D@2@@2@_N_J_KNVallocator@2@Uadl_serializer@json_abi_v3_11_3@nlohmann@@V?$vector@EV?$allocator@E@std@@@2@X@json_abi_v3_11_3@nlohmann@@U?$less@X@2@V?$allocator@U?$pair@$$CBV?$basic_string@DU?$char_traits@D@std@@V?$allocator@D@2@@std@@V?$basic_json@Vmap@std@@Vvector@2@V?$basic_string@DU?$char_traits@D@std@@V?$allocator@D@2@@2@_N_J_KNVallocator@2@Uadl_serializer@json_abi_v3_11_3@nlohmann@@V?$vector@EV?$allocator@E@std@@@2@X@json_abi_v3_11_3@nlohmann@@@std@@@2@$0A@@std@@@std@@QAE?AV?$_Tree_iterator@V?$_Tree_val@U?$_Tree_simple_types@U?$pair@$$CBV?$basic_string@DU?$char_traits@D@std@@V?$allocator@D@2@@std@@V?$basic_json@Vmap@std@@Vvector@2@V?$basic_string@DU?$char_traits@D@std@@V?$allocator@D@2@@2@_N_J_KNVallocator@2@Uadl_serializer@json_abi_v3_11_3@nlohmann@@V?$vector@EV?$allocator@E@std@@@2@X@json_abi_v3_11_3@nlohmann@@@std@@@std@@@std@@@2@ABV?$basic_string@DU?$char_traits@D@std@@V?$allocator@D@2@@2@@Z 1003a650 f i db.obj
 0001:00039650       ?lower_bound@?$_Tree@V?$_Tmap_traits@V?$basic_string@DU?$char_traits@D@std@@V?$allocator@D@2@@std@@VSquad@UAlbertaBot@@U?$less@V?$basic_string@DU?$char_traits@D@std@@V?$allocator@D@2@@std@@@2@V?$allocator@U?$pair@$$CBV?$basic_string@DU?$char_traits@D@std@@V?$allocator@D@2@@std@@VSquad@UAlbertaBot@@@std@@@2@$0A@@std@@@std@@QAE?AV?$_Tree_iterator@V?$_Tree_val@U?$_Tree_simple_types@U?$pair@$$CBV?$basic_string@DU?$char_traits@D@std@@V?$allocator@D@2@@std@@VSquad@UAlbertaBot@@@std@@@std@@@std@@@2@ABV?$basic_string@DU?$char_traits@D@std@@V?$allocator@D@2@@2@@Z 1003a650 f i SquadData.obj
 0001:000396b0       ?dump_escaped@?$serializer@V?$basic_json@Vmap@std@@Vvector@2@V?$basic_string@DU?$char_traits@D@std@@V?$allocator@D@2@@2@_N_J_KNVallocator@2@Uadl_serializer@json_abi_v3_11_3@nlohmann@@V?$vector@EV?$allocator@E@std@@@2@X@json_abi_v3_11_3@nlohmann@@@detail@json_abi_v3_11_3@nlohmann@@AAEXABV?$basic_string@DU?$char_traits@D@std@@V?$allocator@D@2@@std@@_N@Z 1003a6b0 f i db.obj
 0001:00039b90       ??$emplace_back@V?$basic_json@Vmap@std@@Vvector@2@V?$basic_string@DU?$char_traits@D@std@@V?$allocator@D@2@@2@_N_J_KNVallocator@2@Uadl_serializer@json_abi_v3_11_3@nlohmann@@V?$vector@EV?$allocator@E@std@@@2@X@json_abi_v3_11_3@nlohmann@@@?$vector@V?$basic_json@Vmap@std@@Vvector@2@V?$basic_string@DU?$char_traits@D@std@@V?$allocator@D@2@@2@_N_J_KNVallocator@2@Uadl_serializer@json_abi_v3_11_3@nlohmann@@V?$vector@EV?$allocator@E@std@@@2@X@json_abi_v3_11_3@nlohmann@@V?$allocator@V?$basic_json@Vmap@std@@Vvector@2@V?$basic_string@DU?$char_traits@D@std@@V?$allocator@D@2@@2@_N_J_KNVallocator@2@Uadl_serializer@json_abi_v3_11_3@nlohmann@@V?$vector@EV?$allocator@E@std@@@2@X@json_abi_v3_11_3@nlohmann@@@std@@@std@@QAEAAV?$basic_json@Vmap@std@@Vvector@2@V?$basic_string@DU?$char_traits@D@std@@V?$allocator@D@2@@2@_N_J_KNVallocator@2@Uadl_serializer@json_abi_v3_11_3@nlohmann@@V?$vector@EV?$allocator@E@std@@@2@X@json_abi_v3_11_3@nlohmann@@$$QAV234@@Z 1003ab90 f i db.obj
 0001:00039bf0       ??1?$vector@V?$basic_json@Vmap@std@@Vvector@2@V?$basic_string@DU?$char_traits@D@std@@V?$allocator@D@2@@2@_N_J_KNVallocator@2@Uadl_serializer@json_abi_v3_11_3@nlohmann@@V?$vector@EV?$allocator@E@std@@@2@X@json_abi_v3_11_3@nlohmann@@V?$allocator@V?$basic_json@Vmap@std@@Vvector@2@V?$basic_string@DU?$char_traits@D@std@@V?$allocator@D@2@@2@_N_J_KNVallocator@2@Uadl_serializer@json_abi_v3_11_3@nlohmann@@V?$vector@EV?$allocator@E@std@@@2@X@json_abi_v3_11_3@nlohmann@@@std@@@std@@QAE@XZ 1003abf0 f i db.obj
 0001:00039c00       ?hex_bytes@?$serializer@V?$basic_json@Vmap@std@@Vvector@2@V?$basic_string@DU?$char_traits@D@std@@V?$allocator@D@2@@2@_N_J_KNVallocator@2@Uadl_serializer@json_abi_v3_11_3@nlohmann@@V?$vector@EV?$allocator@E@std@@@2@X@json_abi_v3_11_3@nlohmann@@@detail@json_abi_v3_11_3@nlohmann@@CA?AV?$basic_string@DU?$char_traits@D@std@@V?$allocator@D@2@@std@@E@Z 1003ac00 f i db.obj
 0001:00039c70       ?back@?$basic_string@DU?$char_traits@D@std@@V?$allocator@D@2@@std@@QBEABDXZ 1003ac70 f i db.obj
 0001:00039c90       ??0other_error@detail@json_abi_v3_11_3@nlohmann@@QAE@ABV0123@@Z 1003ac90 f i db.obj
 0001:00039cb0       ?_Erase@?$_Tree@V?$_Tmap_traits@V?$basic_string@DU?$char_traits@D@std@@V?$allocator@D@2@@std@@V?$basic_json@Vmap@std@@Vvector@2@V?$basic_string@DU?$char_traits@D@std@@V?$allocator@D@2@@2@_N_J_KNVallocator@2@Uadl_serializer@json_abi_v3_11_3@nlohmann@@V?$vector@EV?$allocator@E@std@@@2@X@json_abi_v3_11_3@nlohmann@@U?$less@X@2@V?$allocator@U?$pair@$$CBV?$basic_string@DU?$char_traits@D@std@@V?$allocator@D@2@@std@@V?$basic_json@Vmap@std@@Vvector@2@V?$basic_string@DU?$char_traits@D@std@@V?$allocator@D@2@@2@_N_J_KNVallocator@2@Uadl_serializer@json_abi_v3_11_3@nlohmann@@V?$vector@EV?$allocator@E@std@@@2@X@json_abi_v3_11_3@nlohmann@@@std@@@2@$0A@@std@@@std@@IAEXPAU?$_Tree_node@U?$pair@$$CBV?$basic_string@DU?$char_traits@D@std@@V?$allocator@D@2@@std@@V?$basic_json@Vmap@std@@Vvector@2@V?$basic_string@DU?$char_traits@D@std@@V?$allocator@D@2@@2@_N_J_KNVallocator@2@Uadl_serializer@json_abi_v3_11_3@nlohmann@@V?$vector@EV?$allocator@E@std@@@2@X@json_abi_v3_11_3@nlohmann@@@std@@PAX@2@@Z 1003acb0 f i db.obj
 0001:00039d00       ?_Tidy@?$vector@V?$basic_json@Vmap@std@@Vvector@2@V?$basic_string@DU?$char_traits@D@std@@V?$allocator@D@2@@2@_N_J_KNVallocator@2@Uadl_serializer@json_abi_v3_11_3@nlohmann@@V?$vector@EV?$allocator@E@std@@@2@X@json_abi_v3_11_3@nlohmann@@V?$allocator@V?$basic_json@Vmap@std@@Vvector@2@V?$basic_string@DU?$char_traits@D@std@@V?$allocator@D@2@@2@_N_J_KNVallocator@2@Uadl_serializer@json_abi_v3_11_3@nlohmann@@V?$vector@EV?$allocator@E@std@@@2@X@json_abi_v3_11_3@nlohmann@@@std@@@std@@AAEXXZ 1003ad00 f i db.obj
 0001:00039d70       ?_Destroy@?$vector@V?$basic_json@Vmap@std@@Vvector@2@V?$basic_string@DU?$char_traits@D@std@@V?$allocator@D@2@@2@_N_J_KNVallocator@2@Uadl_serializer@json_abi_v3_11_3@nlohmann@@V?$vector@EV?$allocator@E@std@@@2@X@json_abi_v3_11_3@nlohmann@@V?$allocator@V?$basic_json@Vmap@std@@Vvector@2@V?$basic_string@DU?$char_traits@D@std@@V?$allocator@D@2@@2@_N_J_KNVallocator@2@Uadl_serializer@json_abi_v3_11_3@nlohmann@@V?$vector@EV?$allocator@E@std@@@2@X@json_abi_v3_11_3@nlohmann@@@std@@@std@@AAEXPAV?$basic_json@Vmap@std@@Vvector@2@V?$basic_string@DU?$char_traits@D@std@@V?$allocator@D@2@@2@_N_J_KNVallocator@2@Uadl_serializer@json_abi_v3_11_3@nlohmann@@V?$vector@EV?$allocator@E@std@@@2@X@json_abi_v3_11_3@nlohmann@@0@Z 1003ad70 f i db.obj
 0001:00039da0       ?_Reallocate_exactly@?$vector@V?$basic_json@Vmap@std@@Vvector@2@V?$basic_string@DU?$char_traits@D@std@@V?$allocator@D@2@@2@_N_J_KNVallocator@2@Uadl_serializer@json_abi_v3_11_3@nlohmann@@V?$vector@EV?$allocator@E@std@@@2@X@json_abi_v3_11_3@nlohmann@@V?$allocator@V?$basic_json@Vmap@std@@Vvector@2@V?$basic_string@DU?$char_traits@D@std@@V?$allocator@D@2@@2@_N_J_KNVallocator@2@Uadl_serializer@json_abi_v3_11_3@nlohmann@@V?$vector@EV?$allocator@E@std@@@2@X@json_abi_v3_11_3@nlohmann@@@std@@@std@@AAEXI@Z 1003ada0 f i db.obj
 0001:00039e70       ?_Change_array@?$vector@V?$basic_json@Vmap@std@@Vvector@2@V?$basic_string@DU?$char_traits@D@std@@V?$allocator@D@2@@2@_N_J_KNVallocator@2@Uadl_serializer@json_abi_v3_11_3@nlohmann@@V?$vector@EV?$allocator@E@std@@@2@X@json_abi_v3_11_3@nlohmann@@V?$allocator@V?$basic_json@Vmap@std@@Vvector@2@V?$basic_string@DU?$char_traits@D@std@@V?$allocator@D@2@@2@_N_J_KNVallocator@2@Uadl_serializer@json_abi_v3_11_3@nlohmann@@V?$vector@EV?$allocator@E@std@@@2@X@json_abi_v3_11_3@nlohmann@@@std@@@std@@AAEXQAV?$basic_json@Vmap@std@@Vvector@2@V?$basic_string@DU?$char_traits@D@std@@V?$allocator@D@2@@2@_N_J_KNVallocator@2@Uadl_serializer@json_abi_v3_11_3@nlohmann@@V?$vector@EV?$allocator@E@std@@@2@X@json_abi_v3_11_3@nlohmann@@II@Z 1003ae70 f i db.obj
 0001:00039ef0       ?_Umove_if_noexcept@?$vector@V?$basic_json@Vmap@std@@Vvector@2@V?$basic_string@DU?$char_traits@D@std@@V?$allocator@D@2@@2@_N_J_KNVallocator@2@Uadl_serializer@json_abi_v3_11_3@nlohmann@@V?$vector@EV?$allocator@E@std@@@2@X@json_abi_v3_11_3@nlohmann@@V?$allocator@V?$basic_json@Vmap@std@@Vvector@2@V?$basic_string@DU?$char_traits@D@std@@V?$allocator@D@2@@2@_N_J_KNVallocator@2@Uadl_serializer@json_abi_v3_11_3@nlohmann@@V?$vector@EV?$allocator@E@std@@@2@X@json_abi_v3_11_3@nlohmann@@@std@@@std@@AAEXPAV?$basic_json@Vmap@std@@Vvector@2@V?$basic_string@DU?$char_traits@D@std@@V?$allocator@D@2@@2@_N_J_KNVallocator@2@Uadl_serializer@json_abi_v3_11_3@nlohmann@@V?$vector@EV?$allocator@E@std@@@2@X@json_abi_v3_11_3@nlohmann@@00@Z 1003aef0 f i db.obj
 0001:00039f40       ?deallocate@?$allocator@V?$basic_json@Vmap@std@@Vvector@2@V?$basic_string@DU?$char_traits@D@std@@V?$allocator@D@2@@2@_N_J_KNVallocator@2@Uadl_serializer@json_abi_v3_11_3@nlohmann@@V?$vector@EV?$allocator@E@std@@@2@X@json_abi_v3_11_3@nlohmann@@@std@@QAEXQAV?$basic_json@Vmap@std@@Vvector@2@V?$basic_string@DU?$char_traits@D@std@@V?$allocator@D@2@@2@_N_J_KNVallocator@2@Uadl_serializer@json_abi_v3_11_3@nlohmann@@V?$vector@EV?$allocator@E@std@@@2@X@json_abi_v3_11_3@nlohmann@@I@Z 1003af40 f i db.obj
 0001:00039f80       ??$?8V?$iter_impl@V?$basic_json@Vmap@std@@Vvector@2@V?$basic_string@DU?$char_traits@D@std@@V?$allocator@D@2@@2@_N_J_KNVallocator@2@Uadl_serializer@json_abi_v3_11_3@nlohmann@@V?$vector@EV?$allocator@E@std@@@2@X@json_abi_v3_11_3@nlohmann@@@detail@json_abi_v3_11_3@nlohmann@@$0A@@?$iter_impl@V?$basic_json@Vmap@std@@Vvector@2@V?$basic_string@DU?$char_traits@D@std@@V?$allocator@D@2@@2@_N_J_KNVallocator@2@Uadl_serializer@json_abi_v3_11_3@nlohmann@@V?$vector@EV?$allocator@E@std@@@2@X@json_abi_v3_11_3@nlohmann@@@detail@json_abi_v3_11_3@nlohmann@@QBE_NABV0123@@Z 1003af80 f i db.obj
 0001:0003a030       ??$endl@DU?$char_traits@D@std@@@std@@YAAAV?$basic_ostream@DU?$char_traits@D@std@@@0@AAV10@@Z 1003b030 f i db.obj
 0001:0003a060       ??$parse@V?$basic_string@DU?$char_traits@D@std@@V?$allocator@D@2@@std@@@?$basic_json@Vmap@std@@Vvector@2@V?$basic_string@DU?$char_traits@D@std@@V?$allocator@D@2@@2@_N_J_KNVallocator@2@Uadl_serializer@json_abi_v3_11_3@nlohmann@@V?$vector@EV?$allocator@E@std@@@2@X@json_abi_v3_11_3@nlohmann@@SA?AV012@$$QAV?$basic_string@DU?$char_traits@D@std@@V?$allocator@D@2@@std@@V?$function@$$A6A_NHW4parse_event_t@detail@json_abi_v3_11_3@nlohmann@@AAV?$basic_json@Vmap@std@@Vvector@2@V?$basic_string@DU?$char_traits@D@std@@V?$allocator@D@2@@2@_N_J_KNVallocator@2@Uadl_serializer@json_abi_v3_11_3@nlohmann@@V?$vector@EV?$allocator@E@std@@@2@X@34@@Z@4@_N2@Z 1003b060 f i db.obj
 0001:0003a1d0       ??$?8PBD$0A@@json_abi_v3_11_3@nlohmann@@YA_NABV?$basic_json@Vmap@std@@Vvector@2@V?$basic_string@DU?$char_traits@D@std@@V?$allocator@D@2@@2@_N_J_KNVallocator@2@Uadl_serializer@json_abi_v3_11_3@nlohmann@@V?$vector@EV?$allocator@E@std@@@2@X@01@PBD@Z 1003b1d0 f i db.obj
 0001:0003a290       ??$create@V?$map@V?$basic_string@DU?$char_traits@D@std@@V?$allocator@D@2@@std@@V?$basic_json@Vmap@std@@Vvector@2@V?$basic_string@DU?$char_traits@D@std@@V?$allocator@D@2@@2@_N_J_KNVallocator@2@Uadl_serializer@json_abi_v3_11_3@nlohmann@@V?$vector@EV?$allocator@E@std@@@2@X@json_abi_v3_11_3@nlohmann@@U?$less@X@2@V?$allocator@U?$pair@$$CBV?$basic_string@DU?$char_traits@D@std@@V?$allocator@D@2@@std@@V?$basic_json@Vmap@std@@Vvector@2@V?$basic_string@DU?$char_traits@D@std@@V?$allocator@D@2@@2@_N_J_KNVallocator@2@Uadl_serializer@json_abi_v3_11_3@nlohmann@@V?$vector@EV?$allocator@E@std@@@2@X@json_abi_v3_11_3@nlohmann@@@std@@@2@@std@@$$V@?$basic_json@Vmap@std@@Vvector@2@V?$basic_string@DU?$char_traits@D@std@@V?$allocator@D@2@@2@_N_J_KNVallocator@2@Uadl_serializer@json_abi_v3_11_3@nlohmann@@V?$vector@EV?$allocator@E@std@@@2@X@json_abi_v3_11_3@nlohmann@@CAPAV?$map@V?$basic_string@DU?$char_traits@D@std@@V?$allocator@D@2@@std@@V?$basic_json@Vmap@std@@Vvector@2@V?$basic_string@DU?$char_traits@D@std@@V?$allocator@D@2@@2@_N_J_KNVallocator@2@Uadl_serializer@json_abi_v3_11_3@nlohmann@@V?$vector@EV?$allocator@E@std@@@2@X@json_abi_v3_11_3@nlohmann@@U?$less@X@2@V?$allocator@U?$pair@$$CBV?$basic_string@DU?$char_traits@D@std@@V?$allocator@D@2@@std@@V?$basic_json@Vmap@std@@Vvector@2@V?$basic_string@DU?$char_traits@D@std@@V?$allocator@D@2@@2@_N_J_KNVallocator@2@Uadl_serializer@json_abi_v3_11_3@nlohmann@@V?$vector@EV?$allocator@E@std@@@2@X@json_abi_v3_11_3@nlohmann@@@std@@@2@@std@@XZ 1003b290 f i db.obj
 0001:0003a300       ??$concat@V?$basic_string@DU?$char_traits@D@std@@V?$allocator@D@2@@std@@AAY0DD@$$CBDPBD@detail@json_abi_v3_11_3@nlohmann@@YA?AV?$basic_string@DU?$char_traits@D@std@@V?$allocator@D@2@@std@@AAY0DD@$$CBD$$QAPBD@Z 1003b300 f i db.obj
 0001:0003a3a0       ??$create@PBV?$basic_json@Vmap@std@@Vvector@2@V?$basic_string@DU?$char_traits@D@std@@V?$allocator@D@2@@2@_N_J_KNVallocator@2@Uadl_serializer@json_abi_v3_11_3@nlohmann@@V?$vector@EV?$allocator@E@std@@@2@X@json_abi_v3_11_3@nlohmann@@$0A@@type_error@detail@json_abi_v3_11_3@nlohmann@@SA?AV0123@HABV?$basic_string@DU?$char_traits@D@std@@V?$allocator@D@2@@std@@PBV?$basic_json@Vmap@std@@Vvector@2@V?$basic_string@DU?$char_traits@D@std@@V?$allocator@D@2@@2@_N_J_KNVallocator@2@Uadl_serializer@json_abi_v3_11_3@nlohmann@@V?$vector@EV?$allocator@E@std@@@2@X@23@@Z 1003b3a0 f i NEATCommander.obj
 0001:0003a3a0       ??$create@PAV?$basic_json@Vmap@std@@Vvector@2@V?$basic_string@DU?$char_traits@D@std@@V?$allocator@D@2@@2@_N_J_KNVallocator@2@Uadl_serializer@json_abi_v3_11_3@nlohmann@@V?$vector@EV?$allocator@E@std@@@2@X@json_abi_v3_11_3@nlohmann@@$0A@@type_error@detail@json_abi_v3_11_3@nlohmann@@SA?AV0123@HABV?$basic_string@DU?$char_traits@D@std@@V?$allocator@D@2@@std@@PAV?$basic_json@Vmap@std@@Vvector@2@V?$basic_string@DU?$char_traits@D@std@@V?$allocator@D@2@@2@_N_J_KNVallocator@2@Uadl_serializer@json_abi_v3_11_3@nlohmann@@V?$vector@EV?$allocator@E@std@@@2@X@23@@Z 1003b3a0 f i db.obj
 0001:0003a5a0       ??$create@V?$vector@V?$basic_json@Vmap@std@@Vvector@2@V?$basic_string@DU?$char_traits@D@std@@V?$allocator@D@2@@2@_N_J_KNVallocator@2@Uadl_serializer@json_abi_v3_11_3@nlohmann@@V?$vector@EV?$allocator@E@std@@@2@X@json_abi_v3_11_3@nlohmann@@V?$allocator@V?$basic_json@Vmap@std@@Vvector@2@V?$basic_string@DU?$char_traits@D@std@@V?$allocator@D@2@@2@_N_J_KNVallocator@2@Uadl_serializer@json_abi_v3_11_3@nlohmann@@V?$vector@EV?$allocator@E@std@@@2@X@json_abi_v3_11_3@nlohmann@@@std@@@std@@$$V@?$basic_json@Vmap@std@@Vvector@2@V?$basic_string@DU?$char_traits@D@std@@V?$allocator@D@2@@2@_N_J_KNVallocator@2@Uadl_serializer@json_abi_v3_11_3@nlohmann@@V?$vector@EV?$allocator@E@std@@@2@X@json_abi_v3_11_3@nlohmann@@CAPAV?$vector@V?$basic_json@Vmap@std@@Vvector@2@V?$basic_string@DU?$char_traits@D@std@@V?$allocator@D@2@@2@_N_J_KNVallocator@2@Uadl_serializer@json_abi_v3_11_3@nlohmann@@V?$vector@EV?$allocator@E@std@@@2@X@json_abi_v3_11_3@nlohmann@@V?$allocator@V?$basic_json@Vmap@std@@Vvector@2@V?$basic_string@DU?$char_traits@D@std@@V?$allocator@D@2@@2@_N_J_KNVallocator@2@Uadl_serializer@json_abi_v3_11_3@nlohmann@@V?$vector@EV?$allocator@E@std@@@2@X@json_abi_v3_11_3@nlohmann@@@std@@@std@@XZ 1003b5a0 f i db.obj
 0001:0003a5c0       ??$concat@V?$basic_string@DU?$char_traits@D@std@@V?$allocator@D@2@@std@@AAY0DE@$$CBDPBD@detail@json_abi_v3_11_3@nlohmann@@YA?AV?$basic_string@DU?$char_traits@D@std@@V?$allocator@D@2@@std@@AAY0DE@$$CBD$$QAPBD@Z 1003b5c0 f i db.obj
 0001:0003a660       ??$_Traits_compare@U?$char_traits@D@std@@@std@@YAHQBDI0I@Z 1003b660 f i db.obj
 0001:0003a6e0       ??$_Resize@V<lambda_81347dfc5f0aeeb4f702a2105f3e11fc>@@@?$vector@V?$basic_json@Vmap@std@@Vvector@2@V?$basic_string@DU?$char_traits@D@std@@V?$allocator@D@2@@2@_N_J_KNVallocator@2@Uadl_serializer@json_abi_v3_11_3@nlohmann@@V?$vector@EV?$allocator@E@std@@@2@X@json_abi_v3_11_3@nlohmann@@V?$allocator@V?$basic_json@Vmap@std@@Vvector@2@V?$basic_string@DU?$char_traits@D@std@@V?$allocator@D@2@@2@_N_J_KNVallocator@2@Uadl_serializer@json_abi_v3_11_3@nlohmann@@V?$vector@EV?$allocator@E@std@@@2@X@json_abi_v3_11_3@nlohmann@@@std@@@std@@AAEXIV<lambda_81347dfc5f0aeeb4f702a2105f3e11fc>@@@Z 1003b6e0 f i db.obj
 0001:0003a810       ??$dump_integer@E$0A@@?$serializer@V?$basic_json@Vmap@std@@Vvector@2@V?$basic_string@DU?$char_traits@D@std@@V?$allocator@D@2@@2@_N_J_KNVallocator@2@Uadl_serializer@json_abi_v3_11_3@nlohmann@@V?$vector@EV?$allocator@E@std@@@2@X@json_abi_v3_11_3@nlohmann@@@detail@json_abi_v3_11_3@nlohmann@@AAEXE@Z 1003b810 f i db.obj
 0001:0003a8e0       ??$dump_integer@_K$0A@@?$serializer@V?$basic_json@Vmap@std@@Vvector@2@V?$basic_string@DU?$char_traits@D@std@@V?$allocator@D@2@@2@_N_J_KNVallocator@2@Uadl_serializer@json_abi_v3_11_3@nlohmann@@V?$vector@EV?$allocator@E@std@@@2@X@json_abi_v3_11_3@nlohmann@@@detail@json_abi_v3_11_3@nlohmann@@AAEX_K@Z 1003b8e0 f i db.obj
 0001:0003a9b0       ??$_Reallocate_grow_by@V<lambda_c1b8c41cb4019640539cfd828748c4d4>@@ID@?$basic_string@DU?$char_traits@D@std@@V?$allocator@D@2@@std@@QAEAAV01@IV<lambda_c1b8c41cb4019640539cfd828748c4d4>@@ID@Z 1003b9b0 f i db.obj
 0001:0003ab00       ??$_Destroy_range@V?$allocator@V?$basic_string@DU?$char_traits@D@std@@V?$allocator@D@2@@std@@@std@@@std@@YAXPAV?$basic_string@DU?$char_traits@D@std@@V?$allocator@D@2@@0@0AAV?$allocator@V?$basic_string@DU?$char_traits@D@std@@V?$allocator@D@2@@std@@@0@@Z 1003bb00 f i db.obj
 0001:0003ab70       ??$move@V?$_Vector_iterator@V?$_Vector_val@U?$_Simple_types@V?$basic_json@Vmap@std@@Vvector@2@V?$basic_string@DU?$char_traits@D@std@@V?$allocator@D@2@@2@_N_J_KNVallocator@2@Uadl_serializer@json_abi_v3_11_3@nlohmann@@V?$vector@EV?$allocator@E@std@@@2@X@json_abi_v3_11_3@nlohmann@@@std@@@std@@@std@@V?$back_insert_iterator@V?$vector@V?$basic_json@Vmap@std@@Vvector@2@V?$basic_string@DU?$char_traits@D@std@@V?$allocator@D@2@@2@_N_J_KNVallocator@2@Uadl_serializer@json_abi_v3_11_3@nlohmann@@V?$vector@EV?$allocator@E@std@@@2@X@json_abi_v3_11_3@nlohmann@@V?$allocator@V?$basic_json@Vmap@std@@Vvector@2@V?$basic_string@DU?$char_traits@D@std@@V?$allocator@D@2@@2@_N_J_KNVallocator@2@Uadl_serializer@json_abi_v3_11_3@nlohmann@@V?$vector@EV?$allocator@E@std@@@2@X@json_abi_v3_11_3@nlohmann@@@std@@@std@@@2@@std@@YA?AV?$back_insert_iterator@V?$vector@V?$basic_json@Vmap@std@@Vvector@2@V?$basic_string@DU?$char_traits@D@std@@V?$allocator@D@2@@2@_N_J_KNVallocator@2@Uadl_serializer@json_abi_v3_11_3@nlohmann@@V?$vector@EV?$allocator@E@std@@@2@X@json_abi_v3_11_3@nlohmann@@V?$allocator@V?$basic_json@Vmap@std@@Vvector@2@V?$basic_string@DU?$char_traits@D@std@@V?$allocator@D@2@@2@_N_J_KNVallocator@2@Uadl_serializer@json_abi_v3_11_3@nlohmann@@V?$vector@EV?$allocator@E@std@@@2@X@json_abi_v3_11_3@nlohmann@@@std@@@std@@@0@V?$_Vector_iterator@V?$_Vector_val@U?$_Simple_types@V?$basic_json@Vmap@std@@Vvector@2@V?$basic_string@DU?$char_traits@D@std@@V?$allocator@D@2@@2@_N_J_KNVallocator@2@Uadl_serializer@json_abi_v3_11_3@nlohmann@@V?$vector@EV?$allocator@E@std@@@2@X@json_abi_v3_11_3@nlohmann@@@std@@@std@@@0@0V10@@Z 1003bb70 f i db.obj
 0001:0003abe0       ??$concat@V?$basic_string@DU?$char_traits@D@std@@V?$allocator@D@2@@std@@AAY0BN@$$CBDV12@AAY04$$CBDV12@@detail@json_abi_v3_11_3@nlohmann@@YA?AV?$basic_string@DU?$char_traits@D@std@@V?$allocator@D@2@@std@@AAY0BN@$$CBD$$QAV34@AAY04$$CBD1@Z 1003bbe0 f i db.obj
 0001:0003ac90       ??$create@$$T$0A@@type_error@detail@json_abi_v3_11_3@nlohmann@@SA?AV0123@HABV?$basic_string@DU?$char_traits@D@std@@V?$allocator@D@2@@std@@$$T@Z 1003bc90 f i db.obj
 0001:0003aea0       ??$concat@V?$basic_string@DU?$char_traits@D@std@@V?$allocator@D@2@@std@@AAY0CH@$$CBDV12@@detail@json_abi_v3_11_3@nlohmann@@YA?AV?$basic_string@DU?$char_traits@D@std@@V?$allocator@D@2@@std@@AAY0CH@$$CBD$$QAV34@@Z 1003bea0 f i db.obj
 0001:0003af30       ??$create@V?$basic_string@DU?$char_traits@D@std@@V?$allocator@D@2@@std@@AAY00$$CBD@?$basic_json@Vmap@std@@Vvector@2@V?$basic_string@DU?$char_traits@D@std@@V?$allocator@D@2@@2@_N_J_KNVallocator@2@Uadl_serializer@json_abi_v3_11_3@nlohmann@@V?$vector@EV?$allocator@E@std@@@2@X@json_abi_v3_11_3@nlohmann@@CAPAV?$basic_string@DU?$char_traits@D@std@@V?$allocator@D@2@@std@@AAY00$$CBD@Z 1003bf30 f i db.obj
 0001:0003afc0       ??$create@$$T$0A@@other_error@detail@json_abi_v3_11_3@nlohmann@@SA?AV0123@HABV?$basic_string@DU?$char_traits@D@std@@V?$allocator@D@2@@std@@$$T@Z 1003bfc0 f i db.obj
 0001:0003b1d0       ??$_Emplace_reallocate@V?$basic_json@Vmap@std@@Vvector@2@V?$basic_string@DU?$char_traits@D@std@@V?$allocator@D@2@@2@_N_J_KNVallocator@2@Uadl_serializer@json_abi_v3_11_3@nlohmann@@V?$vector@EV?$allocator@E@std@@@2@X@json_abi_v3_11_3@nlohmann@@@?$vector@V?$basic_json@Vmap@std@@Vvector@2@V?$basic_string@DU?$char_traits@D@std@@V?$allocator@D@2@@2@_N_J_KNVallocator@2@Uadl_serializer@json_abi_v3_11_3@nlohmann@@V?$vector@EV?$allocator@E@std@@@2@X@json_abi_v3_11_3@nlohmann@@V?$allocator@V?$basic_json@Vmap@std@@Vvector@2@V?$basic_string@DU?$char_traits@D@std@@V?$allocator@D@2@@2@_N_J_KNVallocator@2@Uadl_serializer@json_abi_v3_11_3@nlohmann@@V?$vector@EV?$allocator@E@std@@@2@X@json_abi_v3_11_3@nlohmann@@@std@@@std@@QAEPAV?$basic_json@Vmap@std@@Vvector@2@V?$basic_string@DU?$char_traits@D@std@@V?$allocator@D@2@@2@_N_J_KNVallocator@2@Uadl_serializer@json_abi_v3_11_3@nlohmann@@V?$vector@EV?$allocator@E@std@@@2@X@json_abi_v3_11_3@nlohmann@@QAV234@$$QAV234@@Z 1003c1d0 f i db.obj
 0001:0003b370       ??0invalid_iterator@detail@json_abi_v3_11_3@nlohmann@@QAE@ABV0123@@Z 1003c370 f i db.obj
 0001:0003b390       ??1?$parser@V?$basic_json@Vmap@std@@Vvector@2@V?$basic_string@DU?$char_traits@D@std@@V?$allocator@D@2@@2@_N_J_KNVallocator@2@Uadl_serializer@json_abi_v3_11_3@nlohmann@@V?$vector@EV?$allocator@E@std@@@2@X@json_abi_v3_11_3@nlohmann@@V?$iterator_input_adapter@V?$_String_const_iterator@V?$_String_val@U?$_Simple_types@D@std@@@std@@@std@@@detail@23@@detail@json_abi_v3_11_3@nlohmann@@QAE@XZ 1003c390 f i db.obj
 0001:0003b3f0       ??1?$lexer@V?$basic_json@Vmap@std@@Vvector@2@V?$basic_string@DU?$char_traits@D@std@@V?$allocator@D@2@@2@_N_J_KNVallocator@2@Uadl_serializer@json_abi_v3_11_3@nlohmann@@V?$vector@EV?$allocator@E@std@@@2@X@json_abi_v3_11_3@nlohmann@@V?$iterator_input_adapter@V?$_String_const_iterator@V?$_String_val@U?$_Simple_types@D@std@@@std@@@std@@@detail@23@@detail@json_abi_v3_11_3@nlohmann@@QAE@XZ 1003c3f0 f i db.obj
 0001:0003b490       ??1?$pair@$$CBV?$basic_string@DU?$char_traits@D@std@@V?$allocator@D@2@@std@@V?$basic_json@Vmap@std@@Vvector@2@V?$basic_string@DU?$char_traits@D@std@@V?$allocator@D@2@@2@_N_J_KNVallocator@2@Uadl_serializer@json_abi_v3_11_3@nlohmann@@V?$vector@EV?$allocator@E@std@@@2@X@json_abi_v3_11_3@nlohmann@@@std@@QAE@XZ 1003c490 f i db.obj
 0001:0003b4f0       ??1?$unique_ptr@V?$basic_string@DU?$char_traits@D@std@@V?$allocator@D@2@@std@@V<lambda_fb2f920fc4b1c1037a4db1965a212736>@@@std@@QAE@XZ 1003c4f0 f i db.obj
 0001:0003b4f0       ??1?$unique_ptr@V?$basic_string@DU?$char_traits@D@std@@V?$allocator@D@2@@std@@V<lambda_2fa6a6c9437423a28ab8583e1625b3ef>@@@std@@QAE@XZ 1003c4f0 f i db.obj
 0001:0003b510       ?_Delete_this@?$_Ref_count_obj@V?$output_string_adapter@DV?$basic_string@DU?$char_traits@D@std@@V?$allocator@D@2@@std@@@detail@json_abi_v3_11_3@nlohmann@@@std@@EAEXXZ 1003c510 f i db.obj
 0001:0003b510       ?_Delete_this@?$_Ref_count_obj@V?$output_stream_adapter@D@detail@json_abi_v3_11_3@nlohmann@@@std@@EAEXXZ 1003c510 f i db.obj
 0001:0003b520       ?_Destroy@?$_Ref_count_obj@V?$output_string_adapter@DV?$basic_string@DU?$char_traits@D@std@@V?$allocator@D@2@@std@@@detail@json_abi_v3_11_3@nlohmann@@@std@@EAEXXZ 1003c520 f i db.obj
 0001:0003b520       ?_Destroy@?$_Ref_count_obj@V?$output_stream_adapter@D@detail@json_abi_v3_11_3@nlohmann@@@std@@EAEXXZ 1003c520 f i db.obj
 0001:0003b530       ??1?$unique_ptr@V?$map@V?$basic_string@DU?$char_traits@D@std@@V?$allocator@D@2@@std@@V?$basic_json@Vmap@std@@Vvector@2@V?$basic_string@DU?$char_traits@D@std@@V?$allocator@D@2@@2@_N_J_KNVallocator@2@Uadl_serializer@json_abi_v3_11_3@nlohmann@@V?$vector@EV?$allocator@E@std@@@2@X@json_abi_v3_11_3@nlohmann@@U?$less@X@2@V?$allocator@U?$pair@$$CBV?$basic_string@DU?$char_traits@D@std@@V?$allocator@D@2@@std@@V?$basic_json@Vmap@std@@Vvector@2@V?$basic_string@DU?$char_traits@D@std@@V?$allocator@D@2@@2@_N_J_KNVallocator@2@Uadl_serializer@json_abi_v3_11_3@nlohmann@@V?$vector@EV?$allocator@E@std@@@2@X@json_abi_v3_11_3@nlohmann@@@std@@@2@@std@@V<lambda_60d71ae31789394e6531e00e68811e59>@@@std@@QAE@XZ 1003c530 f i db.obj
 0001:0003b530       ??1?$unique_ptr@V?$map@V?$basic_string@DU?$char_traits@D@std@@V?$allocator@D@2@@std@@V?$basic_json@Vmap@std@@Vvector@2@V?$basic_string@DU?$char_traits@D@std@@V?$allocator@D@2@@2@_N_J_KNVallocator@2@Uadl_serializer@json_abi_v3_11_3@nlohmann@@V?$vector@EV?$allocator@E@std@@@2@X@json_abi_v3_11_3@nlohmann@@U?$less@X@2@V?$allocator@U?$pair@$$CBV?$basic_string@DU?$char_traits@D@std@@V?$allocator@D@2@@std@@V?$basic_json@Vmap@std@@Vvector@2@V?$basic_string@DU?$char_traits@D@std@@V?$allocator@D@2@@2@_N_J_KNVallocator@2@Uadl_serializer@json_abi_v3_11_3@nlohmann@@V?$vector@EV?$allocator@E@std@@@2@X@json_abi_v3_11_3@nlohmann@@@std@@@2@@std@@V<lambda_994a9c29b409d138058bde2cec2ae658>@@@std@@QAE@XZ 1003c530 f i db.obj
 0001:0003b550       ?parse@?$parser@V?$basic_json@Vmap@std@@Vvector@2@V?$basic_string@DU?$char_traits@D@std@@V?$allocator@D@2@@2@_N_J_KNVallocator@2@Uadl_serializer@json_abi_v3_11_3@nlohmann@@V?$vector@EV?$allocator@E@std@@@2@X@json_abi_v3_11_3@nlohmann@@V?$iterator_input_adapter@V?$_String_const_iterator@V?$_String_val@U?$_Simple_types@D@std@@@std@@@std@@@detail@23@@detail@json_abi_v3_11_3@nlohmann@@QAEX_NAAV?$basic_json@Vmap@std@@Vvector@2@V?$basic_string@DU?$char_traits@D@std@@V?$allocator@D@2@@2@_N_J_KNVallocator@2@Uadl_serializer@json_abi_v3_11_3@nlohmann@@V?$vector@EV?$allocator@E@std@@@2@X@34@@Z 1003c550 f i db.obj
 0001:0003bc90       ?count_digits@?$serializer@V?$basic_json@Vmap@std@@Vvector@2@V?$basic_string@DU?$char_traits@D@std@@V?$allocator@D@2@@2@_N_J_KNVallocator@2@Uadl_serializer@json_abi_v3_11_3@nlohmann@@V?$vector@EV?$allocator@E@std@@@2@X@json_abi_v3_11_3@nlohmann@@@detail@json_abi_v3_11_3@nlohmann@@AAEI_K@Z 1003cc90 f i db.obj
 0001:0003bd10       ??8json_abi_v3_11_3@nlohmann@@YA_NABV?$basic_json@Vmap@std@@Vvector@2@V?$basic_string@DU?$char_traits@D@std@@V?$allocator@D@2@@2@_N_J_KNVallocator@2@Uadl_serializer@json_abi_v3_11_3@nlohmann@@V?$vector@EV?$allocator@E@std@@@2@X@01@0@Z 1003cd10 f i db.obj
 0001:0003c090       ??1?$json_sax_dom_callback_parser@V?$basic_json@Vmap@std@@Vvector@2@V?$basic_string@DU?$char_traits@D@std@@V?$allocator@D@2@@2@_N_J_KNVallocator@2@Uadl_serializer@json_abi_v3_11_3@nlohmann@@V?$vector@EV?$allocator@E@std@@@2@X@json_abi_v3_11_3@nlohmann@@@detail@json_abi_v3_11_3@nlohmann@@QAE@XZ 1003d090 f i db.obj
 0001:0003c160       ??1?$json_sax_dom_parser@V?$basic_json@Vmap@std@@Vvector@2@V?$basic_string@DU?$char_traits@D@std@@V?$allocator@D@2@@2@_N_J_KNVallocator@2@Uadl_serializer@json_abi_v3_11_3@nlohmann@@V?$vector@EV?$allocator@E@std@@@2@X@json_abi_v3_11_3@nlohmann@@@detail@json_abi_v3_11_3@nlohmann@@QAE@XZ 1003d160 f i db.obj
 0001:0003c1c0       ?get_token_string@?$lexer@V?$basic_json@Vmap@std@@Vvector@2@V?$basic_string@DU?$char_traits@D@std@@V?$allocator@D@2@@2@_N_J_KNVallocator@2@Uadl_serializer@json_abi_v3_11_3@nlohmann@@V?$vector@EV?$allocator@E@std@@@2@X@json_abi_v3_11_3@nlohmann@@V?$iterator_input_adapter@V?$_String_const_iterator@V?$_String_val@U?$_Simple_types@D@std@@@std@@@std@@@detail@23@@detail@json_abi_v3_11_3@nlohmann@@QBE?AV?$basic_string@DU?$char_traits@D@std@@V?$allocator@D@2@@std@@XZ 1003d1c0 f i db.obj
 0001:0003c2a0       ?exception_message@?$parser@V?$basic_json@Vmap@std@@Vvector@2@V?$basic_string@DU?$char_traits@D@std@@V?$allocator@D@2@@2@_N_J_KNVallocator@2@Uadl_serializer@json_abi_v3_11_3@nlohmann@@V?$vector@EV?$allocator@E@std@@@2@X@json_abi_v3_11_3@nlohmann@@V?$iterator_input_adapter@V?$_String_const_iterator@V?$_String_val@U?$_Simple_types@D@std@@@std@@@std@@@detail@23@@detail@json_abi_v3_11_3@nlohmann@@AAE?AV?$basic_string@DU?$char_traits@D@std@@V?$allocator@D@2@@std@@W4token_type@?$lexer_base@V?$basic_json@Vmap@std@@Vvector@2@V?$basic_string@DU?$char_traits@D@std@@V?$allocator@D@2@@2@_N_J_KNVallocator@2@Uadl_serializer@json_abi_v3_11_3@nlohmann@@V?$vector@EV?$allocator@E@std@@@2@X@json_abi_v3_11_3@nlohmann@@@234@ABV56@@Z 1003d2a0 f i db.obj
 0001:0003c650       ?get_token@?$parser@V?$basic_json@Vmap@std@@Vvector@2@V?$basic_string@DU?$char_traits@D@std@@V?$allocator@D@2@@2@_N_J_KNVallocator@2@Uadl_serializer@json_abi_v3_11_3@nlohmann@@V?$vector@EV?$allocator@E@std@@@2@X@json_abi_v3_11_3@nlohmann@@V?$iterator_input_adapter@V?$_String_const_iterator@V?$_String_val@U?$_Simple_types@D@std@@@std@@@std@@@detail@23@@detail@json_abi_v3_11_3@nlohmann@@AAE?AW4token_type@?$lexer_base@V?$basic_json@Vmap@std@@Vvector@2@V?$basic_string@DU?$char_traits@D@std@@V?$allocator@D@2@@2@_N_J_KNVallocator@2@Uadl_serializer@json_abi_v3_11_3@nlohmann@@V?$vector@EV?$allocator@E@std@@@2@X@json_abi_v3_11_3@nlohmann@@@234@XZ 1003d650 f i db.obj
 0001:0003c660       ??1?$_Tree_comp_alloc@V?$_Tmap_traits@V?$basic_string@DU?$char_traits@D@std@@V?$allocator@D@2@@std@@V?$basic_json@Vmap@std@@Vvector@2@V?$basic_string@DU?$char_traits@D@std@@V?$allocator@D@2@@2@_N_J_KNVallocator@2@Uadl_serializer@json_abi_v3_11_3@nlohmann@@V?$vector@EV?$allocator@E@std@@@2@X@json_abi_v3_11_3@nlohmann@@U?$less@X@2@V?$allocator@U?$pair@$$CBV?$basic_string@DU?$char_traits@D@std@@V?$allocator@D@2@@std@@V?$basic_json@Vmap@std@@Vvector@2@V?$basic_string@DU?$char_traits@D@std@@V?$allocator@D@2@@2@_N_J_KNVallocator@2@Uadl_serializer@json_abi_v3_11_3@nlohmann@@V?$vector@EV?$allocator@E@std@@@2@X@json_abi_v3_11_3@nlohmann@@@std@@@2@$0A@@std@@@std@@QAE@XZ 1003d660 f i db.obj
 0001:0003c670       ?_Tidy@?$_Tree@V?$_Tmap_traits@V?$basic_string@DU?$char_traits@D@std@@V?$allocator@D@2@@std@@V?$basic_json@Vmap@std@@Vvector@2@V?$basic_string@DU?$char_traits@D@std@@V?$allocator@D@2@@2@_N_J_KNVallocator@2@Uadl_serializer@json_abi_v3_11_3@nlohmann@@V?$vector@EV?$allocator@E@std@@@2@X@json_abi_v3_11_3@nlohmann@@U?$less@X@2@V?$allocator@U?$pair@$$CBV?$basic_string@DU?$char_traits@D@std@@V?$allocator@D@2@@std@@V?$basic_json@Vmap@std@@Vvector@2@V?$basic_string@DU?$char_traits@D@std@@V?$allocator@D@2@@2@_N_J_KNVallocator@2@Uadl_serializer@json_abi_v3_11_3@nlohmann@@V?$vector@EV?$allocator@E@std@@@2@X@json_abi_v3_11_3@nlohmann@@@std@@@2@$0A@@std@@@std@@IAEXXZ 1003d670 f i db.obj
 0001:0003c6d0       ?insert@?$basic_string@DU?$char_traits@D@std@@V?$allocator@D@2@@std@@QAEAAV12@IQBDI@Z 1003d6d0 f i db.obj
 0001:0003c780       ?scan@?$lexer@V?$basic_json@Vmap@std@@Vvector@2@V?$basic_string@DU?$char_traits@D@std@@V?$allocator@D@2@@2@_N_J_KNVallocator@2@Uadl_serializer@json_abi_v3_11_3@nlohmann@@V?$vector@EV?$allocator@E@std@@@2@X@json_abi_v3_11_3@nlohmann@@V?$iterator_input_adapter@V?$_String_const_iterator@V?$_String_val@U?$_Simple_types@D@std@@@std@@@std@@@detail@23@@detail@json_abi_v3_11_3@nlohmann@@QAE?AW4token_type@?$lexer_base@V?$basic_json@Vmap@std@@Vvector@2@V?$basic_string@DU?$char_traits@D@std@@V?$allocator@D@2@@2@_N_J_KNVallocator@2@Uadl_serializer@json_abi_v3_11_3@nlohmann@@V?$vector@EV?$allocator@E@std@@@2@X@json_abi_v3_11_3@nlohmann@@@234@XZ 1003d780 f i db.obj
 0001:0003cb20       ?token_type_name@?$lexer_base@V?$basic_json@Vmap@std@@Vvector@2@V?$basic_string@DU?$char_traits@D@std@@V?$allocator@D@2@@2@_N_J_KNVallocator@2@Uadl_serializer@json_abi_v3_11_3@nlohmann@@V?$vector@EV?$allocator@E@std@@@2@X@json_abi_v3_11_3@nlohmann@@@detail@json_abi_v3_11_3@nlohmann@@SAPBDW4token_type@1234@@Z 1003db20 f i db.obj
 0001:0003cbd0       ?push_back@?$vector@_NV?$allocator@_N@std@@@std@@QAEXAB_N@Z 1003dbd0 f i db.obj
 0001:0003cc20       ?skip_whitespace@?$lexer@V?$basic_json@Vmap@std@@Vvector@2@V?$basic_string@DU?$char_traits@D@std@@V?$allocator@D@2@@2@_N_J_KNVallocator@2@Uadl_serializer@json_abi_v3_11_3@nlohmann@@V?$vector@EV?$allocator@E@std@@@2@X@json_abi_v3_11_3@nlohmann@@V?$iterator_input_adapter@V?$_String_const_iterator@V?$_String_val@U?$_Simple_types@D@std@@@std@@@std@@@detail@23@@detail@json_abi_v3_11_3@nlohmann@@QAEXXZ 1003dc20 f i db.obj
 0001:0003ccb0       ?scan_literal@?$lexer@V?$basic_json@Vmap@std@@Vvector@2@V?$basic_string@DU?$char_traits@D@std@@V?$allocator@D@2@@2@_N_J_KNVallocator@2@Uadl_serializer@json_abi_v3_11_3@nlohmann@@V?$vector@EV?$allocator@E@std@@@2@X@json_abi_v3_11_3@nlohmann@@V?$iterator_input_adapter@V?$_String_const_iterator@V?$_String_val@U?$_Simple_types@D@std@@@std@@@std@@@detail@23@@detail@json_abi_v3_11_3@nlohmann@@AAE?AW4token_type@?$lexer_base@V?$basic_json@Vmap@std@@Vvector@2@V?$basic_string@DU?$char_traits@D@std@@V?$allocator@D@2@@2@_N_J_KNVallocator@2@Uadl_serializer@json_abi_v3_11_3@nlohmann@@V?$vector@EV?$allocator@E@std@@@2@X@json_abi_v3_11_3@nlohmann@@@234@PBDIW456234@@Z 1003dcb0 f i db.obj
 0001:0003cd60       ?scan_number@?$lexer@V?$basic_json@Vmap@std@@Vvector@2@V?$basic_string@DU?$char_traits@D@std@@V?$allocator@D@2@@2@_N_J_KNVallocator@2@Uadl_serializer@json_abi_v3_11_3@nlohmann@@V?$vector@EV?$allocator@E@std@@@2@X@json_abi_v3_11_3@nlohmann@@V?$iterator_input_adapter@V?$_String_const_iterator@V?$_String_val@U?$_Simple_types@D@std@@@std@@@std@@@detail@23@@detail@json_abi_v3_11_3@nlohmann@@AAE?AW4token_type@?$lexer_base@V?$basic_json@Vmap@std@@Vvector@2@V?$basic_string@DU?$char_traits@D@std@@V?$allocator@D@2@@2@_N_J_KNVallocator@2@Uadl_serializer@json_abi_v3_11_3@nlohmann@@V?$vector@EV?$allocator@E@std@@@2@X@json_abi_v3_11_3@nlohmann@@@234@XZ 1003dd60 f i db.obj
 0001:0003d1c0       ?scan_string@?$lexer@V?$basic_json@Vmap@std@@Vvector@2@V?$basic_string@DU?$char_traits@D@std@@V?$allocator@D@2@@2@_N_J_KNVallocator@2@Uadl_serializer@json_abi_v3_11_3@nlohmann@@V?$vector@EV?$allocator@E@std@@@2@X@json_abi_v3_11_3@nlohmann@@V?$iterator_input_adapter@V?$_String_const_iterator@V?$_String_val@U?$_Simple_types@D@std@@@std@@@std@@@detail@23@@detail@json_abi_v3_11_3@nlohmann@@AAE?AW4token_type@?$lexer_base@V?$basic_json@Vmap@std@@Vvector@2@V?$basic_string@DU?$char_traits@D@std@@V?$allocator@D@2@@2@_N_J_KNVallocator@2@Uadl_serializer@json_abi_v3_11_3@nlohmann@@V?$vector@EV?$allocator@E@std@@@2@X@json_abi_v3_11_3@nlohmann@@@234@XZ 1003e1c0 f i db.obj
 0001:0003d910       ?end@?$vector@_NV?$allocator@_N@std@@@std@@QAE?AV?$_Vb_iterator@U?$_Wrap_alloc@V?$allocator@I@std@@@std@@@2@XZ 1003e910 f i db.obj
 0001:0003d960       ?get@?$lexer@V?$basic_json@Vmap@std@@Vvector@2@V?$basic_string@DU?$char_traits@D@std@@V?$allocator@D@2@@2@_N_J_KNVallocator@2@Uadl_serializer@json_abi_v3_11_3@nlohmann@@V?$vector@EV?$allocator@E@std@@@2@X@json_abi_v3_11_3@nlohmann@@V?$iterator_input_adapter@V?$_String_const_iterator@V?$_String_val@U?$_Simple_types@D@std@@@std@@@std@@@detail@23@@detail@json_abi_v3_11_3@nlohmann@@AAEHXZ 1003e960 f i db.obj
 0001:0003d9d0       ?next_byte_in_range@?$lexer@V?$basic_json@Vmap@std@@Vvector@2@V?$basic_string@DU?$char_traits@D@std@@V?$allocator@D@2@@2@_N_J_KNVallocator@2@Uadl_serializer@json_abi_v3_11_3@nlohmann@@V?$vector@EV?$allocator@E@std@@@2@X@json_abi_v3_11_3@nlohmann@@V?$iterator_input_adapter@V?$_String_const_iterator@V?$_String_val@U?$_Simple_types@D@std@@@std@@@std@@@detail@23@@detail@json_abi_v3_11_3@nlohmann@@AAE_NV?$initializer_list@H@std@@@Z 1003e9d0 f i db.obj
 0001:0003da90       ?get_codepoint@?$lexer@V?$basic_json@Vmap@std@@Vvector@2@V?$basic_string@DU?$char_traits@D@std@@V?$allocator@D@2@@2@_N_J_KNVallocator@2@Uadl_serializer@json_abi_v3_11_3@nlohmann@@V?$vector@EV?$allocator@E@std@@@2@X@json_abi_v3_11_3@nlohmann@@V?$iterator_input_adapter@V?$_String_const_iterator@V?$_String_val@U?$_Simple_types@D@std@@@std@@@std@@@detail@23@@detail@json_abi_v3_11_3@nlohmann@@AAEHXZ 1003ea90 f i db.obj
 0001:0003dba0       ?_Extract@?$_Tree_val@U?$_Tree_simple_types@U?$pair@$$CBV?$basic_string@DU?$char_traits@D@std@@V?$allocator@D@2@@std@@V?$basic_json@Vmap@std@@Vvector@2@V?$basic_string@DU?$char_traits@D@std@@V?$allocator@D@2@@2@_N_J_KNVallocator@2@Uadl_serializer@json_abi_v3_11_3@nlohmann@@V?$vector@EV?$allocator@E@std@@@2@X@json_abi_v3_11_3@nlohmann@@@std@@@std@@@std@@QAEPAU?$_Tree_node@U?$pair@$$CBV?$basic_string@DU?$char_traits@D@std@@V?$allocator@D@2@@std@@V?$basic_json@Vmap@std@@Vvector@2@V?$basic_string@DU?$char_traits@D@std@@V?$allocator@D@2@@2@_N_J_KNVallocator@2@Uadl_serializer@json_abi_v3_11_3@nlohmann@@V?$vector@EV?$allocator@E@std@@@2@X@json_abi_v3_11_3@nlohmann@@@std@@PAX@2@V?$_Tree_const_iterator@V?$_Tree_val@U?$_Tree_simple_types@U?$pair@$$CBV?$basic_string@DU?$char_traits@D@std@@V?$allocator@D@2@@std@@V?$basic_json@Vmap@std@@Vvector@2@V?$basic_string@DU?$char_traits@D@std@@V?$allocator@D@2@@2@_N_J_KNVallocator@2@Uadl_serializer@json_abi_v3_11_3@nlohmann@@V?$vector@EV?$allocator@E@std@@@2@X@json_abi_v3_11_3@nlohmann@@@std@@@std@@@std@@@2@@Z 1003eba0 f i db.obj
 0001:0003ddf0       ??H?$_Vb_iterator@U?$_Wrap_alloc@V?$allocator@I@std@@@std@@@std@@QBE?AV01@H@Z 1003edf0 f i db.obj
 0001:0003de50       ?_Insert_n@?$vector@_NV?$allocator@_N@std@@@std@@QAE?AV?$_Vb_iterator@U?$_Wrap_alloc@V?$allocator@I@std@@@std@@@2@V?$_Vb_const_iterator@U?$_Wrap_alloc@V?$allocator@I@std@@@std@@@2@IAB_N@Z 1003ee50 f i db.obj
 0001:0003dff0       ??$create@$$T$0A@@parse_error@detail@json_abi_v3_11_3@nlohmann@@SA?AV0123@HABUposition_t@123@ABV?$basic_string@DU?$char_traits@D@std@@V?$allocator@D@2@@std@@$$T@Z 1003eff0 f i db.obj
 0001:0003e280       ??$create@PAV?$basic_json@Vmap@std@@Vvector@2@V?$basic_string@DU?$char_traits@D@std@@V?$allocator@D@2@@2@_N_J_KNVallocator@2@Uadl_serializer@json_abi_v3_11_3@nlohmann@@V?$vector@EV?$allocator@E@std@@@2@X@json_abi_v3_11_3@nlohmann@@$0A@@invalid_iterator@detail@json_abi_v3_11_3@nlohmann@@SA?AV0123@HABV?$basic_string@DU?$char_traits@D@std@@V?$allocator@D@2@@std@@PAV?$basic_json@Vmap@std@@Vvector@2@V?$basic_string@DU?$char_traits@D@std@@V?$allocator@D@2@@2@_N_J_KNVallocator@2@Uadl_serializer@json_abi_v3_11_3@nlohmann@@V?$vector@EV?$allocator@E@std@@@2@X@23@@Z 1003f280 f i db.obj
 0001:0003e280       ??$create@PBV?$basic_json@Vmap@std@@Vvector@2@V?$basic_string@DU?$char_traits@D@std@@V?$allocator@D@2@@2@_N_J_KNVallocator@2@Uadl_serializer@json_abi_v3_11_3@nlohmann@@V?$vector@EV?$allocator@E@std@@@2@X@json_abi_v3_11_3@nlohmann@@$0A@@invalid_iterator@detail@json_abi_v3_11_3@nlohmann@@SA?AV0123@HABV?$basic_string@DU?$char_traits@D@std@@V?$allocator@D@2@@std@@PBV?$basic_json@Vmap@std@@Vvector@2@V?$basic_string@DU?$char_traits@D@std@@V?$allocator@D@2@@2@_N_J_KNVallocator@2@Uadl_serializer@json_abi_v3_11_3@nlohmann@@V?$vector@EV?$allocator@E@std@@@2@X@23@@Z 1003f280 f i NodeEval.obj
 0001:0003e480       ??$parser@V?$iterator_input_adapter@V?$_String_const_iterator@V?$_String_val@U?$_Simple_types@D@std@@@std@@@std@@@detail@json_abi_v3_11_3@nlohmann@@@?$basic_json@Vmap@std@@Vvector@2@V?$basic_string@DU?$char_traits@D@std@@V?$allocator@D@2@@2@_N_J_KNVallocator@2@Uadl_serializer@json_abi_v3_11_3@nlohmann@@V?$vector@EV?$allocator@E@std@@@2@X@json_abi_v3_11_3@nlohmann@@CA?AV?$parser@V?$basic_json@Vmap@std@@Vvector@2@V?$basic_string@DU?$char_traits@D@std@@V?$allocator@D@2@@2@_N_J_KNVallocator@2@Uadl_serializer@json_abi_v3_11_3@nlohmann@@V?$vector@EV?$allocator@E@std@@@2@X@json_abi_v3_11_3@nlohmann@@V?$iterator_input_adapter@V?$_String_const_iterator@V?$_String_val@U?$_Simple_types@D@std@@@std@@@std@@@detail@23@@detail@12@V?$iterator_input_adapter@V?$_String_const_iterator@V?$_String_val@U?$_Simple_types@D@std@@@std@@@std@@@412@V?$function@$$A6A_NHW4parse_event_t@detail@json_abi_v3_11_3@nlohmann@@AAV?$basic_json@Vmap@std@@Vvector@2@V?$basic_string@DU?$char_traits@D@std@@V?$allocator@D@2@@2@_N_J_KNVallocator@2@Uadl_serializer@json_abi_v3_11_3@nlohmann@@V?$vector@EV?$allocator@E@std@@@2@X@34@@Z@std@@_N2@Z 1003f480 f i db.obj
 0001:0003e650       ??$_Buynode@V?$basic_string@DU?$char_traits@D@std@@V?$allocator@D@2@@std@@$$T@?$_Tree_comp_alloc@V?$_Tmap_traits@V?$basic_string@DU?$char_traits@D@std@@V?$allocator@D@2@@std@@V?$basic_json@Vmap@std@@Vvector@2@V?$basic_string@DU?$char_traits@D@std@@V?$allocator@D@2@@2@_N_J_KNVallocator@2@Uadl_serializer@json_abi_v3_11_3@nlohmann@@V?$vector@EV?$allocator@E@std@@@2@X@json_abi_v3_11_3@nlohmann@@U?$less@X@2@V?$allocator@U?$pair@$$CBV?$basic_string@DU?$char_traits@D@std@@V?$allocator@D@2@@std@@V?$basic_json@Vmap@std@@Vvector@2@V?$basic_string@DU?$char_traits@D@std@@V?$allocator@D@2@@2@_N_J_KNVallocator@2@Uadl_serializer@json_abi_v3_11_3@nlohmann@@V?$vector@EV?$allocator@E@std@@@2@X@json_abi_v3_11_3@nlohmann@@@std@@@2@$0A@@std@@@std@@QAEPAU?$_Tree_node@U?$pair@$$CBV?$basic_string@DU?$char_traits@D@std@@V?$allocator@D@2@@std@@V?$basic_json@Vmap@std@@Vvector@2@V?$basic_string@DU?$char_traits@D@std@@V?$allocator@D@2@@2@_N_J_KNVallocator@2@Uadl_serializer@json_abi_v3_11_3@nlohmann@@V?$vector@EV?$allocator@E@std@@@2@X@json_abi_v3_11_3@nlohmann@@@std@@PAX@1@$$QAV?$basic_string@DU?$char_traits@D@std@@V?$allocator@D@2@@1@$$QA$$T@Z 1003f650 f i db.obj
 0001:0003e700       ??$_Insert_nohint@AAU?$pair@$$CBV?$basic_string@DU?$char_traits@D@std@@V?$allocator@D@2@@std@@V?$basic_json@Vmap@std@@Vvector@2@V?$basic_string@DU?$char_traits@D@std@@V?$allocator@D@2@@2@_N_J_KNVallocator@2@Uadl_serializer@json_abi_v3_11_3@nlohmann@@V?$vector@EV?$allocator@E@std@@@2@X@json_abi_v3_11_3@nlohmann@@@std@@PAU?$_Tree_node@U?$pair@$$CBV?$basic_string@DU?$char_traits@D@std@@V?$allocator@D@2@@std@@V?$basic_json@Vmap@std@@Vvector@2@V?$basic_string@DU?$char_traits@D@std@@V?$allocator@D@2@@2@_N_J_KNVallocator@2@Uadl_serializer@json_abi_v3_11_3@nlohmann@@V?$vector@EV?$allocator@E@std@@@2@X@json_abi_v3_11_3@nlohmann@@@std@@PAX@2@@?$_Tree@V?$_Tmap_traits@V?$basic_string@DU?$char_traits@D@std@@V?$allocator@D@2@@std@@V?$basic_json@Vmap@std@@Vvector@2@V?$basic_string@DU?$char_traits@D@std@@V?$allocator@D@2@@2@_N_J_KNVallocator@2@Uadl_serializer@json_abi_v3_11_3@nlohmann@@V?$vector@EV?$allocator@E@std@@@2@X@json_abi_v3_11_3@nlohmann@@U?$less@X@2@V?$allocator@U?$pair@$$CBV?$basic_string@DU?$char_traits@D@std@@V?$allocator@D@2@@std@@V?$basic_json@Vmap@std@@Vvector@2@V?$basic_string@DU?$char_traits@D@std@@V?$allocator@D@2@@2@_N_J_KNVallocator@2@Uadl_serializer@json_abi_v3_11_3@nlohmann@@V?$vector@EV?$allocator@E@std@@@2@X@json_abi_v3_11_3@nlohmann@@@std@@@2@$0A@@std@@@std@@IAE?AU?$pair@V?$_Tree_iterator@V?$_Tree_val@U?$_Tree_simple_types@U?$pair@$$CBV?$basic_string@DU?$char_traits@D@std@@V?$allocator@D@2@@std@@V?$basic_json@Vmap@std@@Vvector@2@V?$basic_string@DU?$char_traits@D@std@@V?$allocator@D@2@@2@_N_J_KNVallocator@2@Uadl_serializer@json_abi_v3_11_3@nlohmann@@V?$vector@EV?$allocator@E@std@@@2@X@json_abi_v3_11_3@nlohmann@@@std@@@std@@@std@@@std@@_N@1@_NAAU?$pair@$$CBV?$basic_string@DU?$char_traits@D@std@@V?$allocator@D@2@@std@@V?$basic_json@Vmap@std@@Vvector@2@V?$basic_string@DU?$char_traits@D@std@@V?$allocator@D@2@@2@_N_J_KNVallocator@2@Uadl_serializer@json_abi_v3_11_3@nlohmann@@V?$vector@EV?$allocator@E@std@@@2@X@json_abi_v3_11_3@nlohmann@@@1@PAU?$_Tree_node@U?$pair@$$CBV?$basic_string@DU?$char_traits@D@std@@V?$allocator@D@2@@std@@V?$basic_json@Vmap@std@@Vvector@2@V?$basic_string@DU?$char_traits@D@std@@V?$allocator@D@2@@2@_N_J_KNVallocator@2@Uadl_serializer@json_abi_v3_11_3@nlohmann@@V?$vector@EV?$allocator@E@std@@@2@X@json_abi_v3_11_3@nlohmann@@@std@@PAX@1@@Z 1003f700 f i db.obj
 0001:0003e8b0       ??$concat@V?$basic_string@DU?$char_traits@D@std@@V?$allocator@D@2@@std@@V12@V12@ABV12@@detail@json_abi_v3_11_3@nlohmann@@YA?AV?$basic_string@DU?$char_traits@D@std@@V?$allocator@D@2@@std@@$$QAV34@0ABV34@@Z 1003f8b0 f i db.obj
 0001:0003e950       ??$concat@V?$basic_string@DU?$char_traits@D@std@@V?$allocator@D@2@@std@@V12@AAY0M@$$CBDV12@AAY02$$CBDV12@ABV12@@detail@json_abi_v3_11_3@nlohmann@@YA?AV?$basic_string@DU?$char_traits@D@std@@V?$allocator@D@2@@std@@$$QAV34@AAY0M@$$CBD0AAY02$$CBD0ABV34@@Z 1003f950 f i db.obj
 0001:0003ea20       ??$grisu2@N@dtoa_impl@detail@json_abi_v3_11_3@nlohmann@@YAXPADAAH1N@Z 1003fa20 f i db.obj
 0001:0003ecd0       ??$sax_parse_internal@V?$json_sax_dom_callback_parser@V?$basic_json@Vmap@std@@Vvector@2@V?$basic_string@DU?$char_traits@D@std@@V?$allocator@D@2@@2@_N_J_KNVallocator@2@Uadl_serializer@json_abi_v3_11_3@nlohmann@@V?$vector@EV?$allocator@E@std@@@2@X@json_abi_v3_11_3@nlohmann@@@detail@json_abi_v3_11_3@nlohmann@@@?$parser@V?$basic_json@Vmap@std@@Vvector@2@V?$basic_string@DU?$char_traits@D@std@@V?$allocator@D@2@@2@_N_J_KNVallocator@2@Uadl_serializer@json_abi_v3_11_3@nlohmann@@V?$vector@EV?$allocator@E@std@@@2@X@json_abi_v3_11_3@nlohmann@@V?$iterator_input_adapter@V?$_String_const_iterator@V?$_String_val@U?$_Simple_types@D@std@@@std@@@std@@@detail@23@@detail@json_abi_v3_11_3@nlohmann@@AAE_NPAV?$json_sax_dom_callback_parser@V?$basic_json@Vmap@std@@Vvector@2@V?$basic_string@DU?$char_traits@D@std@@V?$allocator@D@2@@2@_N_J_KNVallocator@2@Uadl_serializer@json_abi_v3_11_3@nlohmann@@V?$vector@EV?$allocator@E@std@@@2@X@json_abi_v3_11_3@nlohmann@@@123@@Z 1003fcd0 f i db.obj
 0001:0003fcf0       ??$parse_error@V0detail@json_abi_v3_11_3@nlohmann@@@?$json_sax_dom_callback_parser@V?$basic_json@Vmap@std@@Vvector@2@V?$basic_string@DU?$char_traits@D@std@@V?$allocator@D@2@@2@_N_J_KNVallocator@2@Uadl_serializer@json_abi_v3_11_3@nlohmann@@V?$vector@EV?$allocator@E@std@@@2@X@json_abi_v3_11_3@nlohmann@@@detail@json_abi_v3_11_3@nlohmann@@QAE_NIABV?$basic_string@DU?$char_traits@D@std@@V?$allocator@D@2@@std@@ABVparse_error@123@@Z 10040cf0 f i db.obj
 0001:0003fd30       ??$sax_parse_internal@V?$json_sax_dom_parser@V?$basic_json@Vmap@std@@Vvector@2@V?$basic_string@DU?$char_traits@D@std@@V?$allocator@D@2@@2@_N_J_KNVallocator@2@Uadl_serializer@json_abi_v3_11_3@nlohmann@@V?$vector@EV?$allocator@E@std@@@2@X@json_abi_v3_11_3@nlohmann@@@detail@json_abi_v3_11_3@nlohmann@@@?$parser@V?$basic_json@Vmap@std@@Vvector@2@V?$basic_string@DU?$char_traits@D@std@@V?$allocator@D@2@@2@_N_J_KNVallocator@2@Uadl_serializer@json_abi_v3_11_3@nlohmann@@V?$vector@EV?$allocator@E@std@@@2@X@json_abi_v3_11_3@nlohmann@@V?$iterator_input_adapter@V?$_String_const_iterator@V?$_String_val@U?$_Simple_types@D@std@@@std@@@std@@@detail@23@@detail@json_abi_v3_11_3@nlohmann@@AAE_NPAV?$json_sax_dom_parser@V?$basic_json@Vmap@std@@Vvector@2@V?$basic_string@DU?$char_traits@D@std@@V?$allocator@D@2@@2@_N_J_KNVallocator@2@Uadl_serializer@json_abi_v3_11_3@nlohmann@@V?$vector@EV?$allocator@E@std@@@2@X@json_abi_v3_11_3@nlohmann@@@123@@Z 10040d30 f i db.obj
 0001:00041290       ??$parse_error@V0detail@json_abi_v3_11_3@nlohmann@@@?$json_sax_dom_parser@V?$basic_json@Vmap@std@@Vvector@2@V?$basic_string@DU?$char_traits@D@std@@V?$allocator@D@2@@2@_N_J_KNVallocator@2@Uadl_serializer@json_abi_v3_11_3@nlohmann@@V?$vector@EV?$allocator@E@std@@@2@X@json_abi_v3_11_3@nlohmann@@@detail@json_abi_v3_11_3@nlohmann@@QAE_NIABV?$basic_string@DU?$char_traits@D@std@@V?$allocator@D@2@@std@@ABVparse_error@123@@Z 10042290 f i db.obj
 0001:000412d0       ??$_Reallocate_grow_by@V<lambda_4d79bb85f269e6e8002a4599002d832c>@@IPBDI@?$basic_string@DU?$char_traits@D@std@@V?$allocator@D@2@@std@@QAEAAV01@IV<lambda_4d79bb85f269e6e8002a4599002d832c>@@IPBDI@Z 100422d0 f i db.obj
 0001:00041410       ??$_Emplace_reallocate@D@?$vector@DV?$allocator@D@std@@@std@@QAEPADQAD$$QAD@Z 10042410 f i db.obj
 0001:00041560       ??$_Resize@V<lambda_ac46504d121956be4d19caa267422eef>@@@?$vector@IV?$allocator@I@std@@@std@@AAEXIV<lambda_ac46504d121956be4d19caa267422eef>@@@Z 10042560 f i db.obj
 0001:000416e0       ??_E?$_Ref_count_obj@V?$output_stream_adapter@D@detail@json_abi_v3_11_3@nlohmann@@@std@@UAEPAXI@Z 100426e0 f i * CIL library *:* CIL module *
 0001:000416e0       ??_E?$_Ref_count_obj@V?$output_string_adapter@DV?$basic_string@DU?$char_traits@D@std@@V?$allocator@D@2@@std@@@detail@json_abi_v3_11_3@nlohmann@@@std@@UAEPAXI@Z 100426e0 f i * CIL library *:* CIL module *
 0001:000416e0       ??_G?$_Ref_count_obj@V?$output_string_adapter@DV?$basic_string@DU?$char_traits@D@std@@V?$allocator@D@2@@std@@@detail@json_abi_v3_11_3@nlohmann@@@std@@UAEPAXI@Z 100426e0 f i db.obj
 0001:000416e0       ??_G?$_Ref_count_obj@V?$output_stream_adapter@D@detail@json_abi_v3_11_3@nlohmann@@@std@@UAEPAXI@Z 100426e0 f i db.obj
 0001:00041700       ??1?$_Uninitialized_backout_al@PAV?$basic_json@Vmap@std@@Vvector@2@V?$basic_string@DU?$char_traits@D@std@@V?$allocator@D@2@@2@_N_J_KNVallocator@2@Uadl_serializer@json_abi_v3_11_3@nlohmann@@V?$vector@EV?$allocator@E@std@@@2@X@json_abi_v3_11_3@nlohmann@@V?$allocator@V?$basic_json@Vmap@std@@Vvector@2@V?$basic_string@DU?$char_traits@D@std@@V?$allocator@D@2@@2@_N_J_KNVallocator@2@Uadl_serializer@json_abi_v3_11_3@nlohmann@@V?$vector@EV?$allocator@E@std@@@2@X@json_abi_v3_11_3@nlohmann@@@std@@@std@@QAE@XZ 10042700 f i db.obj
 0001:00041730       ?end_array@?$json_sax_dom_callback_parser@V?$basic_json@Vmap@std@@Vvector@2@V?$basic_string@DU?$char_traits@D@std@@V?$allocator@D@2@@2@_N_J_KNVallocator@2@Uadl_serializer@json_abi_v3_11_3@nlohmann@@V?$vector@EV?$allocator@E@std@@@2@X@json_abi_v3_11_3@nlohmann@@@detail@json_abi_v3_11_3@nlohmann@@QAE_NXZ 10042730 f i db.obj
 0001:00041850       ?end_object@?$json_sax_dom_callback_parser@V?$basic_json@Vmap@std@@Vvector@2@V?$basic_string@DU?$char_traits@D@std@@V?$allocator@D@2@@2@_N_J_KNVallocator@2@Uadl_serializer@json_abi_v3_11_3@nlohmann@@V?$vector@EV?$allocator@E@std@@@2@X@json_abi_v3_11_3@nlohmann@@@detail@json_abi_v3_11_3@nlohmann@@QAE_NXZ 10042850 f i db.obj
 0001:00041a90       ?key@?$json_sax_dom_callback_parser@V?$basic_json@Vmap@std@@Vvector@2@V?$basic_string@DU?$char_traits@D@std@@V?$allocator@D@2@@2@_N_J_KNVallocator@2@Uadl_serializer@json_abi_v3_11_3@nlohmann@@V?$vector@EV?$allocator@E@std@@@2@X@json_abi_v3_11_3@nlohmann@@@detail@json_abi_v3_11_3@nlohmann@@QAE_NAAV?$basic_string@DU?$char_traits@D@std@@V?$allocator@D@2@@std@@@Z 10042a90 f i db.obj
 0001:00041c30       ?_Freenode0@?$_Tree_comp_alloc@V?$_Tmap_traits@V?$basic_string@DU?$char_traits@D@std@@V?$allocator@D@2@@std@@V?$basic_json@Vmap@std@@Vvector@2@V?$basic_string@DU?$char_traits@D@std@@V?$allocator@D@2@@2@_N_J_KNVallocator@2@Uadl_serializer@json_abi_v3_11_3@nlohmann@@V?$vector@EV?$allocator@E@std@@@2@X@json_abi_v3_11_3@nlohmann@@U?$less@X@2@V?$allocator@U?$pair@$$CBV?$basic_string@DU?$char_traits@D@std@@V?$allocator@D@2@@std@@V?$basic_json@Vmap@std@@Vvector@2@V?$basic_string@DU?$char_traits@D@std@@V?$allocator@D@2@@2@_N_J_KNVallocator@2@Uadl_serializer@json_abi_v3_11_3@nlohmann@@V?$vector@EV?$allocator@E@std@@@2@X@json_abi_v3_11_3@nlohmann@@@std@@@2@$0A@@std@@@std@@QAEXPAU?$_Tree_node@U?$pair@$$CBV?$basic_string@DU?$char_traits@D@std@@V?$allocator@D@2@@std@@V?$basic_json@Vmap@std@@Vvector@2@V?$basic_string@DU?$char_traits@D@std@@V?$allocator@D@2@@2@_N_J_KNVallocator@2@Uadl_serializer@json_abi_v3_11_3@nlohmann@@V?$vector@EV?$allocator@E@std@@@2@X@json_abi_v3_11_3@nlohmann@@@std@@PAX@2@@Z 10042c30 f i db.obj
 0001:00041c50       ?_Buynode0@?$_Tree_comp_alloc@V?$_Tmap_traits@V?$basic_string@DU?$char_traits@D@std@@V?$allocator@D@2@@std@@V?$basic_json@Vmap@std@@Vvector@2@V?$basic_string@DU?$char_traits@D@std@@V?$allocator@D@2@@2@_N_J_KNVallocator@2@Uadl_serializer@json_abi_v3_11_3@nlohmann@@V?$vector@EV?$allocator@E@std@@@2@X@json_abi_v3_11_3@nlohmann@@U?$less@X@2@V?$allocator@U?$pair@$$CBV?$basic_string@DU?$char_traits@D@std@@V?$allocator@D@2@@std@@V?$basic_json@Vmap@std@@Vvector@2@V?$basic_string@DU?$char_traits@D@std@@V?$allocator@D@2@@2@_N_J_KNVallocator@2@Uadl_serializer@json_abi_v3_11_3@nlohmann@@V?$vector@EV?$allocator@E@std@@@2@X@json_abi_v3_11_3@nlohmann@@@std@@@2@$0A@@std@@@std@@QAEPAU?$_Tree_node@U?$pair@$$CBV?$basic_string@DU?$char_traits@D@std@@V?$allocator@D@2@@std@@V?$basic_json@Vmap@std@@Vvector@2@V?$basic_string@DU?$char_traits@D@std@@V?$allocator@D@2@@2@_N_J_KNVallocator@2@Uadl_serializer@json_abi_v3_11_3@nlohmann@@V?$vector@EV?$allocator@E@std@@@2@X@json_abi_v3_11_3@nlohmann@@@std@@PAX@2@XZ 10042c50 f i db.obj
 0001:00041c70       ?_Destroy_if_node@?$_Tree@V?$_Tmap_traits@V?$basic_string@DU?$char_traits@D@std@@V?$allocator@D@2@@std@@V?$basic_json@Vmap@std@@Vvector@2@V?$basic_string@DU?$char_traits@D@std@@V?$allocator@D@2@@2@_N_J_KNVallocator@2@Uadl_serializer@json_abi_v3_11_3@nlohmann@@V?$vector@EV?$allocator@E@std@@@2@X@json_abi_v3_11_3@nlohmann@@U?$less@X@2@V?$allocator@U?$pair@$$CBV?$basic_string@DU?$char_traits@D@std@@V?$allocator@D@2@@std@@V?$basic_json@Vmap@std@@Vvector@2@V?$basic_string@DU?$char_traits@D@std@@V?$allocator@D@2@@2@_N_J_KNVallocator@2@Uadl_serializer@json_abi_v3_11_3@nlohmann@@V?$vector@EV?$allocator@E@std@@@2@X@json_abi_v3_11_3@nlohmann@@@std@@@2@$0A@@std@@@std@@IAEXPAU?$_Tree_node@U?$pair@$$CBV?$basic_string@DU?$char_traits@D@std@@V?$allocator@D@2@@std@@V?$basic_json@Vmap@std@@Vvector@2@V?$basic_string@DU?$char_traits@D@std@@V?$allocator@D@2@@2@_N_J_KNVallocator@2@Uadl_serializer@json_abi_v3_11_3@nlohmann@@V?$vector@EV?$allocator@E@std@@@2@X@json_abi_v3_11_3@nlohmann@@@std@@PAX@2@@Z 10042c70 f i db.obj
 0001:00041c90       ?key@?$json_sax_dom_parser@V?$basic_json@Vmap@std@@Vvector@2@V?$basic_string@DU?$char_traits@D@std@@V?$allocator@D@2@@2@_N_J_KNVallocator@2@Uadl_serializer@json_abi_v3_11_3@nlohmann@@V?$vector@EV?$allocator@E@std@@@2@X@json_abi_v3_11_3@nlohmann@@@detail@json_abi_v3_11_3@nlohmann@@QAE_NAAV?$basic_string@DU?$char_traits@D@std@@V?$allocator@D@2@@std@@@Z 10042c90 f i db.obj
 0001:00041d20       ?pop_back@?$vector@_NV?$allocator@_N@std@@@std@@QAEXXZ 10042d20 f i db.obj
 0001:00041da0       ??0out_of_range@detail@json_abi_v3_11_3@nlohmann@@QAE@ABV0123@@Z 10042da0 f i db.obj
 0001:00041dc0       ??_E?$output_stream_adapter@D@detail@json_abi_v3_11_3@nlohmann@@UAEPAXI@Z 10042dc0 f i * CIL library *:* CIL module *
 0001:00041dc0       ??_E?$output_string_adapter@DV?$basic_string@DU?$char_traits@D@std@@V?$allocator@D@2@@std@@@detail@json_abi_v3_11_3@nlohmann@@UAEPAXI@Z 10042dc0 f i * CIL library *:* CIL module *
 0001:00041dc0       ??_G?$output_string_adapter@DV?$basic_string@DU?$char_traits@D@std@@V?$allocator@D@2@@std@@@detail@json_abi_v3_11_3@nlohmann@@UAEPAXI@Z 10042dc0 f i db.obj
 0001:00041dc0       ??_G?$output_stream_adapter@D@detail@json_abi_v3_11_3@nlohmann@@UAEPAXI@Z 10042dc0 f i db.obj
 0001:00041de0       ??G?$_Vb_iterator@U?$_Wrap_alloc@V?$allocator@I@std@@@std@@@std@@QBE?AV01@H@Z 10042de0 f i db.obj
 0001:00041e30       ?erase@?$vector@_NV?$allocator@_N@std@@@std@@QAE?AV?$_Vb_iterator@U?$_Wrap_alloc@V?$allocator@I@std@@@std@@@2@V?$_Vb_const_iterator@U?$_Wrap_alloc@V?$allocator@I@std@@@std@@@2@@Z 10042e30 f i db.obj
 0001:00041fb0       ?begin@?$basic_json@Vmap@std@@Vvector@2@V?$basic_string@DU?$char_traits@D@std@@V?$allocator@D@2@@2@_N_J_KNVallocator@2@Uadl_serializer@json_abi_v3_11_3@nlohmann@@V?$vector@EV?$allocator@E@std@@@2@X@json_abi_v3_11_3@nlohmann@@QAE?AV?$iter_impl@V?$basic_json@Vmap@std@@Vvector@2@V?$basic_string@DU?$char_traits@D@std@@V?$allocator@D@2@@2@_N_J_KNVallocator@2@Uadl_serializer@json_abi_v3_11_3@nlohmann@@V?$vector@EV?$allocator@E@std@@@2@X@json_abi_v3_11_3@nlohmann@@@detail@23@XZ 10042fb0 f i db.obj
 0001:00042040       ??0?$basic_json@Vmap@std@@Vvector@2@V?$basic_string@DU?$char_traits@D@std@@V?$allocator@D@2@@2@_N_J_KNVallocator@2@Uadl_serializer@json_abi_v3_11_3@nlohmann@@V?$vector@EV?$allocator@E@std@@@2@X@json_abi_v3_11_3@nlohmann@@QAE@ABV012@@Z 10043040 f i db.obj
 0001:000421a0       ??0json_value@?$basic_json@Vmap@std@@Vvector@2@V?$basic_string@DU?$char_traits@D@std@@V?$allocator@D@2@@2@_N_J_KNVallocator@2@Uadl_serializer@json_abi_v3_11_3@nlohmann@@V?$vector@EV?$allocator@E@std@@@2@X@json_abi_v3_11_3@nlohmann@@QAE@ABV?$basic_string@DU?$char_traits@D@std@@V?$allocator@D@2@@std@@@Z 100431a0 f i db.obj
 0001:00042210       ?_Buyheadnode@?$_Tree_comp_alloc@V?$_Tmap_traits@V?$basic_string@DU?$char_traits@D@std@@V?$allocator@D@2@@std@@V?$basic_json@Vmap@std@@Vvector@2@V?$basic_string@DU?$char_traits@D@std@@V?$allocator@D@2@@2@_N_J_KNVallocator@2@Uadl_serializer@json_abi_v3_11_3@nlohmann@@V?$vector@EV?$allocator@E@std@@@2@X@json_abi_v3_11_3@nlohmann@@U?$less@X@2@V?$allocator@U?$pair@$$CBV?$basic_string@DU?$char_traits@D@std@@V?$allocator@D@2@@std@@V?$basic_json@Vmap@std@@Vvector@2@V?$basic_string@DU?$char_traits@D@std@@V?$allocator@D@2@@2@_N_J_KNVallocator@2@Uadl_serializer@json_abi_v3_11_3@nlohmann@@V?$vector@EV?$allocator@E@std@@@2@X@json_abi_v3_11_3@nlohmann@@@std@@@2@$0A@@std@@@std@@QAEPAU?$_Tree_node@U?$pair@$$CBV?$basic_string@DU?$char_traits@D@std@@V?$allocator@D@2@@std@@V?$basic_json@Vmap@std@@Vvector@2@V?$basic_string@DU?$char_traits@D@std@@V?$allocator@D@2@@2@_N_J_KNVallocator@2@Uadl_serializer@json_abi_v3_11_3@nlohmann@@V?$vector@EV?$allocator@E@std@@@2@X@json_abi_v3_11_3@nlohmann@@@std@@PAX@2@XZ 10043210 f i db.obj
 0001:00042230       ??$_Insert_at@AAU?$pair@$$CBV?$basic_string@DU?$char_traits@D@std@@V?$allocator@D@2@@std@@V?$basic_json@Vmap@std@@Vvector@2@V?$basic_string@DU?$char_traits@D@std@@V?$allocator@D@2@@2@_N_J_KNVallocator@2@Uadl_serializer@json_abi_v3_11_3@nlohmann@@V?$vector@EV?$allocator@E@std@@@2@X@json_abi_v3_11_3@nlohmann@@@std@@PAU?$_Tree_node@U?$pair@$$CBV?$basic_string@DU?$char_traits@D@std@@V?$allocator@D@2@@std@@V?$basic_json@Vmap@std@@Vvector@2@V?$basic_string@DU?$char_traits@D@std@@V?$allocator@D@2@@2@_N_J_KNVallocator@2@Uadl_serializer@json_abi_v3_11_3@nlohmann@@V?$vector@EV?$allocator@E@std@@@2@X@json_abi_v3_11_3@nlohmann@@@std@@PAX@2@@?$_Tree@V?$_Tmap_traits@V?$basic_string@DU?$char_traits@D@std@@V?$allocator@D@2@@std@@V?$basic_json@Vmap@std@@Vvector@2@V?$basic_string@DU?$char_traits@D@std@@V?$allocator@D@2@@2@_N_J_KNVallocator@2@Uadl_serializer@json_abi_v3_11_3@nlohmann@@V?$vector@EV?$allocator@E@std@@@2@X@json_abi_v3_11_3@nlohmann@@U?$less@X@2@V?$allocator@U?$pair@$$CBV?$basic_string@DU?$char_traits@D@std@@V?$allocator@D@2@@std@@V?$basic_json@Vmap@std@@Vvector@2@V?$basic_string@DU?$char_traits@D@std@@V?$allocator@D@2@@2@_N_J_KNVallocator@2@Uadl_serializer@json_abi_v3_11_3@nlohmann@@V?$vector@EV?$allocator@E@std@@@2@X@json_abi_v3_11_3@nlohmann@@@std@@@2@$0A@@std@@@std@@IAE?AV?$_Tree_iterator@V?$_Tree_val@U?$_Tree_simple_types@U?$pair@$$CBV?$basic_string@DU?$char_traits@D@std@@V?$allocator@D@2@@std@@V?$basic_json@Vmap@std@@Vvector@2@V?$basic_string@DU?$char_traits@D@std@@V?$allocator@D@2@@2@_N_J_KNVallocator@2@Uadl_serializer@json_abi_v3_11_3@nlohmann@@V?$vector@EV?$allocator@E@std@@@2@X@json_abi_v3_11_3@nlohmann@@@std@@@std@@@std@@@1@_NPAU?$_Tree_node@U?$pair@$$CBV?$basic_string@DU?$char_traits@D@std@@V?$allocator@D@2@@std@@V?$basic_json@Vmap@std@@Vvector@2@V?$basic_string@DU?$char_traits@D@std@@V?$allocator@D@2@@2@_N_J_KNVallocator@2@Uadl_serializer@json_abi_v3_11_3@nlohmann@@V?$vector@EV?$allocator@E@std@@@2@X@json_abi_v3_11_3@nlohmann@@@std@@PAX@1@AAU?$pair@$$CBV?$basic_string@DU?$char_traits@D@std@@V?$allocator@D@2@@std@@V?$basic_json@Vmap@std@@Vvector@2@V?$basic_string@DU?$char_traits@D@std@@V?$allocator@D@2@@2@_N_J_KNVallocator@2@Uadl_serializer@json_abi_v3_11_3@nlohmann@@V?$vector@EV?$allocator@E@std@@@2@X@json_abi_v3_11_3@nlohmann@@@1@1@Z 10043230 f i db.obj
 0001:00042390       ??$concat@V?$basic_string@DU?$char_traits@D@std@@V?$allocator@D@2@@std@@AAY0BK@$$CBDV12@D@detail@json_abi_v3_11_3@nlohmann@@YA?AV?$basic_string@DU?$char_traits@D@std@@V?$allocator@D@2@@std@@AAY0BK@$$CBD$$QAV34@$$QAD@Z 10043390 f i db.obj
 0001:00042430       ??$create@$$T$0A@@out_of_range@detail@json_abi_v3_11_3@nlohmann@@SA?AV0123@HABV?$basic_string@DU?$char_traits@D@std@@V?$allocator@D@2@@std@@$$T@Z 10043430 f i db.obj
 0001:00042640       ??$handle_value@W4value_t@detail@json_abi_v3_11_3@nlohmann@@@?$json_sax_dom_callback_parser@V?$basic_json@Vmap@std@@Vvector@2@V?$basic_string@DU?$char_traits@D@std@@V?$allocator@D@2@@2@_N_J_KNVallocator@2@Uadl_serializer@json_abi_v3_11_3@nlohmann@@V?$vector@EV?$allocator@E@std@@@2@X@json_abi_v3_11_3@nlohmann@@@detail@json_abi_v3_11_3@nlohmann@@AAE?AU?$pair@_NPAV?$basic_json@Vmap@std@@Vvector@2@V?$basic_string@DU?$char_traits@D@std@@V?$allocator@D@2@@2@_N_J_KNVallocator@2@Uadl_serializer@json_abi_v3_11_3@nlohmann@@V?$vector@EV?$allocator@E@std@@@2@X@json_abi_v3_11_3@nlohmann@@@std@@$$QAW4value_t@123@_N@Z 10043640 f i db.obj
 0001:000428d0       ??$erase@V?$iter_impl@V?$basic_json@Vmap@std@@Vvector@2@V?$basic_string@DU?$char_traits@D@std@@V?$allocator@D@2@@2@_N_J_KNVallocator@2@Uadl_serializer@json_abi_v3_11_3@nlohmann@@V?$vector@EV?$allocator@E@std@@@2@X@json_abi_v3_11_3@nlohmann@@@detail@json_abi_v3_11_3@nlohmann@@$0A@@?$basic_json@Vmap@std@@Vvector@2@V?$basic_string@DU?$char_traits@D@std@@V?$allocator@D@2@@2@_N_J_KNVallocator@2@Uadl_serializer@json_abi_v3_11_3@nlohmann@@V?$vector@EV?$allocator@E@std@@@2@X@json_abi_v3_11_3@nlohmann@@QAE?AV?$iter_impl@V?$basic_json@Vmap@std@@Vvector@2@V?$basic_string@DU?$char_traits@D@std@@V?$allocator@D@2@@2@_N_J_KNVallocator@2@Uadl_serializer@json_abi_v3_11_3@nlohmann@@V?$vector@EV?$allocator@E@std@@@2@X@json_abi_v3_11_3@nlohmann@@@detail@12@V3412@@Z 100438d0 f i db.obj
 0001:00042be0       ??$?0AAV?$basic_string@DU?$char_traits@D@std@@V?$allocator@D@2@@std@@V01@$0A@@?$basic_json@Vmap@std@@Vvector@2@V?$basic_string@DU?$char_traits@D@std@@V?$allocator@D@2@@2@_N_J_KNVallocator@2@Uadl_serializer@json_abi_v3_11_3@nlohmann@@V?$vector@EV?$allocator@E@std@@@2@X@json_abi_v3_11_3@nlohmann@@QAE@AAV?$basic_string@DU?$char_traits@D@std@@V?$allocator@D@2@@std@@@Z 10043be0 f i db.obj
 0001:00042c90       ??$handle_value@AAV?$basic_string@DU?$char_traits@D@std@@V?$allocator@D@2@@std@@@?$json_sax_dom_callback_parser@V?$basic_json@Vmap@std@@Vvector@2@V?$basic_string@DU?$char_traits@D@std@@V?$allocator@D@2@@2@_N_J_KNVallocator@2@Uadl_serializer@json_abi_v3_11_3@nlohmann@@V?$vector@EV?$allocator@E@std@@@2@X@json_abi_v3_11_3@nlohmann@@@detail@json_abi_v3_11_3@nlohmann@@AAE?AU?$pair@_NPAV?$basic_json@Vmap@std@@Vvector@2@V?$basic_string@DU?$char_traits@D@std@@V?$allocator@D@2@@2@_N_J_KNVallocator@2@Uadl_serializer@json_abi_v3_11_3@nlohmann@@V?$vector@EV?$allocator@E@std@@@2@X@json_abi_v3_11_3@nlohmann@@@std@@AAV?$basic_string@DU?$char_traits@D@std@@V?$allocator@D@2@@5@_N@Z 10043c90 f i db.obj
 0001:00042f50       ??$handle_value@AAN@?$json_sax_dom_callback_parser@V?$basic_json@Vmap@std@@Vvector@2@V?$basic_string@DU?$char_traits@D@std@@V?$allocator@D@2@@2@_N_J_KNVallocator@2@Uadl_serializer@json_abi_v3_11_3@nlohmann@@V?$vector@EV?$allocator@E@std@@@2@X@json_abi_v3_11_3@nlohmann@@@detail@json_abi_v3_11_3@nlohmann@@AAE?AU?$pair@_NPAV?$basic_json@Vmap@std@@Vvector@2@V?$basic_string@DU?$char_traits@D@std@@V?$allocator@D@2@@2@_N_J_KNVallocator@2@Uadl_serializer@json_abi_v3_11_3@nlohmann@@V?$vector@EV?$allocator@E@std@@@2@X@json_abi_v3_11_3@nlohmann@@@std@@AAN_N@Z 10043f50 f i db.obj
 0001:00043240       ??$handle_value@AA_K@?$json_sax_dom_callback_parser@V?$basic_json@Vmap@std@@Vvector@2@V?$basic_string@DU?$char_traits@D@std@@V?$allocator@D@2@@2@_N_J_KNVallocator@2@Uadl_serializer@json_abi_v3_11_3@nlohmann@@V?$vector@EV?$allocator@E@std@@@2@X@json_abi_v3_11_3@nlohmann@@@detail@json_abi_v3_11_3@nlohmann@@AAE?AU?$pair@_NPAV?$basic_json@Vmap@std@@Vvector@2@V?$basic_string@DU?$char_traits@D@std@@V?$allocator@D@2@@2@_N_J_KNVallocator@2@Uadl_serializer@json_abi_v3_11_3@nlohmann@@V?$vector@EV?$allocator@E@std@@@2@X@json_abi_v3_11_3@nlohmann@@@std@@AA_K_N@Z 10044240 f i db.obj
 0001:00043530       ??$handle_value@AA_J@?$json_sax_dom_callback_parser@V?$basic_json@Vmap@std@@Vvector@2@V?$basic_string@DU?$char_traits@D@std@@V?$allocator@D@2@@2@_N_J_KNVallocator@2@Uadl_serializer@json_abi_v3_11_3@nlohmann@@V?$vector@EV?$allocator@E@std@@@2@X@json_abi_v3_11_3@nlohmann@@@detail@json_abi_v3_11_3@nlohmann@@AAE?AU?$pair@_NPAV?$basic_json@Vmap@std@@Vvector@2@V?$basic_string@DU?$char_traits@D@std@@V?$allocator@D@2@@2@_N_J_KNVallocator@2@Uadl_serializer@json_abi_v3_11_3@nlohmann@@V?$vector@EV?$allocator@E@std@@@2@X@json_abi_v3_11_3@nlohmann@@@std@@AA_J_N@Z 10044530 f i db.obj
 0001:00043820       ??$handle_value@AA_N@?$json_sax_dom_callback_parser@V?$basic_json@Vmap@std@@Vvector@2@V?$basic_string@DU?$char_traits@D@std@@V?$allocator@D@2@@2@_N_J_KNVallocator@2@Uadl_serializer@json_abi_v3_11_3@nlohmann@@V?$vector@EV?$allocator@E@std@@@2@X@json_abi_v3_11_3@nlohmann@@@detail@json_abi_v3_11_3@nlohmann@@AAE?AU?$pair@_NPAV?$basic_json@Vmap@std@@Vvector@2@V?$basic_string@DU?$char_traits@D@std@@V?$allocator@D@2@@2@_N_J_KNVallocator@2@Uadl_serializer@json_abi_v3_11_3@nlohmann@@V?$vector@EV?$allocator@E@std@@@2@X@json_abi_v3_11_3@nlohmann@@@std@@AA_N_N@Z 10044820 f i db.obj
 0001:00043b10       ??$handle_value@$$T@?$json_sax_dom_callback_parser@V?$basic_json@Vmap@std@@Vvector@2@V?$basic_string@DU?$char_traits@D@std@@V?$allocator@D@2@@2@_N_J_KNVallocator@2@Uadl_serializer@json_abi_v3_11_3@nlohmann@@V?$vector@EV?$allocator@E@std@@@2@X@json_abi_v3_11_3@nlohmann@@@detail@json_abi_v3_11_3@nlohmann@@AAE?AU?$pair@_NPAV?$basic_json@Vmap@std@@Vvector@2@V?$basic_string@DU?$char_traits@D@std@@V?$allocator@D@2@@2@_N_J_KNVallocator@2@Uadl_serializer@json_abi_v3_11_3@nlohmann@@V?$vector@EV?$allocator@E@std@@@2@X@json_abi_v3_11_3@nlohmann@@@std@@$$QA$$T_N@Z 10044b10 f i db.obj
 0001:00043dd0       ??$handle_value@W4value_t@detail@json_abi_v3_11_3@nlohmann@@@?$json_sax_dom_parser@V?$basic_json@Vmap@std@@Vvector@2@V?$basic_string@DU?$char_traits@D@std@@V?$allocator@D@2@@2@_N_J_KNVallocator@2@Uadl_serializer@json_abi_v3_11_3@nlohmann@@V?$vector@EV?$allocator@E@std@@@2@X@json_abi_v3_11_3@nlohmann@@@detail@json_abi_v3_11_3@nlohmann@@AAEPAV?$basic_json@Vmap@std@@Vvector@2@V?$basic_string@DU?$char_traits@D@std@@V?$allocator@D@2@@2@_N_J_KNVallocator@2@Uadl_serializer@json_abi_v3_11_3@nlohmann@@V?$vector@EV?$allocator@E@std@@@2@X@23@$$QAW4value_t@123@@Z 10044dd0 f i db.obj
 0001:00043ed0       ??$copy@V?$_Vb_iterator@U?$_Wrap_alloc@V?$allocator@I@std@@@std@@@std@@V12@@std@@YA?AV?$_Vb_iterator@U?$_Wrap_alloc@V?$allocator@I@std@@@std@@@0@V10@00@Z 10044ed0 f i db.obj
 0001:00043f40       ??1?$unique_ptr@V?$vector@V?$basic_json@Vmap@std@@Vvector@2@V?$basic_string@DU?$char_traits@D@std@@V?$allocator@D@2@@2@_N_J_KNVallocator@2@Uadl_serializer@json_abi_v3_11_3@nlohmann@@V?$vector@EV?$allocator@E@std@@@2@X@json_abi_v3_11_3@nlohmann@@V?$allocator@V?$basic_json@Vmap@std@@Vvector@2@V?$basic_string@DU?$char_traits@D@std@@V?$allocator@D@2@@2@_N_J_KNVallocator@2@Uadl_serializer@json_abi_v3_11_3@nlohmann@@V?$vector@EV?$allocator@E@std@@@2@X@json_abi_v3_11_3@nlohmann@@@std@@@std@@V<lambda_d36f07c362b394c2822ec66bb0a1b2f9>@@@std@@QAE@XZ 10044f40 f i db.obj
 0001:00043f60       ??1?$unique_ptr@V?$byte_container_with_subtype@V?$vector@EV?$allocator@E@std@@@std@@@json_abi_v3_11_3@nlohmann@@V<lambda_7027fe44b360f282ed691d0c45ae2bf9>@@@std@@QAE@XZ 10044f60 f i db.obj
 0001:00043f80       ??1?$_Uninitialized_backout_al@PAV?$basic_string@DU?$char_traits@D@std@@V?$allocator@D@2@@std@@V?$allocator@V?$basic_string@DU?$char_traits@D@std@@V?$allocator@D@2@@std@@@2@@std@@QAE@XZ 10044f80 f i db.obj
 0001:00043f90       ??$concat@V?$basic_string@DU?$char_traits@D@std@@V?$allocator@D@2@@std@@AAY0BJ@$$CBDPBD@detail@json_abi_v3_11_3@nlohmann@@YA?AV?$basic_string@DU?$char_traits@D@std@@V?$allocator@D@2@@std@@AAY0BJ@$$CBD$$QAPBD@Z 10044f90 f i db.obj
 0001:00044030       ??$_Emplace_reallocate@W4value_t@detail@json_abi_v3_11_3@nlohmann@@@?$vector@V?$basic_json@Vmap@std@@Vvector@2@V?$basic_string@DU?$char_traits@D@std@@V?$allocator@D@2@@2@_N_J_KNVallocator@2@Uadl_serializer@json_abi_v3_11_3@nlohmann@@V?$vector@EV?$allocator@E@std@@@2@X@json_abi_v3_11_3@nlohmann@@V?$allocator@V?$basic_json@Vmap@std@@Vvector@2@V?$basic_string@DU?$char_traits@D@std@@V?$allocator@D@2@@2@_N_J_KNVallocator@2@Uadl_serializer@json_abi_v3_11_3@nlohmann@@V?$vector@EV?$allocator@E@std@@@2@X@json_abi_v3_11_3@nlohmann@@@std@@@std@@QAEPAV?$basic_json@Vmap@std@@Vvector@2@V?$basic_string@DU?$char_traits@D@std@@V?$allocator@D@2@@2@_N_J_KNVallocator@2@Uadl_serializer@json_abi_v3_11_3@nlohmann@@V?$vector@EV?$allocator@E@std@@@2@X@json_abi_v3_11_3@nlohmann@@QAV234@$$QAW4value_t@detail@34@@Z 10045030 f i db.obj
 0001:00044230       ??$_Emplace_reallocate@AAV?$basic_string@DU?$char_traits@D@std@@V?$allocator@D@2@@std@@@?$vector@V?$basic_json@Vmap@std@@Vvector@2@V?$basic_string@DU?$char_traits@D@std@@V?$allocator@D@2@@2@_N_J_KNVallocator@2@Uadl_serializer@json_abi_v3_11_3@nlohmann@@V?$vector@EV?$allocator@E@std@@@2@X@json_abi_v3_11_3@nlohmann@@V?$allocator@V?$basic_json@Vmap@std@@Vvector@2@V?$basic_string@DU?$char_traits@D@std@@V?$allocator@D@2@@2@_N_J_KNVallocator@2@Uadl_serializer@json_abi_v3_11_3@nlohmann@@V?$vector@EV?$allocator@E@std@@@2@X@json_abi_v3_11_3@nlohmann@@@std@@@std@@QAEPAV?$basic_json@Vmap@std@@Vvector@2@V?$basic_string@DU?$char_traits@D@std@@V?$allocator@D@2@@2@_N_J_KNVallocator@2@Uadl_serializer@json_abi_v3_11_3@nlohmann@@V?$vector@EV?$allocator@E@std@@@2@X@json_abi_v3_11_3@nlohmann@@QAV234@AAV?$basic_string@DU?$char_traits@D@std@@V?$allocator@D@2@@1@@Z 10045230 f i db.obj
 0001:00044430       ??$_Emplace_reallocate@AAN@?$vector@V?$basic_json@Vmap@std@@Vvector@2@V?$basic_string@DU?$char_traits@D@std@@V?$allocator@D@2@@2@_N_J_KNVallocator@2@Uadl_serializer@json_abi_v3_11_3@nlohmann@@V?$vector@EV?$allocator@E@std@@@2@X@json_abi_v3_11_3@nlohmann@@V?$allocator@V?$basic_json@Vmap@std@@Vvector@2@V?$basic_string@DU?$char_traits@D@std@@V?$allocator@D@2@@2@_N_J_KNVallocator@2@Uadl_serializer@json_abi_v3_11_3@nlohmann@@V?$vector@EV?$allocator@E@std@@@2@X@json_abi_v3_11_3@nlohmann@@@std@@@std@@QAEPAV?$basic_json@Vmap@std@@Vvector@2@V?$basic_string@DU?$char_traits@D@std@@V?$allocator@D@2@@2@_N_J_KNVallocator@2@Uadl_serializer@json_abi_v3_11_3@nlohmann@@V?$vector@EV?$allocator@E@std@@@2@X@json_abi_v3_11_3@nlohmann@@QAV234@AAN@Z 10045430 f i db.obj
 0001:00044640       ??$_Emplace_reallocate@AA_K@?$vector@V?$basic_json@Vmap@std@@Vvector@2@V?$basic_string@DU?$char_traits@D@std@@V?$allocator@D@2@@2@_N_J_KNVallocator@2@Uadl_serializer@json_abi_v3_11_3@nlohmann@@V?$vector@EV?$allocator@E@std@@@2@X@json_abi_v3_11_3@nlohmann@@V?$allocator@V?$basic_json@Vmap@std@@Vvector@2@V?$basic_string@DU?$char_traits@D@std@@V?$allocator@D@2@@2@_N_J_KNVallocator@2@Uadl_serializer@json_abi_v3_11_3@nlohmann@@V?$vector@EV?$allocator@E@std@@@2@X@json_abi_v3_11_3@nlohmann@@@std@@@std@@QAEPAV?$basic_json@Vmap@std@@Vvector@2@V?$basic_string@DU?$char_traits@D@std@@V?$allocator@D@2@@2@_N_J_KNVallocator@2@Uadl_serializer@json_abi_v3_11_3@nlohmann@@V?$vector@EV?$allocator@E@std@@@2@X@json_abi_v3_11_3@nlohmann@@QAV234@AA_K@Z 10045640 f i db.obj
 0001:00044840       ??$_Emplace_reallocate@AA_J@?$vector@V?$basic_json@Vmap@std@@Vvector@2@V?$basic_string@DU?$char_traits@D@std@@V?$allocator@D@2@@2@_N_J_KNVallocator@2@Uadl_serializer@json_abi_v3_11_3@nlohmann@@V?$vector@EV?$allocator@E@std@@@2@X@json_abi_v3_11_3@nlohmann@@V?$allocator@V?$basic_json@Vmap@std@@Vvector@2@V?$basic_string@DU?$char_traits@D@std@@V?$allocator@D@2@@2@_N_J_KNVallocator@2@Uadl_serializer@json_abi_v3_11_3@nlohmann@@V?$vector@EV?$allocator@E@std@@@2@X@json_abi_v3_11_3@nlohmann@@@std@@@std@@QAEPAV?$basic_json@Vmap@std@@Vvector@2@V?$basic_string@DU?$char_traits@D@std@@V?$allocator@D@2@@2@_N_J_KNVallocator@2@Uadl_serializer@json_abi_v3_11_3@nlohmann@@V?$vector@EV?$allocator@E@std@@@2@X@json_abi_v3_11_3@nlohmann@@QAV234@AA_J@Z 10045840 f i db.obj
 0001:00044a40       ??$_Emplace_reallocate@AA_N@?$vector@V?$basic_json@Vmap@std@@Vvector@2@V?$basic_string@DU?$char_traits@D@std@@V?$allocator@D@2@@2@_N_J_KNVallocator@2@Uadl_serializer@json_abi_v3_11_3@nlohmann@@V?$vector@EV?$allocator@E@std@@@2@X@json_abi_v3_11_3@nlohmann@@V?$allocator@V?$basic_json@Vmap@std@@Vvector@2@V?$basic_string@DU?$char_traits@D@std@@V?$allocator@D@2@@2@_N_J_KNVallocator@2@Uadl_serializer@json_abi_v3_11_3@nlohmann@@V?$vector@EV?$allocator@E@std@@@2@X@json_abi_v3_11_3@nlohmann@@@std@@@std@@QAEPAV?$basic_json@Vmap@std@@Vvector@2@V?$basic_string@DU?$char_traits@D@std@@V?$allocator@D@2@@2@_N_J_KNVallocator@2@Uadl_serializer@json_abi_v3_11_3@nlohmann@@V?$vector@EV?$allocator@E@std@@@2@X@json_abi_v3_11_3@nlohmann@@QAV234@AA_N@Z 10045a40 f i db.obj
 0001:00044c50       ??$_Emplace_reallocate@$$T@?$vector@V?$basic_json@Vmap@std@@Vvector@2@V?$basic_string@DU?$char_traits@D@std@@V?$allocator@D@2@@2@_N_J_KNVallocator@2@Uadl_serializer@json_abi_v3_11_3@nlohmann@@V?$vector@EV?$allocator@E@std@@@2@X@json_abi_v3_11_3@nlohmann@@V?$allocator@V?$basic_json@Vmap@std@@Vvector@2@V?$basic_string@DU?$char_traits@D@std@@V?$allocator@D@2@@2@_N_J_KNVallocator@2@Uadl_serializer@json_abi_v3_11_3@nlohmann@@V?$vector@EV?$allocator@E@std@@@2@X@json_abi_v3_11_3@nlohmann@@@std@@@std@@QAEPAV?$basic_json@Vmap@std@@Vvector@2@V?$basic_string@DU?$char_traits@D@std@@V?$allocator@D@2@@2@_N_J_KNVallocator@2@Uadl_serializer@json_abi_v3_11_3@nlohmann@@V?$vector@EV?$allocator@E@std@@@2@X@json_abi_v3_11_3@nlohmann@@QAV234@$$QA$$T@Z 10045c50 f i db.obj
 0001:00044e20       ??0?$vector@V?$basic_json@Vmap@std@@Vvector@2@V?$basic_string@DU?$char_traits@D@std@@V?$allocator@D@2@@2@_N_J_KNVallocator@2@Uadl_serializer@json_abi_v3_11_3@nlohmann@@V?$vector@EV?$allocator@E@std@@@2@X@json_abi_v3_11_3@nlohmann@@V?$allocator@V?$basic_json@Vmap@std@@Vvector@2@V?$basic_string@DU?$char_traits@D@std@@V?$allocator@D@2@@2@_N_J_KNVallocator@2@Uadl_serializer@json_abi_v3_11_3@nlohmann@@V?$vector@EV?$allocator@E@std@@@2@X@json_abi_v3_11_3@nlohmann@@@std@@@std@@QAE@ABV01@@Z 10045e20 f i db.obj
 0001:00044f40       ??0?$vector@EV?$allocator@E@std@@@std@@QAE@ABV01@@Z 10045f40 f i db.obj
 0001:00044ff0       ??$?0V?$allocator@U?$_Tree_node@U?$pair@$$CBV?$basic_string@DU?$char_traits@D@std@@V?$allocator@D@2@@std@@V?$basic_json@Vmap@std@@Vvector@2@V?$basic_string@DU?$char_traits@D@std@@V?$allocator@D@2@@2@_N_J_KNVallocator@2@Uadl_serializer@json_abi_v3_11_3@nlohmann@@V?$vector@EV?$allocator@E@std@@@2@X@json_abi_v3_11_3@nlohmann@@@std@@PAX@std@@@std@@@?$_Tree@V?$_Tmap_traits@V?$basic_string@DU?$char_traits@D@std@@V?$allocator@D@2@@std@@V?$basic_json@Vmap@std@@Vvector@2@V?$basic_string@DU?$char_traits@D@std@@V?$allocator@D@2@@2@_N_J_KNVallocator@2@Uadl_serializer@json_abi_v3_11_3@nlohmann@@V?$vector@EV?$allocator@E@std@@@2@X@json_abi_v3_11_3@nlohmann@@U?$less@X@2@V?$allocator@U?$pair@$$CBV?$basic_string@DU?$char_traits@D@std@@V?$allocator@D@2@@std@@V?$basic_json@Vmap@std@@Vvector@2@V?$basic_string@DU?$char_traits@D@std@@V?$allocator@D@2@@2@_N_J_KNVallocator@2@Uadl_serializer@json_abi_v3_11_3@nlohmann@@V?$vector@EV?$allocator@E@std@@@2@X@json_abi_v3_11_3@nlohmann@@@std@@@2@$0A@@std@@@std@@QAE@ABV01@$$QAV?$allocator@U?$_Tree_node@U?$pair@$$CBV?$basic_string@DU?$char_traits@D@std@@V?$allocator@D@2@@std@@V?$basic_json@Vmap@std@@Vvector@2@V?$basic_string@DU?$char_traits@D@std@@V?$allocator@D@2@@2@_N_J_KNVallocator@2@Uadl_serializer@json_abi_v3_11_3@nlohmann@@V?$vector@EV?$allocator@E@std@@@2@X@json_abi_v3_11_3@nlohmann@@@std@@PAX@std@@@1@@Z 10045ff0 f i db.obj
 0001:000450d0       ??$_Buynode@ABUpiecewise_construct_t@std@@V?$tuple@ABV?$basic_string@DU?$char_traits@D@std@@V?$allocator@D@2@@std@@@2@V?$tuple@$$V@2@@?$_Tree_comp_alloc@V?$_Tmap_traits@V?$basic_string@DU?$char_traits@D@std@@V?$allocator@D@2@@std@@V?$basic_json@Vmap@std@@Vvector@2@V?$basic_string@DU?$char_traits@D@std@@V?$allocator@D@2@@2@_N_J_KNVallocator@2@Uadl_serializer@json_abi_v3_11_3@nlohmann@@V?$vector@EV?$allocator@E@std@@@2@X@json_abi_v3_11_3@nlohmann@@U?$less@X@2@V?$allocator@U?$pair@$$CBV?$basic_string@DU?$char_traits@D@std@@V?$allocator@D@2@@std@@V?$basic_json@Vmap@std@@Vvector@2@V?$basic_string@DU?$char_traits@D@std@@V?$allocator@D@2@@2@_N_J_KNVallocator@2@Uadl_serializer@json_abi_v3_11_3@nlohmann@@V?$vector@EV?$allocator@E@std@@@2@X@json_abi_v3_11_3@nlohmann@@@std@@@2@$0A@@std@@@std@@QAEPAU?$_Tree_node@U?$pair@$$CBV?$basic_string@DU?$char_traits@D@std@@V?$allocator@D@2@@std@@V?$basic_json@Vmap@std@@Vvector@2@V?$basic_string@DU?$char_traits@D@std@@V?$allocator@D@2@@2@_N_J_KNVallocator@2@Uadl_serializer@json_abi_v3_11_3@nlohmann@@V?$vector@EV?$allocator@E@std@@@2@X@json_abi_v3_11_3@nlohmann@@@std@@PAX@1@ABUpiecewise_construct_t@1@$$QAV?$tuple@ABV?$basic_string@DU?$char_traits@D@std@@V?$allocator@D@2@@std@@@1@$$QAV?$tuple@$$V@1@@Z 100460d0 f i db.obj
 0001:00045160       ??$_Insert_hint@AAU?$pair@$$CBV?$basic_string@DU?$char_traits@D@std@@V?$allocator@D@2@@std@@V?$basic_json@Vmap@std@@Vvector@2@V?$basic_string@DU?$char_traits@D@std@@V?$allocator@D@2@@2@_N_J_KNVallocator@2@Uadl_serializer@json_abi_v3_11_3@nlohmann@@V?$vector@EV?$allocator@E@std@@@2@X@json_abi_v3_11_3@nlohmann@@@std@@PAU?$_Tree_node@U?$pair@$$CBV?$basic_string@DU?$char_traits@D@std@@V?$allocator@D@2@@std@@V?$basic_json@Vmap@std@@Vvector@2@V?$basic_string@DU?$char_traits@D@std@@V?$allocator@D@2@@2@_N_J_KNVallocator@2@Uadl_serializer@json_abi_v3_11_3@nlohmann@@V?$vector@EV?$allocator@E@std@@@2@X@json_abi_v3_11_3@nlohmann@@@std@@PAX@2@@?$_Tree@V?$_Tmap_traits@V?$basic_string@DU?$char_traits@D@std@@V?$allocator@D@2@@std@@V?$basic_json@Vmap@std@@Vvector@2@V?$basic_string@DU?$char_traits@D@std@@V?$allocator@D@2@@2@_N_J_KNVallocator@2@Uadl_serializer@json_abi_v3_11_3@nlohmann@@V?$vector@EV?$allocator@E@std@@@2@X@json_abi_v3_11_3@nlohmann@@U?$less@X@2@V?$allocator@U?$pair@$$CBV?$basic_string@DU?$char_traits@D@std@@V?$allocator@D@2@@std@@V?$basic_json@Vmap@std@@Vvector@2@V?$basic_string@DU?$char_traits@D@std@@V?$allocator@D@2@@2@_N_J_KNVallocator@2@Uadl_serializer@json_abi_v3_11_3@nlohmann@@V?$vector@EV?$allocator@E@std@@@2@X@json_abi_v3_11_3@nlohmann@@@std@@@2@$0A@@std@@@std@@IAE?AV?$_Tree_iterator@V?$_Tree_val@U?$_Tree_simple_types@U?$pair@$$CBV?$basic_string@DU?$char_traits@D@std@@V?$allocator@D@2@@std@@V?$basic_json@Vmap@std@@Vvector@2@V?$basic_string@DU?$char_traits@D@std@@V?$allocator@D@2@@2@_N_J_KNVallocator@2@Uadl_serializer@json_abi_v3_11_3@nlohmann@@V?$vector@EV?$allocator@E@std@@@2@X@json_abi_v3_11_3@nlohmann@@@std@@@std@@@std@@@1@V?$_Tree_const_iterator@V?$_Tree_val@U?$_Tree_simple_types@U?$pair@$$CBV?$basic_string@DU?$char_traits@D@std@@V?$allocator@D@2@@std@@V?$basic_json@Vmap@std@@Vvector@2@V?$basic_string@DU?$char_traits@D@std@@V?$allocator@D@2@@2@_N_J_KNVallocator@2@Uadl_serializer@json_abi_v3_11_3@nlohmann@@V?$vector@EV?$allocator@E@std@@@2@X@json_abi_v3_11_3@nlohmann@@@std@@@std@@@std@@@1@AAU?$pair@$$CBV?$basic_string@DU?$char_traits@D@std@@V?$allocator@D@2@@std@@V?$basic_json@Vmap@std@@Vvector@2@V?$basic_string@DU?$char_traits@D@std@@V?$allocator@D@2@@2@_N_J_KNVallocator@2@Uadl_serializer@json_abi_v3_11_3@nlohmann@@V?$vector@EV?$allocator@E@std@@@2@X@json_abi_v3_11_3@nlohmann@@@1@PAU?$_Tree_node@U?$pair@$$CBV?$basic_string@DU?$char_traits@D@std@@V?$allocator@D@2@@std@@V?$basic_json@Vmap@std@@Vvector@2@V?$basic_string@DU?$char_traits@D@std@@V?$allocator@D@2@@2@_N_J_KNVallocator@2@Uadl_serializer@json_abi_v3_11_3@nlohmann@@V?$vector@EV?$allocator@E@std@@@2@X@json_abi_v3_11_3@nlohmann@@@std@@PAX@1@@Z 10046160 f i db.obj
 0001:000454b0       ??$_Copy_nodes@U_Copy_tag@?$_Tree@V?$_Tmap_traits@V?$basic_string@DU?$char_traits@D@std@@V?$allocator@D@2@@std@@V?$basic_json@Vmap@std@@Vvector@2@V?$basic_string@DU?$char_traits@D@std@@V?$allocator@D@2@@2@_N_J_KNVallocator@2@Uadl_serializer@json_abi_v3_11_3@nlohmann@@V?$vector@EV?$allocator@E@std@@@2@X@json_abi_v3_11_3@nlohmann@@U?$less@X@2@V?$allocator@U?$pair@$$CBV?$basic_string@DU?$char_traits@D@std@@V?$allocator@D@2@@std@@V?$basic_json@Vmap@std@@Vvector@2@V?$basic_string@DU?$char_traits@D@std@@V?$allocator@D@2@@2@_N_J_KNVallocator@2@Uadl_serializer@json_abi_v3_11_3@nlohmann@@V?$vector@EV?$allocator@E@std@@@2@X@json_abi_v3_11_3@nlohmann@@@std@@@2@$0A@@std@@@std@@@?$_Tree@V?$_Tmap_traits@V?$basic_string@DU?$char_traits@D@std@@V?$allocator@D@2@@std@@V?$basic_json@Vmap@std@@Vvector@2@V?$basic_string@DU?$char_traits@D@std@@V?$allocator@D@2@@2@_N_J_KNVallocator@2@Uadl_serializer@json_abi_v3_11_3@nlohmann@@V?$vector@EV?$allocator@E@std@@@2@X@json_abi_v3_11_3@nlohmann@@U?$less@X@2@V?$allocator@U?$pair@$$CBV?$basic_string@DU?$char_traits@D@std@@V?$allocator@D@2@@std@@V?$basic_json@Vmap@std@@Vvector@2@V?$basic_string@DU?$char_traits@D@std@@V?$allocator@D@2@@2@_N_J_KNVallocator@2@Uadl_serializer@json_abi_v3_11_3@nlohmann@@V?$vector@EV?$allocator@E@std@@@2@X@json_abi_v3_11_3@nlohmann@@@std@@@2@$0A@@std@@@std@@IAEPAU?$_Tree_node@U?$pair@$$CBV?$basic_string@DU?$char_traits@D@std@@V?$allocator@D@2@@std@@V?$basic_json@Vmap@std@@Vvector@2@V?$basic_string@DU?$char_traits@D@std@@V?$allocator@D@2@@2@_N_J_KNVallocator@2@Uadl_serializer@json_abi_v3_11_3@nlohmann@@V?$vector@EV?$allocator@E@std@@@2@X@json_abi_v3_11_3@nlohmann@@@std@@PAX@1@PAU21@0U_Copy_tag@01@@Z 100464b0 f i db.obj
 0001:00045570       ??$_Buynode@AAU?$pair@$$CBV?$basic_string@DU?$char_traits@D@std@@V?$allocator@D@2@@std@@V?$basic_json@Vmap@std@@Vvector@2@V?$basic_string@DU?$char_traits@D@std@@V?$allocator@D@2@@2@_N_J_KNVallocator@2@Uadl_serializer@json_abi_v3_11_3@nlohmann@@V?$vector@EV?$allocator@E@std@@@2@X@json_abi_v3_11_3@nlohmann@@@std@@@?$_Tree_comp_alloc@V?$_Tmap_traits@V?$basic_string@DU?$char_traits@D@std@@V?$allocator@D@2@@std@@V?$basic_json@Vmap@std@@Vvector@2@V?$basic_string@DU?$char_traits@D@std@@V?$allocator@D@2@@2@_N_J_KNVallocator@2@Uadl_serializer@json_abi_v3_11_3@nlohmann@@V?$vector@EV?$allocator@E@std@@@2@X@json_abi_v3_11_3@nlohmann@@U?$less@X@2@V?$allocator@U?$pair@$$CBV?$basic_string@DU?$char_traits@D@std@@V?$allocator@D@2@@std@@V?$basic_json@Vmap@std@@Vvector@2@V?$basic_string@DU?$char_traits@D@std@@V?$allocator@D@2@@2@_N_J_KNVallocator@2@Uadl_serializer@json_abi_v3_11_3@nlohmann@@V?$vector@EV?$allocator@E@std@@@2@X@json_abi_v3_11_3@nlohmann@@@std@@@2@$0A@@std@@@std@@QAEPAU?$_Tree_node@U?$pair@$$CBV?$basic_string@DU?$char_traits@D@std@@V?$allocator@D@2@@std@@V?$basic_json@Vmap@std@@Vvector@2@V?$basic_string@DU?$char_traits@D@std@@V?$allocator@D@2@@2@_N_J_KNVallocator@2@Uadl_serializer@json_abi_v3_11_3@nlohmann@@V?$vector@EV?$allocator@E@std@@@2@X@json_abi_v3_11_3@nlohmann@@@std@@PAX@1@AAU?$pair@$$CBV?$basic_string@DU?$char_traits@D@std@@V?$allocator@D@2@@std@@V?$basic_json@Vmap@std@@Vvector@2@V?$basic_string@DU?$char_traits@D@std@@V?$allocator@D@2@@2@_N_J_KNVallocator@2@Uadl_serializer@json_abi_v3_11_3@nlohmann@@V?$vector@EV?$allocator@E@std@@@2@X@json_abi_v3_11_3@nlohmann@@@1@@Z 10046570 f i db.obj
 0001:00045600       _gameInit                  10046600 f   Dll.obj
 0001:00045610       _DllMain@12                10046610 f   Dll.obj
 0001:00045620       _newAIModule               10046620 f   Dll.obj
 0001:00045640       ?playerScores@FastAPproximation@UAlbertaBot@@QBE?AU?$pair@HH@std@@XZ 10046640 f   FAP.obj
 0001:000456d0       ?dealDamage@FastAPproximation@UAlbertaBot@@ABEXABUFAPUnit@12@HVDamageType@BWAPI@@@Z 100466d0 f   FAP.obj
 0001:00045760       ?unitsim@FastAPproximation@UAlbertaBot@@AAEXABUFAPUnit@12@AAV?$vector@UFAPUnit@FastAPproximation@UAlbertaBot@@V?$allocator@UFAPUnit@FastAPproximation@UAlbertaBot@@@std@@@std@@@Z 10046760 f   FAP.obj
 0001:000459e0       ?medicsim@FastAPproximation@UAlbertaBot@@AAEXABUFAPUnit@12@AAV?$vector@UFAPUnit@FastAPproximation@UAlbertaBot@@V?$allocator@UFAPUnit@FastAPproximation@UAlbertaBot@@@std@@@std@@@Z 100469e0 f   FAP.obj
 0001:00045aa0       ?suicideSim@FastAPproximation@UAlbertaBot@@AAE_NABUFAPUnit@12@AAV?$vector@UFAPUnit@FastAPproximation@UAlbertaBot@@V?$allocator@UFAPUnit@FastAPproximation@UAlbertaBot@@@std@@@std@@@Z 10046aa0 f   FAP.obj
 0001:00045c50       ?isimulate@FastAPproximation@UAlbertaBot@@AAEX_N@Z 10046c50 f   FAP.obj
 0001:00045e50       ?unitDeath@FastAPproximation@UAlbertaBot@@AAEXABUFAPUnit@12@AAV?$vector@UFAPUnit@FastAPproximation@UAlbertaBot@@V?$allocator@UFAPUnit@FastAPproximation@UAlbertaBot@@@std@@@std@@@Z 10046e50 f   FAP.obj
 0001:00045f10       ??0FAPUnit@FastAPproximation@UAlbertaBot@@QAE@ABUUnitInfo@2@@Z 10046f10 f   FAP.obj
 0001:000464f0       ??4FAPUnit@FastAPproximation@UAlbertaBot@@QBEABU012@ABU012@@Z 100474f0 f   FAP.obj
 0001:000465b0       ??$_Emplace_reallocate@ABUFAPUnit@FastAPproximation@UAlbertaBot@@@?$vector@UFAPUnit@FastAPproximation@UAlbertaBot@@V?$allocator@UFAPUnit@FastAPproximation@UAlbertaBot@@@std@@@std@@QAEPAUFAPUnit@FastAPproximation@UAlbertaBot@@QAU234@ABU234@@Z 100475b0 f i FAP.obj
 0001:00046760       ??1TimerManager@UAlbertaBot@@QAE@XZ 10047760 f i GameCommander.obj
 0001:00046780       ?update@GameCommander@UAlbertaBot@@QAEXXZ 10047780 f   GameCommander.obj
 0001:00046f10       ?drawDebugInterface@GameCommander@UAlbertaBot@@AAEXXZ 10047f10 f   GameCommander.obj
 0001:00047530       ?drawGameInformation@GameCommander@UAlbertaBot@@AAEXHH@Z 10048530 f   GameCommander.obj
 0001:00047d40       ?drawUnitOrders@GameCommander@UAlbertaBot@@AAEXXZ 10048d40 f   GameCommander.obj
 0001:00048420       ?drawUnitCounts@GameCommander@UAlbertaBot@@ABEXHH@Z 10049420 f   GameCommander.obj
 0001:00048b40       ?drawDefenseClusters@GameCommander@UAlbertaBot@@AAEXXZ 10049b40 f   GameCommander.obj
 0001:00048d90       ?setCombatUnits@GameCommander@UAlbertaBot@@QAEXXZ 10049d90 f   GameCommander.obj
 0001:00048f00       ?surrenderMonkey@GameCommander@UAlbertaBot@@AAE_NXZ 10049f00 f   GameCommander.obj
 0001:00049090       ?Instance@GameCommander@UAlbertaBot@@SAAAV12@XZ 1004a090 f   GameCommander.obj
 0001:000492b0       ?getName@?$Type@VTechType@BWAPI@@$0CO@@BWAPI@@QBEABV?$basic_string@DU?$char_traits@D@std@@V?$allocator@D@2@@std@@XZ 1004a2b0 f i GameCommander.obj
 0001:000492d0       ??1?$deque@VUnitType@BWAPI@@V?$allocator@VUnitType@BWAPI@@@std@@@std@@QAE@XZ 1004a2d0 f i GameCommander.obj
 0001:00049380       ??4?$basic_string@DU?$char_traits@D@std@@V?$allocator@D@2@@std@@QAEAAV01@ABV01@@Z 1004a380 f i GameCommander.obj
 0001:000493b0       ??$_Lbound@V?$basic_string@DU?$char_traits@D@std@@V?$allocator@D@2@@std@@@?$_Tree@V?$_Tmap_traits@V?$basic_string@DU?$char_traits@D@std@@V?$allocator@D@2@@std@@UOpeningInfoType@OpponentModel@UAlbertaBot@@U?$less@V?$basic_string@DU?$char_traits@D@std@@V?$allocator@D@2@@std@@@2@V?$allocator@U?$pair@$$CBV?$basic_string@DU?$char_traits@D@std@@V?$allocator@D@2@@std@@UOpeningInfoType@OpponentModel@UAlbertaBot@@@std@@@2@$0A@@std@@@std@@IBEPAU?$_Tree_node@U?$pair@$$CBV?$basic_string@DU?$char_traits@D@std@@V?$allocator@D@2@@std@@UOpeningInfoType@OpponentModel@UAlbertaBot@@@std@@PAX@1@ABV?$basic_string@DU?$char_traits@D@std@@V?$allocator@D@2@@1@@Z 1004a3b0 f i GameCommander.obj
 0001:00049410       ??0UnitType@BWAPI@@QAE@H@Z 1004a410 f i GameRecord.obj
 0001:000494a0       ?readNumber@GameRecord@UAlbertaBot@@IAEHAAV?$basic_istream@DU?$char_traits@D@std@@@std@@@Z 1004a4a0 f   GameRecord.obj
 0001:000495a0       ??0game_record_read_error@@QAE@XZ 1004a5a0 f i GameRecord.obj
 0001:000495c0       ??0game_record_read_error@@QAE@ABV0@@Z 1004a5c0 f i GameRecord.obj
 0001:00049600       ?readNumber@GameRecord@UAlbertaBot@@IAEHAAV?$basic_string@DU?$char_traits@D@std@@V?$allocator@D@2@@std@@@Z 1004a600 f   GameRecord.obj
 0001:00049700       ??_D?$basic_istringstream@DU?$char_traits@D@std@@V?$allocator@D@2@@std@@QAEXXZ 1004a700 f i GameRecord.obj
 0001:00049750       ?parseMatchup@GameRecord@UAlbertaBot@@IAEXABV?$basic_string@DU?$char_traits@D@std@@V?$allocator@D@2@@std@@@Z 1004a750 f   GameRecord.obj
 0001:000498a0       ?readOpeningPlan@GameRecord@UAlbertaBot@@IAE?AW4OpeningPlan@2@AAV?$basic_istream@DU?$char_traits@D@std@@@std@@@Z 1004a8a0 f   GameRecord.obj
 0001:000499e0       ?readPlayerSnapshot@GameRecord@UAlbertaBot@@IAE_NAAV?$basic_istream@DU?$char_traits@D@std@@@std@@AAVPlayerSnapshot@2@@Z 1004a9e0 f   GameRecord.obj
 0001:00049c60       ?readGameSnapshot@GameRecord@UAlbertaBot@@IAEPAUGameSnapshot@2@AAV?$basic_istream@DU?$char_traits@D@std@@@std@@@Z 1004ac60 f   GameRecord.obj
 0001:00049e80       ?read_v3_0@GameRecord@UAlbertaBot@@IAEXAAV?$basic_istream@DU?$char_traits@D@std@@@std@@@Z 1004ae80 f   GameRecord.obj
 0001:0004a1e0       ?read_v1_4@GameRecord@UAlbertaBot@@IAEXAAV?$basic_istream@DU?$char_traits@D@std@@@std@@@Z 1004b1e0 f   GameRecord.obj
 0001:0004a440       ?read@GameRecord@UAlbertaBot@@IAEXAAV?$basic_istream@DU?$char_traits@D@std@@@std@@@Z 1004b440 f   GameRecord.obj
 0001:0004a660       ?writeSkills@GameRecord@UAlbertaBot@@MBEXAAV?$basic_ostream@DU?$char_traits@D@std@@@std@@@Z 1004b660 f   GameRecord.obj
 0001:0004a6b0       ??0GameRecord@UAlbertaBot@@QAE@XZ 1004b6b0 f   GameRecord.obj
 0001:0004a950       ??1?$map@PAVSkill@UAlbertaBot@@V?$map@HV?$vector@HV?$allocator@H@std@@@std@@U?$less@H@2@V?$allocator@U?$pair@$$CBHV?$vector@HV?$allocator@H@std@@@std@@@std@@@2@@std@@U?$less@PAVSkill@UAlbertaBot@@@4@V?$allocator@U?$pair@QAVSkill@UAlbertaBot@@V?$map@HV?$vector@HV?$allocator@H@std@@@std@@U?$less@H@2@V?$allocator@U?$pair@$$CBHV?$vector@HV?$allocator@H@std@@@std@@@std@@@2@@std@@@std@@@4@@std@@QAE@XZ 1004b950 f i GameRecord.obj
 0001:0004a980       ??1OpeningTimingRecord@UAlbertaBot@@QAE@XZ 1004b980 f i GameRecord.obj
 0001:0004aab0       ??1?$map@W4LurkerTactic@UAlbertaBot@@HU?$less@W4LurkerTactic@UAlbertaBot@@@std@@V?$allocator@U?$pair@$$CBW4LurkerTactic@UAlbertaBot@@H@std@@@4@@std@@QAE@XZ 1004bab0 f i SkillLurkers.obj
 0001:0004aab0       ??1?$set@V?$Point@H$0CA@@BWAPI@@U?$less@V?$Point@H$0CA@@BWAPI@@@std@@V?$allocator@V?$Point@H$0CA@@BWAPI@@@4@@std@@QAE@XZ 1004bab0 f i MicroOverlords.obj
 0001:0004aab0       ??1?$map@VUpgradeType@BWAPI@@HU?$less@VUpgradeType@BWAPI@@@std@@V?$allocator@U?$pair@$$CBVUpgradeType@BWAPI@@H@std@@@4@@std@@QAE@XZ 1004bab0 f i GameRecord.obj
 0001:0004ab50       ?write@GameRecord@UAlbertaBot@@QAEXAAV?$basic_ostream@DU?$char_traits@D@std@@@std@@@Z 1004bb50 f   GameRecord.obj
 0001:0004af10       ?setSkillInfo@GameRecord@UAlbertaBot@@QAEXPAVSkill@2@HABV?$vector@HV?$allocator@H@std@@@std@@@Z 1004bf10 f   GameRecord.obj
 0001:0004aff0       ?getID@?$Type@VTechType@BWAPI@@$0CO@@BWAPI@@QBEHXZ 1004bff0 f i BOSS:ActionTypeData.obj
 0001:0004aff0       ?getID@?$Type@VUnitType@BWAPI@@$0OJ@@BWAPI@@QBEHXZ 1004bff0 f i GameRecord.obj
 0001:0004b000       ??0?$basic_istringstream@DU?$char_traits@D@std@@V?$allocator@D@2@@std@@QAE@ABV?$basic_string@DU?$char_traits@D@std@@V?$allocator@D@2@@1@H@Z 1004c000 f i GameRecord.obj
 0001:0004b0a0       ??_G?$basic_istringstream@DU?$char_traits@D@std@@V?$allocator@D@2@@std@@UAEPAXI@Z 1004c0a0 f i GameRecord.obj
 0001:0004b0a0       ??_E?$basic_istringstream@DU?$char_traits@D@std@@V?$allocator@D@2@@std@@UAEPAXI@Z 1004c0a0 f i * CIL library *:* CIL module *
 0001:0004b110       ?erase@?$_Tree@V?$_Tmap_traits@PAVSkill@UAlbertaBot@@V?$map@HV?$vector@HV?$allocator@H@std@@@std@@U?$less@H@2@V?$allocator@U?$pair@$$CBHV?$vector@HV?$allocator@H@std@@@std@@@std@@@2@@std@@U?$less@PAVSkill@UAlbertaBot@@@4@V?$allocator@U?$pair@QAVSkill@UAlbertaBot@@V?$map@HV?$vector@HV?$allocator@H@std@@@std@@U?$less@H@2@V?$allocator@U?$pair@$$CBHV?$vector@HV?$allocator@H@std@@@std@@@std@@@2@@std@@@std@@@4@$0A@@std@@@std@@QAE?AV?$_Tree_iterator@V?$_Tree_val@U?$_Tree_simple_types@U?$pair@QAVSkill@UAlbertaBot@@V?$map@HV?$vector@HV?$allocator@H@std@@@std@@U?$less@H@2@V?$allocator@U?$pair@$$CBHV?$vector@HV?$allocator@H@std@@@std@@@std@@@2@@std@@@std@@@std@@@std@@@2@V?$_Tree_const_iterator@V?$_Tree_val@U?$_Tree_simple_types@U?$pair@QAVSkill@UAlbertaBot@@V?$map@HV?$vector@HV?$allocator@H@std@@@std@@U?$less@H@2@V?$allocator@U?$pair@$$CBHV?$vector@HV?$allocator@H@std@@@std@@@std@@@2@@std@@@std@@@std@@@std@@@2@0@Z 1004c110 f i GameRecord.obj
 0001:0004b2a0       ?_Buyheadnode@?$_Tree_comp_alloc@V?$_Tmap_traits@PAVUnitInterface@BWAPI@@V?$Point@H$0CA@@2@U?$less@PAVUnitInterface@BWAPI@@@std@@V?$allocator@U?$pair@QAVUnitInterface@BWAPI@@V?$Point@H$0CA@@2@@std@@@5@$0A@@std@@@std@@QAEPAU?$_Tree_node@U?$pair@QAVUnitInterface@BWAPI@@V?$Point@H$0CA@@2@@std@@PAX@2@XZ 1004c2a0 f i MicroOverlords.obj
 0001:0004b2a0       ?_Buyheadnode@?$_Tree_comp_alloc@V?$_Tmap_traits@PAVPlayerInterface@BWAPI@@V?$set@PBVZone@UAlbertaBot@@U?$less@PBVZone@UAlbertaBot@@@std@@V?$allocator@PBVZone@UAlbertaBot@@@4@@std@@U?$less@PAVPlayerInterface@BWAPI@@@4@V?$allocator@U?$pair@QAVPlayerInterface@BWAPI@@V?$set@PBVZone@UAlbertaBot@@U?$less@PBVZone@UAlbertaBot@@@std@@V?$allocator@PBVZone@UAlbertaBot@@@4@@std@@@std@@@4@$0A@@std@@@std@@QAEPAU?$_Tree_node@U?$pair@QAVPlayerInterface@BWAPI@@V?$set@PBVZone@UAlbertaBot@@U?$less@PBVZone@UAlbertaBot@@@std@@V?$allocator@PBVZone@UAlbertaBot@@@4@@std@@@std@@PAX@2@XZ 1004c2a0 f i InformationManager.obj
 0001:0004b2a0       ?_Buyheadnode@?$_Tree_comp_alloc@V?$_Tmap_traits@PAVSkill@UAlbertaBot@@V?$map@HV?$vector@HV?$allocator@H@std@@@std@@U?$less@H@2@V?$allocator@U?$pair@$$CBHV?$vector@HV?$allocator@H@std@@@std@@@std@@@2@@std@@U?$less@PAVSkill@UAlbertaBot@@@4@V?$allocator@U?$pair@QAVSkill@UAlbertaBot@@V?$map@HV?$vector@HV?$allocator@H@std@@@std@@U?$less@H@2@V?$allocator@U?$pair@$$CBHV?$vector@HV?$allocator@H@std@@@std@@@std@@@2@@std@@@std@@@4@$0A@@std@@@std@@QAEPAU?$_Tree_node@U?$pair@QAVSkill@UAlbertaBot@@V?$map@HV?$vector@HV?$allocator@H@std@@@std@@U?$less@H@2@V?$allocator@U?$pair@$$CBHV?$vector@HV?$allocator@H@std@@@std@@@std@@@2@@std@@@std@@PAX@2@XZ 1004c2a0 f i GameRecord.obj
 0001:0004b2c0       ?_Erase@?$_Tree@V?$_Tmap_traits@PAVSkill@UAlbertaBot@@V?$map@HV?$vector@HV?$allocator@H@std@@@std@@U?$less@H@2@V?$allocator@U?$pair@$$CBHV?$vector@HV?$allocator@H@std@@@std@@@std@@@2@@std@@U?$less@PAVSkill@UAlbertaBot@@@4@V?$allocator@U?$pair@QAVSkill@UAlbertaBot@@V?$map@HV?$vector@HV?$allocator@H@std@@@std@@U?$less@H@2@V?$allocator@U?$pair@$$CBHV?$vector@HV?$allocator@H@std@@@std@@@std@@@2@@std@@@std@@@4@$0A@@std@@@std@@IAEXPAU?$_Tree_node@U?$pair@QAVSkill@UAlbertaBot@@V?$map@HV?$vector@HV?$allocator@H@std@@@std@@U?$less@H@2@V?$allocator@U?$pair@$$CBHV?$vector@HV?$allocator@H@std@@@std@@@std@@@2@@std@@@std@@PAX@2@@Z 1004c2c0 f i GameRecord.obj
 0001:0004b370       ??$?6DU?$char_traits@D@std@@V?$allocator@D@1@@std@@YAAAV?$basic_ostream@DU?$char_traits@D@std@@@0@AAV10@ABV?$basic_string@DU?$char_traits@D@std@@V?$allocator@D@2@@0@@Z 1004c370 f i GameRecord.obj
 0001:0004b390       ??$_Emplace_reallocate@ABV?$basic_string@DU?$char_traits@D@std@@V?$allocator@D@2@@std@@@?$vector@V?$basic_string@DU?$char_traits@D@std@@V?$allocator@D@2@@std@@V?$allocator@V?$basic_string@DU?$char_traits@D@std@@V?$allocator@D@2@@std@@@2@@std@@QAEPAV?$basic_string@DU?$char_traits@D@std@@V?$allocator@D@2@@1@QAV21@ABV21@@Z 1004c390 f i GameRecord.obj
 0001:0004b530       ??$?0V?$allocator@U?$_Tree_node@U?$pair@$$CBVUnitType@BWAPI@@H@std@@PAX@std@@@std@@@?$_Tree@V?$_Tmap_traits@VUnitType@BWAPI@@HU?$less@VUnitType@BWAPI@@@std@@V?$allocator@U?$pair@$$CBVUnitType@BWAPI@@H@std@@@4@$0A@@std@@@std@@QAE@ABV01@$$QAV?$allocator@U?$_Tree_node@U?$pair@$$CBVUnitType@BWAPI@@H@std@@PAX@std@@@1@@Z 1004c530 f i GameRecord.obj
 0001:0004b5c0       ??1sentry@?$basic_istream@DU?$char_traits@D@std@@@std@@QAE@XZ 1004c5c0 f i GameRecord.obj
 0001:0004b610       ?_Change_array@?$vector@V?$basic_string@DU?$char_traits@D@std@@V?$allocator@D@2@@std@@V?$allocator@V?$basic_string@DU?$char_traits@D@std@@V?$allocator@D@2@@std@@@2@@std@@AAEXQAV?$basic_string@DU?$char_traits@D@std@@V?$allocator@D@2@@2@II@Z 1004c610 f i GameRecord.obj
 0001:0004b6a0       ?_Erase@?$_Tree@V?$_Tmap_traits@HV?$vector@HV?$allocator@H@std@@@std@@U?$less@H@2@V?$allocator@U?$pair@$$CBHV?$vector@HV?$allocator@H@std@@@std@@@std@@@2@$0A@@std@@@std@@IAEXPAU?$_Tree_node@U?$pair@$$CBHV?$vector@HV?$allocator@H@std@@@std@@@std@@PAX@2@@Z 1004c6a0 f i GameRecord.obj
 0001:0004b6f0       ??$getline@DU?$char_traits@D@std@@V?$allocator@D@2@@std@@YAAAV?$basic_istream@DU?$char_traits@D@std@@@0@$$QAV10@AAV?$basic_string@DU?$char_traits@D@std@@V?$allocator@D@2@@0@D@Z 1004c6f0 f i GameRecord.obj
 0001:0004b860       ??$_Insert_string@DU?$char_traits@D@std@@I@std@@YAAAV?$basic_ostream@DU?$char_traits@D@std@@@0@AAV10@QBDI@Z 1004c860 f i GameRecord.obj
 0001:0004ba70       ??$_Assign_range@PAH@?$vector@HV?$allocator@H@std@@@std@@AAEXPAH0Uforward_iterator_tag@1@@Z 1004ca70 f i GameRecord.obj
 0001:0004bba0       ??$_Uninitialized_move@PAV?$basic_string@DU?$char_traits@D@std@@V?$allocator@D@2@@std@@PAV12@V?$allocator@V?$basic_string@DU?$char_traits@D@std@@V?$allocator@D@2@@std@@@2@@std@@YAPAV?$basic_string@DU?$char_traits@D@std@@V?$allocator@D@2@@0@QAV10@0PAV10@AAV?$allocator@V?$basic_string@DU?$char_traits@D@std@@V?$allocator@D@2@@std@@@0@@Z 1004cba0 f i GameRecord.obj
 0001:0004bc00       ??$_Buynode@ABUpiecewise_construct_t@std@@V?$tuple@ABQAVSkill@UAlbertaBot@@@2@V?$tuple@$$V@2@@?$_Tree_comp_alloc@V?$_Tmap_traits@PAVSkill@UAlbertaBot@@V?$map@HV?$vector@HV?$allocator@H@std@@@std@@U?$less@H@2@V?$allocator@U?$pair@$$CBHV?$vector@HV?$allocator@H@std@@@std@@@std@@@2@@std@@U?$less@PAVSkill@UAlbertaBot@@@4@V?$allocator@U?$pair@QAVSkill@UAlbertaBot@@V?$map@HV?$vector@HV?$allocator@H@std@@@std@@U?$less@H@2@V?$allocator@U?$pair@$$CBHV?$vector@HV?$allocator@H@std@@@std@@@std@@@2@@std@@@std@@@4@$0A@@std@@@std@@QAEPAU?$_Tree_node@U?$pair@QAVSkill@UAlbertaBot@@V?$map@HV?$vector@HV?$allocator@H@std@@@std@@U?$less@H@2@V?$allocator@U?$pair@$$CBHV?$vector@HV?$allocator@H@std@@@std@@@std@@@2@@std@@@std@@PAX@1@ABUpiecewise_construct_t@1@$$QAV?$tuple@ABQAVSkill@UAlbertaBot@@@1@$$QAV?$tuple@$$V@1@@Z 1004cc00 f i GameRecord.obj
 0001:0004bc90       ??$_Insert_hint@AAU?$pair@QAVSkill@UAlbertaBot@@V?$map@HV?$vector@HV?$allocator@H@std@@@std@@U?$less@H@2@V?$allocator@U?$pair@$$CBHV?$vector@HV?$allocator@H@std@@@std@@@std@@@2@@std@@@std@@PAU?$_Tree_node@U?$pair@QAVSkill@UAlbertaBot@@V?$map@HV?$vector@HV?$allocator@H@std@@@std@@U?$less@H@2@V?$allocator@U?$pair@$$CBHV?$vector@HV?$allocator@H@std@@@std@@@std@@@2@@std@@@std@@PAX@2@@?$_Tree@V?$_Tmap_traits@PAVSkill@UAlbertaBot@@V?$map@HV?$vector@HV?$allocator@H@std@@@std@@U?$less@H@2@V?$allocator@U?$pair@$$CBHV?$vector@HV?$allocator@H@std@@@std@@@std@@@2@@std@@U?$less@PAVSkill@UAlbertaBot@@@4@V?$allocator@U?$pair@QAVSkill@UAlbertaBot@@V?$map@HV?$vector@HV?$allocator@H@std@@@std@@U?$less@H@2@V?$allocator@U?$pair@$$CBHV?$vector@HV?$allocator@H@std@@@std@@@std@@@2@@std@@@std@@@4@$0A@@std@@@std@@IAE?AV?$_Tree_iterator@V?$_Tree_val@U?$_Tree_simple_types@U?$pair@QAVSkill@UAlbertaBot@@V?$map@HV?$vector@HV?$allocator@H@std@@@std@@U?$less@H@2@V?$allocator@U?$pair@$$CBHV?$vector@HV?$allocator@H@std@@@std@@@std@@@2@@std@@@std@@@std@@@std@@@1@V?$_Tree_const_iterator@V?$_Tree_val@U?$_Tree_simple_types@U?$pair@QAVSkill@UAlbertaBot@@V?$map@HV?$vector@HV?$allocator@H@std@@@std@@U?$less@H@2@V?$allocator@U?$pair@$$CBHV?$vector@HV?$allocator@H@std@@@std@@@std@@@2@@std@@@std@@@std@@@std@@@1@AAU?$pair@QAVSkill@UAlbertaBot@@V?$map@HV?$vector@HV?$allocator@H@std@@@std@@U?$less@H@2@V?$allocator@U?$pair@$$CBHV?$vector@HV?$allocator@H@std@@@std@@@std@@@2@@std@@@1@PAU?$_Tree_node@U?$pair@QAVSkill@UAlbertaBot@@V?$map@HV?$vector@HV?$allocator@H@std@@@std@@U?$less@H@2@V?$allocator@U?$pair@$$CBHV?$vector@HV?$allocator@H@std@@@std@@@std@@@2@@std@@@std@@PAX@1@@Z 1004cc90 f i GameRecord.obj
 0001:0004bf20       ??$_Buynode@ABUpiecewise_construct_t@std@@V?$tuple@ABH@2@V?$tuple@$$V@2@@?$_Tree_comp_alloc@V?$_Tmap_traits@HV?$vector@HV?$allocator@H@std@@@std@@U?$less@H@2@V?$allocator@U?$pair@$$CBHV?$vector@HV?$allocator@H@std@@@std@@@std@@@2@$0A@@std@@@std@@QAEPAU?$_Tree_node@U?$pair@$$CBHV?$vector@HV?$allocator@H@std@@@std@@@std@@PAX@1@ABUpiecewise_construct_t@1@$$QAV?$tuple@ABH@1@$$QAV?$tuple@$$V@1@@Z 1004cf20 f i GameRecord.obj
 0001:0004bf60       ??$_Insert_hint@AAU?$pair@$$CBHV?$vector@HV?$allocator@H@std@@@std@@@std@@PAU?$_Tree_node@U?$pair@$$CBHV?$vector@HV?$allocator@H@std@@@std@@@std@@PAX@2@@?$_Tree@V?$_Tmap_traits@HV?$vector@HV?$allocator@H@std@@@std@@U?$less@H@2@V?$allocator@U?$pair@$$CBHV?$vector@HV?$allocator@H@std@@@std@@@std@@@2@$0A@@std@@@std@@IAE?AV?$_Tree_iterator@V?$_Tree_val@U?$_Tree_simple_types@U?$pair@$$CBHV?$vector@HV?$allocator@H@std@@@std@@@std@@@std@@@std@@@1@V?$_Tree_const_iterator@V?$_Tree_val@U?$_Tree_simple_types@U?$pair@$$CBHV?$vector@HV?$allocator@H@std@@@std@@@std@@@std@@@std@@@1@AAU?$pair@$$CBHV?$vector@HV?$allocator@H@std@@@std@@@1@PAU?$_Tree_node@U?$pair@$$CBHV?$vector@HV?$allocator@H@std@@@std@@@std@@PAX@1@@Z 1004cf60 f i GameRecord.obj
 0001:0004c1f0       ?_Buynode0@?$_Tree_comp_alloc@V?$_Tmap_traits@PAVUnitInterface@BWAPI@@VWorkerPost@WorkerData@UAlbertaBot@@U?$less@PAVUnitInterface@BWAPI@@@std@@V?$allocator@U?$pair@QAVUnitInterface@BWAPI@@VWorkerPost@WorkerData@UAlbertaBot@@@std@@@7@$0A@@std@@@std@@QAEPAU?$_Tree_node@U?$pair@QAVUnitInterface@BWAPI@@VWorkerPost@WorkerData@UAlbertaBot@@@std@@PAX@2@XZ 1004d1f0 f i WorkerData.obj
 0001:0004c1f0       ?_Buynode0@?$_Tree_comp_alloc@V?$_Tmap_traits@PAVUnitInterface@BWAPI@@VCasterState@UAlbertaBot@@U?$less@PAVUnitInterface@BWAPI@@@std@@V?$allocator@U?$pair@QAVUnitInterface@BWAPI@@VCasterState@UAlbertaBot@@@std@@@6@$0A@@std@@@std@@QAEPAU?$_Tree_node@U?$pair@QAVUnitInterface@BWAPI@@VCasterState@UAlbertaBot@@@std@@PAX@2@XZ 1004d1f0 f i MicroManager.obj
 0001:0004c1f0       ?_Buynode0@?$_Tree_comp_alloc@V?$_Tmap_traits@HV?$vector@HV?$allocator@H@std@@@std@@U?$less@H@2@V?$allocator@U?$pair@$$CBHV?$vector@HV?$allocator@H@std@@@std@@@std@@@2@$0A@@std@@@std@@QAEPAU?$_Tree_node@U?$pair@$$CBHV?$vector@HV?$allocator@H@std@@@std@@@std@@PAX@2@XZ 1004d1f0 f i GameRecord.obj
 0001:0004c210       ?_Destroy_if_node@?$_Tree@V?$_Tmap_traits@HV?$vector@HV?$allocator@H@std@@@std@@U?$less@H@2@V?$allocator@U?$pair@$$CBHV?$vector@HV?$allocator@H@std@@@std@@@std@@@2@$0A@@std@@@std@@IAEXPAU?$_Tree_node@U?$pair@$$CBHV?$vector@HV?$allocator@H@std@@@std@@@std@@PAX@2@@Z 1004d210 f i GameRecord.obj
 0001:0004c230       ?_Destroy_if_node@?$_Tree@V?$_Tmap_traits@PAVUnitInterface@BWAPI@@V?$Point@H$0CA@@2@U?$less@PAVUnitInterface@BWAPI@@@std@@V?$allocator@U?$pair@QAVUnitInterface@BWAPI@@V?$Point@H$0CA@@2@@std@@@5@$0A@@std@@@std@@IAEXPAU?$_Tree_node@U?$pair@QAVUnitInterface@BWAPI@@V?$Point@H$0CA@@2@@std@@PAX@2@@Z 1004d230 f i MicroOverlords.obj
 0001:0004c230       ?_Freenode0@?$_Tree_comp_alloc@V?$_Tmap_traits@PAVSkill@UAlbertaBot@@V?$map@HV?$vector@HV?$allocator@H@std@@@std@@U?$less@H@2@V?$allocator@U?$pair@$$CBHV?$vector@HV?$allocator@H@std@@@std@@@std@@@2@@std@@U?$less@PAVSkill@UAlbertaBot@@@4@V?$allocator@U?$pair@QAVSkill@UAlbertaBot@@V?$map@HV?$vector@HV?$allocator@H@std@@@std@@U?$less@H@2@V?$allocator@U?$pair@$$CBHV?$vector@HV?$allocator@H@std@@@std@@@std@@@2@@std@@@std@@@4@$0A@@std@@@std@@QAEXPAU?$_Tree_node@U?$pair@QAVSkill@UAlbertaBot@@V?$map@HV?$vector@HV?$allocator@H@std@@@std@@U?$less@H@2@V?$allocator@U?$pair@$$CBHV?$vector@HV?$allocator@H@std@@@std@@@std@@@2@@std@@@std@@PAX@2@@Z 1004d230 f i GameRecord.obj
 0001:0004c230       ?_Freenode0@?$_Tree_comp_alloc@V?$_Tmap_traits@PAVPlayerInterface@BWAPI@@V?$set@PBVZone@UAlbertaBot@@U?$less@PBVZone@UAlbertaBot@@@std@@V?$allocator@PBVZone@UAlbertaBot@@@4@@std@@U?$less@PAVPlayerInterface@BWAPI@@@4@V?$allocator@U?$pair@QAVPlayerInterface@BWAPI@@V?$set@PBVZone@UAlbertaBot@@U?$less@PBVZone@UAlbertaBot@@@std@@V?$allocator@PBVZone@UAlbertaBot@@@4@@std@@@std@@@4@$0A@@std@@@std@@QAEXPAU?$_Tree_node@U?$pair@QAVPlayerInterface@BWAPI@@V?$set@PBVZone@UAlbertaBot@@U?$less@PBVZone@UAlbertaBot@@@std@@V?$allocator@PBVZone@UAlbertaBot@@@4@@std@@@std@@PAX@2@@Z 1004d230 f i InformationManager.obj
 0001:0004c250       ?_Buynode0@?$_Tree_comp_alloc@V?$_Tmap_traits@PAVPlayerInterface@BWAPI@@V?$set@PBVZone@UAlbertaBot@@U?$less@PBVZone@UAlbertaBot@@@std@@V?$allocator@PBVZone@UAlbertaBot@@@4@@std@@U?$less@PAVPlayerInterface@BWAPI@@@4@V?$allocator@U?$pair@QAVPlayerInterface@BWAPI@@V?$set@PBVZone@UAlbertaBot@@U?$less@PBVZone@UAlbertaBot@@@std@@V?$allocator@PBVZone@UAlbertaBot@@@4@@std@@@std@@@4@$0A@@std@@@std@@QAEPAU?$_Tree_node@U?$pair@QAVPlayerInterface@BWAPI@@V?$set@PBVZone@UAlbertaBot@@U?$less@PBVZone@UAlbertaBot@@@std@@V?$allocator@PBVZone@UAlbertaBot@@@4@@std@@@std@@PAX@2@XZ 1004d250 f i InformationManager.obj
 0001:0004c250       ?_Buynode0@?$_Tree_comp_alloc@V?$_Tmap_traits@PAVSkill@UAlbertaBot@@V?$map@HV?$vector@HV?$allocator@H@std@@@std@@U?$less@H@2@V?$allocator@U?$pair@$$CBHV?$vector@HV?$allocator@H@std@@@std@@@std@@@2@@std@@U?$less@PAVSkill@UAlbertaBot@@@4@V?$allocator@U?$pair@QAVSkill@UAlbertaBot@@V?$map@HV?$vector@HV?$allocator@H@std@@@std@@U?$less@H@2@V?$allocator@U?$pair@$$CBHV?$vector@HV?$allocator@H@std@@@std@@@std@@@2@@std@@@std@@@4@$0A@@std@@@std@@QAEPAU?$_Tree_node@U?$pair@QAVSkill@UAlbertaBot@@V?$map@HV?$vector@HV?$allocator@H@std@@@std@@U?$less@H@2@V?$allocator@U?$pair@$$CBHV?$vector@HV?$allocator@H@std@@@std@@@std@@@2@@std@@@std@@PAX@2@XZ 1004d250 f i GameRecord.obj
 0001:0004c250       ?_Buynode0@?$_Tree_comp_alloc@V?$_Tmap_traits@PAVUnitInterface@BWAPI@@V?$Point@H$0CA@@2@U?$less@PAVUnitInterface@BWAPI@@@std@@V?$allocator@U?$pair@QAVUnitInterface@BWAPI@@V?$Point@H$0CA@@2@@std@@@5@$0A@@std@@@std@@QAEPAU?$_Tree_node@U?$pair@QAVUnitInterface@BWAPI@@V?$Point@H$0CA@@2@@std@@PAX@2@XZ 1004d250 f i MicroOverlords.obj
 0001:0004c270       ?_Destroy_if_node@?$_Tree@V?$_Tmap_traits@PAVSkill@UAlbertaBot@@V?$map@HV?$vector@HV?$allocator@H@std@@@std@@U?$less@H@2@V?$allocator@U?$pair@$$CBHV?$vector@HV?$allocator@H@std@@@std@@@std@@@2@@std@@U?$less@PAVSkill@UAlbertaBot@@@4@V?$allocator@U?$pair@QAVSkill@UAlbertaBot@@V?$map@HV?$vector@HV?$allocator@H@std@@@std@@U?$less@H@2@V?$allocator@U?$pair@$$CBHV?$vector@HV?$allocator@H@std@@@std@@@std@@@2@@std@@@std@@@4@$0A@@std@@@std@@IAEXPAU?$_Tree_node@U?$pair@QAVSkill@UAlbertaBot@@V?$map@HV?$vector@HV?$allocator@H@std@@@std@@U?$less@H@2@V?$allocator@U?$pair@$$CBHV?$vector@HV?$allocator@H@std@@@std@@@std@@@2@@std@@@std@@PAX@2@@Z 1004d270 f i GameRecord.obj
 0001:0004c2f0       ??$_Insert_at@AAU?$pair@QAVSkill@UAlbertaBot@@V?$map@HV?$vector@HV?$allocator@H@std@@@std@@U?$less@H@2@V?$allocator@U?$pair@$$CBHV?$vector@HV?$allocator@H@std@@@std@@@std@@@2@@std@@@std@@PAU?$_Tree_node@U?$pair@QAVSkill@UAlbertaBot@@V?$map@HV?$vector@HV?$allocator@H@std@@@std@@U?$less@H@2@V?$allocator@U?$pair@$$CBHV?$vector@HV?$allocator@H@std@@@std@@@std@@@2@@std@@@std@@PAX@2@@?$_Tree@V?$_Tmap_traits@PAVSkill@UAlbertaBot@@V?$map@HV?$vector@HV?$allocator@H@std@@@std@@U?$less@H@2@V?$allocator@U?$pair@$$CBHV?$vector@HV?$allocator@H@std@@@std@@@std@@@2@@std@@U?$less@PAVSkill@UAlbertaBot@@@4@V?$allocator@U?$pair@QAVSkill@UAlbertaBot@@V?$map@HV?$vector@HV?$allocator@H@std@@@std@@U?$less@H@2@V?$allocator@U?$pair@$$CBHV?$vector@HV?$allocator@H@std@@@std@@@std@@@2@@std@@@std@@@4@$0A@@std@@@std@@IAE?AV?$_Tree_iterator@V?$_Tree_val@U?$_Tree_simple_types@U?$pair@QAVSkill@UAlbertaBot@@V?$map@HV?$vector@HV?$allocator@H@std@@@std@@U?$less@H@2@V?$allocator@U?$pair@$$CBHV?$vector@HV?$allocator@H@std@@@std@@@std@@@2@@std@@@std@@@std@@@std@@@1@_NPAU?$_Tree_node@U?$pair@QAVSkill@UAlbertaBot@@V?$map@HV?$vector@HV?$allocator@H@std@@@std@@U?$less@H@2@V?$allocator@U?$pair@$$CBHV?$vector@HV?$allocator@H@std@@@std@@@std@@@2@@std@@@std@@PAX@1@AAU?$pair@QAVSkill@UAlbertaBot@@V?$map@HV?$vector@HV?$allocator@H@std@@@std@@U?$less@H@2@V?$allocator@U?$pair@$$CBHV?$vector@HV?$allocator@H@std@@@std@@@std@@@2@@std@@@1@1@Z 1004d2f0 f i GameRecord.obj
 0001:0004c520       ??$_Insert_nohint@AAU?$pair@QAVSkill@UAlbertaBot@@V?$map@HV?$vector@HV?$allocator@H@std@@@std@@U?$less@H@2@V?$allocator@U?$pair@$$CBHV?$vector@HV?$allocator@H@std@@@std@@@std@@@2@@std@@@std@@PAU?$_Tree_node@U?$pair@QAVSkill@UAlbertaBot@@V?$map@HV?$vector@HV?$allocator@H@std@@@std@@U?$less@H@2@V?$allocator@U?$pair@$$CBHV?$vector@HV?$allocator@H@std@@@std@@@std@@@2@@std@@@std@@PAX@2@@?$_Tree@V?$_Tmap_traits@PAVSkill@UAlbertaBot@@V?$map@HV?$vector@HV?$allocator@H@std@@@std@@U?$less@H@2@V?$allocator@U?$pair@$$CBHV?$vector@HV?$allocator@H@std@@@std@@@std@@@2@@std@@U?$less@PAVSkill@UAlbertaBot@@@4@V?$allocator@U?$pair@QAVSkill@UAlbertaBot@@V?$map@HV?$vector@HV?$allocator@H@std@@@std@@U?$less@H@2@V?$allocator@U?$pair@$$CBHV?$vector@HV?$allocator@H@std@@@std@@@std@@@2@@std@@@std@@@4@$0A@@std@@@std@@IAE?AU?$pair@V?$_Tree_iterator@V?$_Tree_val@U?$_Tree_simple_types@U?$pair@QAVSkill@UAlbertaBot@@V?$map@HV?$vector@HV?$allocator@H@std@@@std@@U?$less@H@2@V?$allocator@U?$pair@$$CBHV?$vector@HV?$allocator@H@std@@@std@@@std@@@2@@std@@@std@@@std@@@std@@@std@@_N@1@_NAAU?$pair@QAVSkill@UAlbertaBot@@V?$map@HV?$vector@HV?$allocator@H@std@@@std@@U?$less@H@2@V?$allocator@U?$pair@$$CBHV?$vector@HV?$allocator@H@std@@@std@@@std@@@2@@std@@@1@PAU?$_Tree_node@U?$pair@QAVSkill@UAlbertaBot@@V?$map@HV?$vector@HV?$allocator@H@std@@@std@@U?$less@H@2@V?$allocator@U?$pair@$$CBHV?$vector@HV?$allocator@H@std@@@std@@@std@@@2@@std@@@std@@PAX@1@@Z 1004d520 f i GameRecord.obj
 0001:0004c680       ??$_Insert_at@AAU?$pair@$$CBHV?$vector@HV?$allocator@H@std@@@std@@@std@@PAU?$_Tree_node@U?$pair@$$CBHV?$vector@HV?$allocator@H@std@@@std@@@std@@PAX@2@@?$_Tree@V?$_Tmap_traits@HV?$vector@HV?$allocator@H@std@@@std@@U?$less@H@2@V?$allocator@U?$pair@$$CBHV?$vector@HV?$allocator@H@std@@@std@@@std@@@2@$0A@@std@@@std@@IAE?AV?$_Tree_iterator@V?$_Tree_val@U?$_Tree_simple_types@U?$pair@$$CBHV?$vector@HV?$allocator@H@std@@@std@@@std@@@std@@@std@@@1@_NPAU?$_Tree_node@U?$pair@$$CBHV?$vector@HV?$allocator@H@std@@@std@@@std@@PAX@1@AAU?$pair@$$CBHV?$vector@HV?$allocator@H@std@@@std@@@1@1@Z 1004d680 f i GameRecord.obj
 0001:0004c8b0       ??$_Insert_nohint@AAU?$pair@$$CBHV?$vector@HV?$allocator@H@std@@@std@@@std@@PAU?$_Tree_node@U?$pair@$$CBHV?$vector@HV?$allocator@H@std@@@std@@@std@@PAX@2@@?$_Tree@V?$_Tmap_traits@HV?$vector@HV?$allocator@H@std@@@std@@U?$less@H@2@V?$allocator@U?$pair@$$CBHV?$vector@HV?$allocator@H@std@@@std@@@std@@@2@$0A@@std@@@std@@IAE?AU?$pair@V?$_Tree_iterator@V?$_Tree_val@U?$_Tree_simple_types@U?$pair@$$CBHV?$vector@HV?$allocator@H@std@@@std@@@std@@@std@@@std@@@std@@_N@1@_NAAU?$pair@$$CBHV?$vector@HV?$allocator@H@std@@@std@@@1@PAU?$_Tree_node@U?$pair@$$CBHV?$vector@HV?$allocator@H@std@@@std@@@std@@PAX@1@@Z 1004d8b0 f i GameRecord.obj
 0001:0004ca20       ?_Buyheadnode@?$_Tree_comp_alloc@V?$_Tmap_traits@PAVUnitInterface@BWAPI@@VCasterState@UAlbertaBot@@U?$less@PAVUnitInterface@BWAPI@@@std@@V?$allocator@U?$pair@QAVUnitInterface@BWAPI@@VCasterState@UAlbertaBot@@@std@@@6@$0A@@std@@@std@@QAEPAU?$_Tree_node@U?$pair@QAVUnitInterface@BWAPI@@VCasterState@UAlbertaBot@@@std@@PAX@2@XZ 1004da20 f i MicroManager.obj
 0001:0004ca20       ?_Buyheadnode@?$_Tree_comp_alloc@V?$_Tmap_traits@PAVUnitInterface@BWAPI@@ULurkerRecord@SkillLurkers@UAlbertaBot@@U?$less@PAVUnitInterface@BWAPI@@@std@@V?$allocator@U?$pair@QAVUnitInterface@BWAPI@@ULurkerRecord@SkillLurkers@UAlbertaBot@@@std@@@7@$0A@@std@@@std@@QAEPAU?$_Tree_node@U?$pair@QAVUnitInterface@BWAPI@@ULurkerRecord@SkillLurkers@UAlbertaBot@@@std@@PAX@2@XZ 1004da20 f i SkillLurkers.obj
 0001:0004ca20       ?_Buyheadnode@?$_Tree_comp_alloc@V?$_Tmap_traits@PAVUnitInterface@BWAPI@@VWorkerPost@WorkerData@UAlbertaBot@@U?$less@PAVUnitInterface@BWAPI@@@std@@V?$allocator@U?$pair@QAVUnitInterface@BWAPI@@VWorkerPost@WorkerData@UAlbertaBot@@@std@@@7@$0A@@std@@@std@@QAEPAU?$_Tree_node@U?$pair@QAVUnitInterface@BWAPI@@VWorkerPost@WorkerData@UAlbertaBot@@@std@@PAX@2@XZ 1004da20 f i WorkerData.obj
 0001:0004ca20       ?_Buyheadnode@?$_Tree_comp_alloc@V?$_Tmap_traits@HV?$vector@HV?$allocator@H@std@@@std@@U?$less@H@2@V?$allocator@U?$pair@$$CBHV?$vector@HV?$allocator@H@std@@@std@@@std@@@2@$0A@@std@@@std@@QAEPAU?$_Tree_node@U?$pair@$$CBHV?$vector@HV?$allocator@H@std@@@std@@@std@@PAX@2@XZ 1004da20 f i GameRecord.obj
 0001:0004ca39       ??_E?$basic_istringstream@DU?$char_traits@D@std@@V?$allocator@D@2@@std@@$4PPPPPPPM@A@AEPAXI@Z 1004da39 f i GameRecord.obj
 0001:0004ca50       ?writeSkills@GameRecordNow@UAlbertaBot@@MBEXAAV?$basic_ostream@DU?$char_traits@D@std@@@std@@@Z 1004da50 f   GameRecordNow.obj
 0001:0004cb90       ??1GameRecord@UAlbertaBot@@QAE@XZ 1004db90 f i GameRecordNow.obj
 0001:0004cda0       ?update@GameRecordNow@UAlbertaBot@@QAEXXZ 1004dda0 f   GameRecordNow.obj
 0001:0004d130       ?get@Grid@UAlbertaBot@@IBEHHH@Z 1004e130 f   Grid.obj
 0001:0004d1c0       ?at@Grid@UAlbertaBot@@UBEHHH@Z 1004e1c0 f   Grid.obj
 0001:0004d1c0       ?at@GridWalk@UAlbertaBot@@UBEHHH@Z 1004e1c0 f   GridWalk.obj
 0001:0004d1d0       ?at@Grid@UAlbertaBot@@UBEHABV?$Point@H$0CA@@BWAPI@@@Z 1004e1d0 f   Grid.obj
 0001:0004d1d0       ?at@GridWalk@UAlbertaBot@@UBEHABV?$Point@H$07@BWAPI@@@Z 1004e1d0 f   GridWalk.obj
 0001:0004d1f0       ?at@Grid@UAlbertaBot@@UBEHABV?$Point@H$07@BWAPI@@@Z 1004e1f0 f   Grid.obj
 0001:0004d230       ?at@Grid@UAlbertaBot@@UBEHABV?$Point@H$00@BWAPI@@@Z 1004e230 f   Grid.obj
 0001:0004d270       ?at@Grid@UAlbertaBot@@UBEHPAVUnitInterface@BWAPI@@@Z 1004e270 f   Grid.obj
 0001:0004d2a0       ?selfTest@Grid@UAlbertaBot@@UBEXABV?$basic_string@DU?$char_traits@D@std@@V?$allocator@D@2@@std@@@Z 1004e2a0 f   Grid.obj
 0001:0004d3c0       ?draw@Grid@UAlbertaBot@@UBEXXZ 1004e3c0 f   Grid.obj
 0001:0004d450       ??0?$vector@V?$vector@FV?$allocator@F@std@@@std@@V?$allocator@V?$vector@FV?$allocator@F@std@@@std@@@2@@std@@QAE@IABV?$vector@FV?$allocator@F@std@@@1@ABV?$allocator@V?$vector@FV?$allocator@F@std@@@std@@@1@@Z 1004e450 f i Grid.obj
 0001:0004d500       ??0?$vector@GV?$allocator@G@std@@@std@@QAE@IABGABV?$allocator@G@1@@Z 1004e500 f i MapPartitions.obj
 0001:0004d500       ??0?$vector@FV?$allocator@F@std@@@std@@QAE@IABFABV?$allocator@F@1@@Z 1004e500 f i Grid.obj
 0001:0004d550       ?_Buy@?$vector@V?$vector@FV?$allocator@F@std@@@std@@V?$allocator@V?$vector@FV?$allocator@F@std@@@std@@@2@@std@@AAE_NI@Z 1004e550 f i Grid.obj
 0001:0004d610       ?_Buy@?$vector@GV?$allocator@G@std@@@std@@AAE_NI@Z 1004e610 f i MapPartitions.obj
 0001:0004d610       ?_Buy@?$vector@FV?$allocator@F@std@@@std@@AAE_NI@Z 1004e610 f i Grid.obj
 0001:0004d6d0       ??1?$_Uninitialized_backout_al@PAV?$vector@GV?$allocator@G@std@@@std@@V?$allocator@V?$vector@GV?$allocator@G@std@@@std@@@2@@std@@QAE@XZ 1004e6d0 f i MapPartitions.obj
 0001:0004d6d0       ??1?$_Uninitialized_backout_al@PAV?$vector@FV?$allocator@F@std@@@std@@V?$allocator@V?$vector@FV?$allocator@F@std@@@std@@@2@@std@@QAE@XZ 1004e6d0 f i Grid.obj
 0001:0004d700       ??0?$vector@FV?$allocator@F@std@@@std@@QAE@ABV01@@Z 1004e700 f i Grid.obj
 0001:0004d700       ??0?$vector@GV?$allocator@G@std@@@std@@QAE@ABV01@@Z 1004e700 f i MapPartitions.obj
 0001:0004d760       ?addTilesInRange@GridAttacks@UAlbertaBot@@AAEXABV?$Point@H$00@BWAPI@@H@Z 1004e760 f   GridAttacks.obj
 0001:0004d8b0       ??0GridAttacks@UAlbertaBot@@QAE@_N@Z 1004e8b0 f   GridAttacks.obj
 0001:0004d960       ?update@GridAttacks@UAlbertaBot@@QAEXXZ 1004e960 f   GridAttacks.obj
 0001:0004dc10       ?inRange@GridAttacks@UAlbertaBot@@QBE_NABV?$Point@H$0CA@@BWAPI@@0@Z 1004ec10 f   GridAttacks.obj
 0001:0004dcf0       ?inRange@GridAttacks@UAlbertaBot@@QBE_NVUnitType@BWAPI@@ABV?$Point@H$0CA@@4@@Z 1004ecf0 f   GridAttacks.obj
 0001:0004dd60       ?inRange@GridAttacks@UAlbertaBot@@QBE_NPAVUnitInterface@BWAPI@@@Z 1004ed60 f   GridAttacks.obj
 0001:0004de90       ?compute@GridBuildable@UAlbertaBot@@QAEXXZ 1004ee90 f   GridBuildable.obj
 0001:0004e090       ??0GridDistances@UAlbertaBot@@QAE@ABV?$Point@H$0CA@@BWAPI@@_N@Z 1004f090 f   GridDistances.obj
 0001:0004e170       ??0GridDistances@UAlbertaBot@@QAE@ABV?$Point@H$0CA@@BWAPI@@H_N@Z 1004f170 f   GridDistances.obj
 0001:0004e250       ?compute@GridDistances@UAlbertaBot@@AAEXABV?$Point@H$0CA@@BWAPI@@H_N@Z 1004f250 f   GridDistances.obj
 0001:0004e530       ?_Reallocate_exactly@?$vector@V?$Point@H$0CA@@BWAPI@@V?$allocator@V?$Point@H$0CA@@BWAPI@@@std@@@std@@AAEXI@Z 1004f530 f i GridDistances.obj
 0001:0004e530       ?_Reallocate_exactly@?$vector@V?$Point@H$07@BWAPI@@V?$allocator@V?$Point@H$07@BWAPI@@@std@@@std@@AAEXI@Z 1004f530 f i GridInset.obj
 0001:0004e5e0       ?_Change_array@?$vector@V?$Point@H$07@BWAPI@@V?$allocator@V?$Point@H$07@BWAPI@@@std@@@std@@AAEXQAV?$Point@H$07@BWAPI@@II@Z 1004f5e0 f i GridInset.obj
 0001:0004e5e0       ?_Change_array@?$vector@NV?$allocator@N@std@@@std@@AAEXQANII@Z 1004f5e0 f i NEATCommander.obj
 0001:0004e5e0       ?_Change_array@?$vector@V?$Point@H$0CA@@BWAPI@@V?$allocator@V?$Point@H$0CA@@BWAPI@@@std@@@std@@AAEXQAV?$Point@H$0CA@@BWAPI@@II@Z 1004f5e0 f i GridDistances.obj
 0001:0004e640       ??$_Emplace_reallocate@V?$Point@H$07@BWAPI@@@?$vector@V?$Point@H$07@BWAPI@@V?$allocator@V?$Point@H$07@BWAPI@@@std@@@std@@QAEPAV?$Point@H$07@BWAPI@@QAV23@$$QAV23@@Z 1004f640 f i GridInset.obj
 0001:0004e640       ??$_Emplace_reallocate@V?$Point@H$0CA@@BWAPI@@@?$vector@V?$Point@H$0CA@@BWAPI@@V?$allocator@V?$Point@H$0CA@@BWAPI@@@std@@@std@@QAEPAV?$Point@H$0CA@@BWAPI@@QAV23@$$QAV23@@Z 1004f640 f i MicroOverlords.obj
 0001:0004e640       ??$_Emplace_reallocate@ABV?$Point@H$07@BWAPI@@@?$vector@V?$Point@H$07@BWAPI@@V?$allocator@V?$Point@H$07@BWAPI@@@std@@@std@@QAEPAV?$Point@H$07@BWAPI@@QAV23@ABV23@@Z 1004f640 f i GridInset.obj
 0001:0004e640       ??$_Emplace_reallocate@ABV?$Point@H$0CA@@BWAPI@@@?$vector@V?$Point@H$0CA@@BWAPI@@V?$allocator@V?$Point@H$0CA@@BWAPI@@@std@@@std@@QAEPAV?$Point@H$0CA@@BWAPI@@QAV23@ABV23@@Z 1004f640 f i GridDistances.obj
 0001:0004e7c0       ?initialize@GridInset@UAlbertaBot@@QAEXXZ 1004f7c0 f   GridInset.obj
 0001:0004f250       ?draw@GridInset@UAlbertaBot@@UBEXXZ 10050250 f   GridInset.obj
 0001:0004f370       ?initialize@GridRoom@UAlbertaBot@@QAEXXZ 10050370 f   GridRoom.obj
 0001:0004f870       ?draw@GridRoom@UAlbertaBot@@UBEXXZ 10050870 f   GridRoom.obj
 0001:0004f990       ?initialize@GridTileRoom@UAlbertaBot@@QAEXXZ 10050990 f   GridTileRoom.obj
 0001:0004fb70       ?draw@GridTileRoom@UAlbertaBot@@UBEXXZ 10050b70 f   GridTileRoom.obj
 0001:0004fc10       ?at@GridWalk@UAlbertaBot@@UBEHABV?$Point@H$0CA@@BWAPI@@@Z 10050c10 f   GridWalk.obj
 0001:0004fc40       ?at@GridWalk@UAlbertaBot@@UBEHABV?$Point@H$00@BWAPI@@@Z 10050c40 f   GridWalk.obj
 0001:0004fc80       ?at@GridWalk@UAlbertaBot@@UBEHPAVUnitInterface@BWAPI@@@Z 10050c80 f   GridWalk.obj
 0001:0004fcb0       ??0Zone@UAlbertaBot@@AAE@H@Z 10050cb0 f   GridZone.obj
 0001:0004fd40       ?mergeInto@Zone@UAlbertaBot@@AAEXPAV12@@Z 10050d40 f   GridZone.obj
 0001:0004ffe0       ?initialize@GridZone@UAlbertaBot@@QAEXXZ 10050fe0 f   GridZone.obj
 0001:00050a60       ?clear@?$_Tree@V?$_Tset_traits@PAVZone@UAlbertaBot@@U?$less@PAVZone@UAlbertaBot@@@std@@V?$allocator@PAVZone@UAlbertaBot@@@4@$0A@@std@@@std@@QAEXXZ 10051a60 f i GridZone.obj
 0001:00050a60       ?clear@?$_Tree@V?$_Tset_traits@PBVZone@UAlbertaBot@@U?$less@PBVZone@UAlbertaBot@@@std@@V?$allocator@PBVZone@UAlbertaBot@@@4@$0A@@std@@@std@@QAEXXZ 10051a60 f i InformationManager.obj
 0001:00050af0       ?_Erase@?$_Tree@V?$_Tset_traits@PBVZone@UAlbertaBot@@U?$less@PBVZone@UAlbertaBot@@@std@@V?$allocator@PBVZone@UAlbertaBot@@@4@$0A@@std@@@std@@IAEXPAU?$_Tree_node@PBVZone@UAlbertaBot@@PAX@2@@Z 10051af0 f i InformationManager.obj
 0001:00050af0       ?_Erase@?$_Tree@V?$_Tset_traits@VUnitType@BWAPI@@U?$less@VUnitType@BWAPI@@@std@@V?$allocator@VUnitType@BWAPI@@@4@$0A@@std@@@std@@IAEXPAU?$_Tree_node@VUnitType@BWAPI@@PAX@2@@Z 10051af0 f i MacroAct.obj
 0001:00050af0       ?_Erase@?$_Tree@V?$_Tset_traits@PAVZone@UAlbertaBot@@U?$less@PAVZone@UAlbertaBot@@@std@@V?$allocator@PAVZone@UAlbertaBot@@@4@$0A@@std@@@std@@IAEXPAU?$_Tree_node@PAVZone@UAlbertaBot@@PAX@2@@Z 10051af0 f i GridZone.obj
 0001:00050af0       ?_Erase@?$_Tree@V?$_Tset_traits@PAVUnitInterface@BWAPI@@U?$less@PAVUnitInterface@BWAPI@@@std@@V?$allocator@PAVUnitInterface@BWAPI@@@4@$0A@@std@@@std@@IAEXPAU?$_Tree_node@PAVUnitInterface@BWAPI@@PAX@2@@Z 10051af0 f i WorkerManager.obj
 0001:00050af0       ?_Erase@?$_Tree@V?$_Tset_traits@W4OpeningPlan@UAlbertaBot@@U?$less@W4OpeningPlan@UAlbertaBot@@@std@@V?$allocator@W4OpeningPlan@UAlbertaBot@@@4@$0A@@std@@@std@@IAEXPAU?$_Tree_node@W4OpeningPlan@UAlbertaBot@@PAX@2@@Z 10051af0 f i OpponentModel.obj
 0001:00050b30       ?erase@?$_Tree@V?$_Tset_traits@PAVZone@UAlbertaBot@@U?$less@PAVZone@UAlbertaBot@@@std@@V?$allocator@PAVZone@UAlbertaBot@@@4@$0A@@std@@@std@@QAE?AV?$_Tree_const_iterator@V?$_Tree_val@U?$_Tree_simple_types@PAVZone@UAlbertaBot@@@std@@@std@@@2@V32@0@Z 10051b30 f i GridZone.obj
 0001:00050c20       ?_Buyheadnode@?$_Tree_comp_alloc@V?$_Tset_traits@PBVZone@UAlbertaBot@@U?$less@PBVZone@UAlbertaBot@@@std@@V?$allocator@PBVZone@UAlbertaBot@@@4@$0A@@std@@@std@@QAEPAU?$_Tree_node@PBVZone@UAlbertaBot@@PAX@2@XZ 10051c20 f i InformationManager.obj
 0001:00050c20       ?_Buyheadnode@?$_Tree_comp_alloc@V?$_Tset_traits@W4OpeningPlan@UAlbertaBot@@U?$less@W4OpeningPlan@UAlbertaBot@@@std@@V?$allocator@W4OpeningPlan@UAlbertaBot@@@4@$0A@@std@@@std@@QAEPAU?$_Tree_node@W4OpeningPlan@UAlbertaBot@@PAX@2@XZ 10051c20 f i OpponentModel.obj
 0001:00050c20       ?_Buyheadnode@?$_Tree_comp_alloc@V?$_Tset_traits@VTechType@BWAPI@@U?$less@VTechType@BWAPI@@@std@@V?$allocator@VTechType@BWAPI@@@4@$0A@@std@@@std@@QAEPAU?$_Tree_node@VTechType@BWAPI@@PAX@2@XZ 10051c20 f i SkillOpeningTiming.obj
 0001:00050c20       ?_Buyheadnode@?$_Tree_comp_alloc@V?$_Tset_traits@PAVZone@UAlbertaBot@@U?$less@PAVZone@UAlbertaBot@@@std@@V?$allocator@PAVZone@UAlbertaBot@@@4@$0A@@std@@@std@@QAEPAU?$_Tree_node@PAVZone@UAlbertaBot@@PAX@2@XZ 10051c20 f i GridZone.obj
 0001:00050c20       ?_Buyheadnode@?$_Tree_comp_alloc@V?$_Tset_traits@VUnitType@BWAPI@@U?$less@VUnitType@BWAPI@@@std@@V?$allocator@VUnitType@BWAPI@@@4@$0A@@std@@@std@@QAEPAU?$_Tree_node@VUnitType@BWAPI@@PAX@2@XZ 10051c20 f i MacroAct.obj
 0001:00050c20       ?_Buyheadnode@?$_Tree_comp_alloc@V?$_Tset_traits@PAVUnitInterface@BWAPI@@U?$less@PAVUnitInterface@BWAPI@@@std@@V?$allocator@PAVUnitInterface@BWAPI@@@4@$0A@@std@@@std@@QAEPAU?$_Tree_node@PAVUnitInterface@BWAPI@@PAX@2@XZ 10051c20 f i WorkerManager.obj
 0001:00050c40       ??$_Insert_nohint@ABQAVUnitInterface@BWAPI@@U_Not_a_node_tag@std@@@?$_Tree@V?$_Tset_traits@PAVUnitInterface@BWAPI@@U?$less@PAVUnitInterface@BWAPI@@@std@@V?$allocator@PAVUnitInterface@BWAPI@@@4@$0A@@std@@@std@@IAE?AU?$pair@V?$_Tree_const_iterator@V?$_Tree_val@U?$_Tree_simple_types@PAVUnitInterface@BWAPI@@@std@@@std@@@std@@_N@1@_NABQAVUnitInterface@BWAPI@@U_Not_a_node_tag@1@@Z 10051c40 f i WorkerData.obj
 0001:00050c40       ??$_Insert_nohint@ABQBVZone@UAlbertaBot@@U_Not_a_node_tag@std@@@?$_Tree@V?$_Tset_traits@PBVZone@UAlbertaBot@@U?$less@PBVZone@UAlbertaBot@@@std@@V?$allocator@PBVZone@UAlbertaBot@@@4@$0A@@std@@@std@@IAE?AU?$pair@V?$_Tree_const_iterator@V?$_Tree_val@U?$_Tree_simple_types@PBVZone@UAlbertaBot@@@std@@@std@@@std@@_N@1@_NABQBVZone@UAlbertaBot@@U_Not_a_node_tag@1@@Z 10051c40 f i InformationManager.obj
 0001:00050c40       ??$_Insert_nohint@ABQAVZone@UAlbertaBot@@U_Not_a_node_tag@std@@@?$_Tree@V?$_Tset_traits@PAVZone@UAlbertaBot@@U?$less@PAVZone@UAlbertaBot@@@std@@V?$allocator@PAVZone@UAlbertaBot@@@4@$0A@@std@@@std@@IAE?AU?$pair@V?$_Tree_const_iterator@V?$_Tree_val@U?$_Tree_simple_types@PAVZone@UAlbertaBot@@@std@@@std@@@std@@_N@1@_NABQAVZone@UAlbertaBot@@U_Not_a_node_tag@1@@Z 10051c40 f i GridZone.obj
 0001:00050d90       ??$_Insert_at@ABVTechType@BWAPI@@U_Not_a_node_tag@std@@@?$_Tree@V?$_Tset_traits@VTechType@BWAPI@@U?$less@VTechType@BWAPI@@@std@@V?$allocator@VTechType@BWAPI@@@4@$0A@@std@@@std@@IAE?AV?$_Tree_const_iterator@V?$_Tree_val@U?$_Tree_simple_types@VTechType@BWAPI@@@std@@@std@@@1@_NPAU?$_Tree_node@VTechType@BWAPI@@PAX@1@ABVTechType@BWAPI@@U_Not_a_node_tag@1@@Z 10051d90 f i SkillOpeningTiming.obj
 0001:00050d90       ??$_Insert_at@ABQAVUnitInterface@BWAPI@@U_Not_a_node_tag@std@@@?$_Tree@V?$_Tset_traits@PAVUnitInterface@BWAPI@@U?$less@PAVUnitInterface@BWAPI@@@std@@V?$allocator@PAVUnitInterface@BWAPI@@@4@$0A@@std@@@std@@IAE?AV?$_Tree_const_iterator@V?$_Tree_val@U?$_Tree_simple_types@PAVUnitInterface@BWAPI@@@std@@@std@@@1@_NPAU?$_Tree_node@PAVUnitInterface@BWAPI@@PAX@1@ABQAVUnitInterface@BWAPI@@U_Not_a_node_tag@1@@Z 10051d90 f i WorkerData.obj
 0001:00050d90       ??$_Insert_at@ABQBVZone@UAlbertaBot@@U_Not_a_node_tag@std@@@?$_Tree@V?$_Tset_traits@PBVZone@UAlbertaBot@@U?$less@PBVZone@UAlbertaBot@@@std@@V?$allocator@PBVZone@UAlbertaBot@@@4@$0A@@std@@@std@@IAE?AV?$_Tree_const_iterator@V?$_Tree_val@U?$_Tree_simple_types@PBVZone@UAlbertaBot@@@std@@@std@@@1@_NPAU?$_Tree_node@PBVZone@UAlbertaBot@@PAX@1@ABQBVZone@UAlbertaBot@@U_Not_a_node_tag@1@@Z 10051d90 f i InformationManager.obj
 0001:00050d90       ??$_Insert_at@VUnitType@BWAPI@@U_Not_a_node_tag@std@@@?$_Tree@V?$_Tset_traits@VUnitType@BWAPI@@U?$less@VUnitType@BWAPI@@@std@@V?$allocator@VUnitType@BWAPI@@@4@$0A@@std@@@std@@IAE?AV?$_Tree_const_iterator@V?$_Tree_val@U?$_Tree_simple_types@VUnitType@BWAPI@@@std@@@std@@@1@_NPAU?$_Tree_node@VUnitType@BWAPI@@PAX@1@$$QAVUnitType@BWAPI@@U_Not_a_node_tag@1@@Z 10051d90 f i MacroAct.obj
 0001:00050d90       ??$_Insert_at@ABQAVZone@UAlbertaBot@@U_Not_a_node_tag@std@@@?$_Tree@V?$_Tset_traits@PAVZone@UAlbertaBot@@U?$less@PAVZone@UAlbertaBot@@@std@@V?$allocator@PAVZone@UAlbertaBot@@@4@$0A@@std@@@std@@IAE?AV?$_Tree_const_iterator@V?$_Tree_val@U?$_Tree_simple_types@PAVZone@UAlbertaBot@@@std@@@std@@@1@_NPAU?$_Tree_node@PAVZone@UAlbertaBot@@PAX@1@ABQAVZone@UAlbertaBot@@U_Not_a_node_tag@1@@Z 10051d90 f i GridZone.obj
 0001:00050d90       ??$_Insert_at@ABW4OpeningPlan@UAlbertaBot@@U_Not_a_node_tag@std@@@?$_Tree@V?$_Tset_traits@W4OpeningPlan@UAlbertaBot@@U?$less@W4OpeningPlan@UAlbertaBot@@@std@@V?$allocator@W4OpeningPlan@UAlbertaBot@@@4@$0A@@std@@@std@@IAE?AV?$_Tree_const_iterator@V?$_Tree_val@U?$_Tree_simple_types@W4OpeningPlan@UAlbertaBot@@@std@@@std@@@1@_NPAU?$_Tree_node@W4OpeningPlan@UAlbertaBot@@PAX@1@ABW4OpeningPlan@UAlbertaBot@@U_Not_a_node_tag@1@@Z 10051d90 f i OpponentModel.obj
 0001:00050fc0       ??$_Buynode@ABQAVZone@UAlbertaBot@@@?$_Tree_comp_alloc@V?$_Tset_traits@PAVZone@UAlbertaBot@@U?$less@PAVZone@UAlbertaBot@@@std@@V?$allocator@PAVZone@UAlbertaBot@@@4@$0A@@std@@@std@@QAEPAU?$_Tree_node@PAVZone@UAlbertaBot@@PAX@1@ABQAVZone@UAlbertaBot@@@Z 10051fc0 f i GridZone.obj
 0001:00050fc0       ??$_Buynode@VUnitType@BWAPI@@@?$_Tree_comp_alloc@V?$_Tset_traits@VUnitType@BWAPI@@U?$less@VUnitType@BWAPI@@@std@@V?$allocator@VUnitType@BWAPI@@@4@$0A@@std@@@std@@QAEPAU?$_Tree_node@VUnitType@BWAPI@@PAX@1@$$QAVUnitType@BWAPI@@@Z 10051fc0 f i MacroAct.obj
 0001:00050fc0       ??$_Buynode@ABVTechType@BWAPI@@@?$_Tree_comp_alloc@V?$_Tset_traits@VTechType@BWAPI@@U?$less@VTechType@BWAPI@@@std@@V?$allocator@VTechType@BWAPI@@@4@$0A@@std@@@std@@QAEPAU?$_Tree_node@VTechType@BWAPI@@PAX@1@ABVTechType@BWAPI@@@Z 10051fc0 f i SkillOpeningTiming.obj
 0001:00050fc0       ??$_Buynode@ABQBVZone@UAlbertaBot@@@?$_Tree_comp_alloc@V?$_Tset_traits@PBVZone@UAlbertaBot@@U?$less@PBVZone@UAlbertaBot@@@std@@V?$allocator@PBVZone@UAlbertaBot@@@4@$0A@@std@@@std@@QAEPAU?$_Tree_node@PBVZone@UAlbertaBot@@PAX@1@ABQBVZone@UAlbertaBot@@@Z 10051fc0 f i InformationManager.obj
 0001:00050fc0       ??$_Buynode@ABQAVUnitInterface@BWAPI@@@?$_Tree_comp_alloc@V?$_Tset_traits@PAVUnitInterface@BWAPI@@U?$less@PAVUnitInterface@BWAPI@@@std@@V?$allocator@PAVUnitInterface@BWAPI@@@4@$0A@@std@@@std@@QAEPAU?$_Tree_node@PAVUnitInterface@BWAPI@@PAX@1@ABQAVUnitInterface@BWAPI@@@Z 10051fc0 f i WorkerData.obj
 0001:00050fc0       ??$_Buynode@ABW4OpeningPlan@UAlbertaBot@@@?$_Tree_comp_alloc@V?$_Tset_traits@W4OpeningPlan@UAlbertaBot@@U?$less@W4OpeningPlan@UAlbertaBot@@@std@@V?$allocator@W4OpeningPlan@UAlbertaBot@@@4@$0A@@std@@@std@@QAEPAU?$_Tree_node@W4OpeningPlan@UAlbertaBot@@PAX@1@ABW4OpeningPlan@UAlbertaBot@@@Z 10051fc0 f i OpponentModel.obj
 0001:00050fe0       ?_Buynode0@?$_Tree_comp_alloc@V?$_Tset_traits@VUnitType@BWAPI@@U?$less@VUnitType@BWAPI@@@std@@V?$allocator@VUnitType@BWAPI@@@4@$0A@@std@@@std@@QAEPAU?$_Tree_node@VUnitType@BWAPI@@PAX@2@XZ 10051fe0 f i MacroAct.obj
 0001:00050fe0       ?_Buynode0@?$_Tree_comp_alloc@V?$_Tset_traits@PAVZone@UAlbertaBot@@U?$less@PAVZone@UAlbertaBot@@@std@@V?$allocator@PAVZone@UAlbertaBot@@@4@$0A@@std@@@std@@QAEPAU?$_Tree_node@PAVZone@UAlbertaBot@@PAX@2@XZ 10051fe0 f i GridZone.obj
 0001:00050fe0       ?_Buynode0@?$_Tree_comp_alloc@V?$_Tset_traits@W4OpeningPlan@UAlbertaBot@@U?$less@W4OpeningPlan@UAlbertaBot@@@std@@V?$allocator@W4OpeningPlan@UAlbertaBot@@@4@$0A@@std@@@std@@QAEPAU?$_Tree_node@W4OpeningPlan@UAlbertaBot@@PAX@2@XZ 10051fe0 f i OpponentModel.obj
 0001:00050fe0       ?_Buynode0@?$_Tree_comp_alloc@V?$_Tset_traits@VTechType@BWAPI@@U?$less@VTechType@BWAPI@@@std@@V?$allocator@VTechType@BWAPI@@@4@$0A@@std@@@std@@QAEPAU?$_Tree_node@VTechType@BWAPI@@PAX@2@XZ 10051fe0 f i SkillOpeningTiming.obj
 0001:00050fe0       ?_Buynode0@?$_Tree_comp_alloc@V?$_Tset_traits@PAVUnitInterface@BWAPI@@U?$less@PAVUnitInterface@BWAPI@@@std@@V?$allocator@PAVUnitInterface@BWAPI@@@4@$0A@@std@@@std@@QAEPAU?$_Tree_node@PAVUnitInterface@BWAPI@@PAX@2@XZ 10051fe0 f i WorkerData.obj
 0001:00050fe0       ?_Buynode0@?$_Tree_comp_alloc@V?$_Tset_traits@PBVZone@UAlbertaBot@@U?$less@PBVZone@UAlbertaBot@@@std@@V?$allocator@PBVZone@UAlbertaBot@@@4@$0A@@std@@@std@@QAEPAU?$_Tree_node@PBVZone@UAlbertaBot@@PAX@2@XZ 10051fe0 f i InformationManager.obj
 0001:00051000       ??0InformationManager@UAlbertaBot@@AAE@XZ 10052000 f   InformationManager.obj
 0001:00051280       ??1?$map@PAVPlayerInterface@BWAPI@@VUnitData@UAlbertaBot@@U?$less@PAVPlayerInterface@BWAPI@@@std@@V?$allocator@U?$pair@QAVPlayerInterface@BWAPI@@VUnitData@UAlbertaBot@@@std@@@6@@std@@QAE@XZ 10052280 f i InformationManager.obj
 0001:000512b0       ??1?$map@PAVPlayerInterface@BWAPI@@V?$set@PBVZone@UAlbertaBot@@U?$less@PBVZone@UAlbertaBot@@@std@@V?$allocator@PBVZone@UAlbertaBot@@@4@@std@@U?$less@PAVPlayerInterface@BWAPI@@@4@V?$allocator@U?$pair@QAVPlayerInterface@BWAPI@@V?$set@PBVZone@UAlbertaBot@@U?$less@PBVZone@UAlbertaBot@@@std@@V?$allocator@PBVZone@UAlbertaBot@@@4@@std@@@std@@@4@@std@@QAE@XZ 100522b0 f i InformationManager.obj
 0001:00051320       ??1?$map@PAVUnitInterface@BWAPI@@VUnitset@2@U?$less@PAVUnitInterface@BWAPI@@@std@@V?$allocator@U?$pair@QAVUnitInterface@BWAPI@@VUnitset@2@@std@@@5@@std@@QAE@XZ 10052320 f i InformationManager.obj
 0001:00051390       ?update@InformationManager@UAlbertaBot@@QAEXXZ 10052390 f   InformationManager.obj
 0001:000515e0       ?updateUnitInfo@InformationManager@UAlbertaBot@@AAEXXZ 100525e0 f   InformationManager.obj
 0001:000517f0       ?updateBaseLocationInfo@InformationManager@UAlbertaBot@@AAEXXZ 100527f0 f   InformationManager.obj
 0001:00051b30       ?updateGoneFromLastPosition@InformationManager@UAlbertaBot@@AAEXXZ 10052b30 f   InformationManager.obj
 0001:00051f20       ?updateTheirTargets@InformationManager@UAlbertaBot@@AAEXXZ 10052f20 f   InformationManager.obj
 0001:00052090       ?updateResources@InformationManager@UAlbertaBot@@AAEXXZ 10053090 f   InformationManager.obj
 0001:00052280       ?drawExtendedInterface@InformationManager@UAlbertaBot@@QAEXXZ 10053280 f   InformationManager.obj
 0001:00052af0       ?drawUnitInformation@InformationManager@UAlbertaBot@@QAEXHH@Z 10053af0 f   InformationManager.obj
 0001:00052db0       ?drawResourceAmounts@InformationManager@UAlbertaBot@@QBEXXZ 10053db0 f   InformationManager.obj
 0001:00052fe0       ?onUnitDestroy@InformationManager@UAlbertaBot@@QAEXPAVUnitInterface@BWAPI@@@Z 10053fe0 f   InformationManager.obj
 0001:00053170       ?getNearbyForce@InformationManager@UAlbertaBot@@QAEXAAV?$vector@UUnitInfo@UAlbertaBot@@V?$allocator@UUnitInfo@UAlbertaBot@@@std@@@std@@V?$Point@H$00@BWAPI@@PAVPlayerInterface@6@H@Z 10054170 f   InformationManager.obj
 0001:00053350       ?weHaveCombatUnits@InformationManager@UAlbertaBot@@QAE_NXZ 10054350 f   InformationManager.obj
 0001:00053430       ?enemyHasStaticAntiAir@InformationManager@UAlbertaBot@@QAE_NXZ 10054430 f   InformationManager.obj
 0001:000534a0       ?enemyHasAntiAir@InformationManager@UAlbertaBot@@QAE_NXZ 100544a0 f   InformationManager.obj
 0001:00053590       ?enemyHasAirTech@InformationManager@UAlbertaBot@@QAE_NXZ 10054590 f   InformationManager.obj
 0001:00053660       ?enemyHasCloakTech@InformationManager@UAlbertaBot@@QAE_NXZ 10054660 f   InformationManager.obj
 0001:00053710       ?enemyHasStaticDetection@InformationManager@UAlbertaBot@@QAE_NXZ 10054710 f   InformationManager.obj
 0001:00053770       ?enemyHasMobileDetection@InformationManager@UAlbertaBot@@QAE_NXZ 10054770 f   InformationManager.obj
 0001:00053800       ?enemyHasSiegeMode@InformationManager@UAlbertaBot@@QAE_NXZ 10054800 f   InformationManager.obj
 0001:00053890       ?weHaveCloakTech@InformationManager@UAlbertaBot@@QBE_NXZ 10054890 f   InformationManager.obj
 0001:00053950       ?nearestAirStaticDefense@InformationManager@UAlbertaBot@@QBEPAVUnitInterface@BWAPI@@V?$Point@H$00@4@@Z 10054950 f   InformationManager.obj
 0001:00053a70       ?nearestShieldBattery@InformationManager@UAlbertaBot@@QBEPAVUnitInterface@BWAPI@@V?$Point@H$00@4@@Z 10054a70 f   InformationManager.obj
 0001:00053b00       ?getUnitData@InformationManager@UAlbertaBot@@QBEABVUnitData@2@PAVPlayerInterface@BWAPI@@@Z 10054b00 f   InformationManager.obj
 0001:00053b40       ?Instance@InformationManager@UAlbertaBot@@SAAAV12@XZ 10054b40 f   InformationManager.obj
 0001:00053bd0       ??A?$map@PAVPlayerInterface@BWAPI@@V?$set@PBVZone@UAlbertaBot@@U?$less@PBVZone@UAlbertaBot@@@std@@V?$allocator@PBVZone@UAlbertaBot@@@4@@std@@U?$less@PAVPlayerInterface@BWAPI@@@4@V?$allocator@U?$pair@QAVPlayerInterface@BWAPI@@V?$set@PBVZone@UAlbertaBot@@U?$less@PBVZone@UAlbertaBot@@@std@@V?$allocator@PBVZone@UAlbertaBot@@@4@@std@@@std@@@4@@std@@QAEAAV?$set@PBVZone@UAlbertaBot@@U?$less@PBVZone@UAlbertaBot@@@std@@V?$allocator@PBVZone@UAlbertaBot@@@4@@1@ABQAVPlayerInterface@BWAPI@@@Z 10054bd0 f i InformationManager.obj
 0001:00053c40       ??A?$map@PAVPlayerInterface@BWAPI@@VUnitData@UAlbertaBot@@U?$less@PAVPlayerInterface@BWAPI@@@std@@V?$allocator@U?$pair@QAVPlayerInterface@BWAPI@@VUnitData@UAlbertaBot@@@std@@@6@@std@@QAEAAVUnitData@UAlbertaBot@@ABQAVPlayerInterface@BWAPI@@@Z 10054c40 f i InformationManager.obj
 0001:00053c40       ??A?$map@PAVPlayerInterface@BWAPI@@VUnitData@UAlbertaBot@@U?$less@PAVPlayerInterface@BWAPI@@@std@@V?$allocator@U?$pair@QAVPlayerInterface@BWAPI@@VUnitData@UAlbertaBot@@@std@@@6@@std@@QAEAAVUnitData@UAlbertaBot@@$$QAPAVPlayerInterface@BWAPI@@@Z 10054c40 f i InformationManager.obj
 0001:00053cb0       ?_Erase@?$_Tree@V?$_Tmap_traits@PAVUnitInterface@BWAPI@@VUnitset@2@U?$less@PAVUnitInterface@BWAPI@@@std@@V?$allocator@U?$pair@QAVUnitInterface@BWAPI@@VUnitset@2@@std@@@5@$0A@@std@@@std@@IAEXPAU?$_Tree_node@U?$pair@QAVUnitInterface@BWAPI@@VUnitset@2@@std@@PAX@2@@Z 10054cb0 f i InformationManager.obj
 0001:00053d00       ?erase@?$_Tree@V?$_Tmap_traits@PAVPlayerInterface@BWAPI@@VUnitData@UAlbertaBot@@U?$less@PAVPlayerInterface@BWAPI@@@std@@V?$allocator@U?$pair@QAVPlayerInterface@BWAPI@@VUnitData@UAlbertaBot@@@std@@@6@$0A@@std@@@std@@QAE?AV?$_Tree_iterator@V?$_Tree_val@U?$_Tree_simple_types@U?$pair@QAVPlayerInterface@BWAPI@@VUnitData@UAlbertaBot@@@std@@@std@@@std@@@2@V?$_Tree_const_iterator@V?$_Tree_val@U?$_Tree_simple_types@U?$pair@QAVPlayerInterface@BWAPI@@VUnitData@UAlbertaBot@@@std@@@std@@@std@@@2@0@Z 10054d00 f i InformationManager.obj
 0001:00053e80       ?_Buyheadnode@?$_Tree_comp_alloc@V?$_Tmap_traits@PAVUnitInterface@BWAPI@@VResourceInfo@UAlbertaBot@@U?$less@PAVUnitInterface@BWAPI@@@std@@V?$allocator@U?$pair@QAVUnitInterface@BWAPI@@VResourceInfo@UAlbertaBot@@@std@@@6@$0A@@std@@@std@@QAEPAU?$_Tree_node@U?$pair@QAVUnitInterface@BWAPI@@VResourceInfo@UAlbertaBot@@@std@@PAX@2@XZ 10054e80 f i InformationManager.obj
 0001:00053ea0       ?_Erase@?$_Tree@V?$_Tmap_traits@PAVUnitInterface@BWAPI@@VResourceInfo@UAlbertaBot@@U?$less@PAVUnitInterface@BWAPI@@@std@@V?$allocator@U?$pair@QAVUnitInterface@BWAPI@@VResourceInfo@UAlbertaBot@@@std@@@6@$0A@@std@@@std@@IAEXPAU?$_Tree_node@U?$pair@QAVUnitInterface@BWAPI@@VResourceInfo@UAlbertaBot@@@std@@PAX@2@@Z 10054ea0 f i InformationManager.obj
 0001:00053ee0       ?_Buyheadnode@?$_Tree_comp_alloc@V?$_Tmap_traits@PAVUnitInterface@BWAPI@@VUnitset@2@U?$less@PAVUnitInterface@BWAPI@@@std@@V?$allocator@U?$pair@QAVUnitInterface@BWAPI@@VUnitset@2@@std@@@5@$0A@@std@@@std@@QAEPAU?$_Tree_node@U?$pair@QAVUnitInterface@BWAPI@@VUnitset@2@@std@@PAX@2@XZ 10054ee0 f i InformationManager.obj
 0001:00053f00       ?_Erase@?$_Tree@V?$_Tmap_traits@PAVPlayerInterface@BWAPI@@V?$set@PBVZone@UAlbertaBot@@U?$less@PBVZone@UAlbertaBot@@@std@@V?$allocator@PBVZone@UAlbertaBot@@@4@@std@@U?$less@PAVPlayerInterface@BWAPI@@@4@V?$allocator@U?$pair@QAVPlayerInterface@BWAPI@@V?$set@PBVZone@UAlbertaBot@@U?$less@PBVZone@UAlbertaBot@@@std@@V?$allocator@PBVZone@UAlbertaBot@@@4@@std@@@std@@@4@$0A@@std@@@std@@IAEXPAU?$_Tree_node@U?$pair@QAVPlayerInterface@BWAPI@@V?$set@PBVZone@UAlbertaBot@@U?$less@PBVZone@UAlbertaBot@@@std@@V?$allocator@PBVZone@UAlbertaBot@@@4@@std@@@std@@PAX@2@@Z 10054f00 f i InformationManager.obj
 0001:00053f60       ?_Buyheadnode@?$_Tree_comp_alloc@V?$_Tmap_traits@W4LurkerTactic@UAlbertaBot@@ULurkerState@2@U?$less@W4LurkerTactic@UAlbertaBot@@@std@@V?$allocator@U?$pair@$$CBW4LurkerTactic@UAlbertaBot@@ULurkerState@2@@std@@@5@$0A@@std@@@std@@QAEPAU?$_Tree_node@U?$pair@$$CBW4LurkerTactic@UAlbertaBot@@ULurkerState@2@@std@@PAX@2@XZ 10054f60 f i TacticsOrders.obj
 0001:00053f60       ?_Buyheadnode@?$_Tree_comp_alloc@V?$_Tmap_traits@V?$Point@H$0CA@@BWAPI@@VGridDistances@UAlbertaBot@@U?$less@V?$Point@H$0CA@@BWAPI@@@std@@V?$allocator@U?$pair@$$CBV?$Point@H$0CA@@BWAPI@@VGridDistances@UAlbertaBot@@@std@@@6@$0A@@std@@@std@@QAEPAU?$_Tree_node@U?$pair@$$CBV?$Point@H$0CA@@BWAPI@@VGridDistances@UAlbertaBot@@@std@@PAX@2@XZ 10054f60 f i MapTools.obj
 0001:00053f60       ?_Buyheadnode@?$_Tree_comp_alloc@V?$_Tmap_traits@PAVPlayerInterface@BWAPI@@VUnitData@UAlbertaBot@@U?$less@PAVPlayerInterface@BWAPI@@@std@@V?$allocator@U?$pair@QAVPlayerInterface@BWAPI@@VUnitData@UAlbertaBot@@@std@@@6@$0A@@std@@@std@@QAEPAU?$_Tree_node@U?$pair@QAVPlayerInterface@BWAPI@@VUnitData@UAlbertaBot@@@std@@PAX@2@XZ 10054f60 f i InformationManager.obj
 0001:00053f80       ?_Erase@?$_Tree@V?$_Tmap_traits@PAVPlayerInterface@BWAPI@@VUnitData@UAlbertaBot@@U?$less@PAVPlayerInterface@BWAPI@@@std@@V?$allocator@U?$pair@QAVPlayerInterface@BWAPI@@VUnitData@UAlbertaBot@@@std@@@6@$0A@@std@@@std@@IAEXPAU?$_Tree_node@U?$pair@QAVPlayerInterface@BWAPI@@VUnitData@UAlbertaBot@@@std@@PAX@2@@Z 10054f80 f i InformationManager.obj
 0001:00054000       ??$_Emplace_reallocate@ABUUnitInfo@UAlbertaBot@@@?$vector@UUnitInfo@UAlbertaBot@@V?$allocator@UUnitInfo@UAlbertaBot@@@std@@@std@@QAEPAUUnitInfo@UAlbertaBot@@QAU23@ABU23@@Z 10055000 f i InformationManager.obj
 0001:00054210       ??1?$map@PAVUnitInterface@BWAPI@@UUnitInfo@UAlbertaBot@@U?$less@PAVUnitInterface@BWAPI@@@std@@V?$allocator@U?$pair@QAVUnitInterface@BWAPI@@UUnitInfo@UAlbertaBot@@@std@@@6@@std@@QAE@XZ 10055210 f i InformationManager.obj
 0001:00054240       ?_Copy@?$_Hash@V?$_Uset_traits@PAVBulletInterface@BWAPI@@V?$_Uhash_compare@PAVBulletInterface@BWAPI@@U?$hash@PAX@std@@U?$equal_to@PAVBulletInterface@BWAPI@@@4@@std@@V?$allocator@PAVBulletInterface@BWAPI@@@4@$0A@@std@@@std@@IAEXABV12@@Z 10055240 f i InformationManager.obj
 0001:00054360       ?erase@?$_Tree@V?$_Tmap_traits@PAVUnitInterface@BWAPI@@UUnitInfo@UAlbertaBot@@U?$less@PAVUnitInterface@BWAPI@@@std@@V?$allocator@U?$pair@QAVUnitInterface@BWAPI@@UUnitInfo@UAlbertaBot@@@std@@@6@$0A@@std@@@std@@QAE?AV?$_Tree_iterator@V?$_Tree_val@U?$_Tree_simple_types@U?$pair@QAVUnitInterface@BWAPI@@UUnitInfo@UAlbertaBot@@@std@@@std@@@std@@@2@V?$_Tree_const_iterator@V?$_Tree_val@U?$_Tree_simple_types@U?$pair@QAVUnitInterface@BWAPI@@UUnitInfo@UAlbertaBot@@@std@@@std@@@std@@@2@0@Z 10055360 f i InformationManager.obj
 0001:00054450       ?_Erase@?$_Tree@V?$_Tmap_traits@PAVUnitInterface@BWAPI@@UUnitInfo@UAlbertaBot@@U?$less@PAVUnitInterface@BWAPI@@@std@@V?$allocator@U?$pair@QAVUnitInterface@BWAPI@@UUnitInfo@UAlbertaBot@@@std@@@6@$0A@@std@@@std@@IAEXPAU?$_Tree_node@U?$pair@QAVUnitInterface@BWAPI@@UUnitInfo@UAlbertaBot@@@std@@PAX@2@@Z 10055450 f i InformationManager.obj
 0001:00054490       ??$_Buynode@U?$pair@PAVUnitInterface@BWAPI@@VResourceInfo@UAlbertaBot@@@std@@@?$_Tree_comp_alloc@V?$_Tmap_traits@PAVUnitInterface@BWAPI@@VResourceInfo@UAlbertaBot@@U?$less@PAVUnitInterface@BWAPI@@@std@@V?$allocator@U?$pair@QAVUnitInterface@BWAPI@@VResourceInfo@UAlbertaBot@@@std@@@6@$0A@@std@@@std@@QAEPAU?$_Tree_node@U?$pair@QAVUnitInterface@BWAPI@@VResourceInfo@UAlbertaBot@@@std@@PAX@1@$$QAU?$pair@PAVUnitInterface@BWAPI@@VResourceInfo@UAlbertaBot@@@1@@Z 10055490 f i InformationManager.obj
 0001:000544c0       ??$_Insert_nohint@AAU?$pair@QAVUnitInterface@BWAPI@@VResourceInfo@UAlbertaBot@@@std@@PAU?$_Tree_node@U?$pair@QAVUnitInterface@BWAPI@@VResourceInfo@UAlbertaBot@@@std@@PAX@2@@?$_Tree@V?$_Tmap_traits@PAVUnitInterface@BWAPI@@VResourceInfo@UAlbertaBot@@U?$less@PAVUnitInterface@BWAPI@@@std@@V?$allocator@U?$pair@QAVUnitInterface@BWAPI@@VResourceInfo@UAlbertaBot@@@std@@@6@$0A@@std@@@std@@IAE?AU?$pair@V?$_Tree_iterator@V?$_Tree_val@U?$_Tree_simple_types@U?$pair@QAVUnitInterface@BWAPI@@VResourceInfo@UAlbertaBot@@@std@@@std@@@std@@@std@@_N@1@_NAAU?$pair@QAVUnitInterface@BWAPI@@VResourceInfo@UAlbertaBot@@@1@PAU?$_Tree_node@U?$pair@QAVUnitInterface@BWAPI@@VResourceInfo@UAlbertaBot@@@std@@PAX@1@@Z 100554c0 f i InformationManager.obj
 0001:00054630       ?_Buynode0@?$_Tree_comp_alloc@V?$_Tmap_traits@PAVUnitInterface@BWAPI@@VResourceInfo@UAlbertaBot@@U?$less@PAVUnitInterface@BWAPI@@@std@@V?$allocator@U?$pair@QAVUnitInterface@BWAPI@@VResourceInfo@UAlbertaBot@@@std@@@6@$0A@@std@@@std@@QAEPAU?$_Tree_node@U?$pair@QAVUnitInterface@BWAPI@@VResourceInfo@UAlbertaBot@@@std@@PAX@2@XZ 10055630 f i InformationManager.obj
 0001:00054650       ?_Destroy_if_node@?$_Tree@V?$_Tmap_traits@PAVUnitInterface@BWAPI@@VResourceInfo@UAlbertaBot@@U?$less@PAVUnitInterface@BWAPI@@@std@@V?$allocator@U?$pair@QAVUnitInterface@BWAPI@@VResourceInfo@UAlbertaBot@@@std@@@6@$0A@@std@@@std@@IAEXPAU?$_Tree_node@U?$pair@QAVUnitInterface@BWAPI@@VResourceInfo@UAlbertaBot@@@std@@PAX@2@@Z 10055650 f i InformationManager.obj
 0001:00054670       ??$_Insert_at@AAU?$pair@QAVUnitInterface@BWAPI@@VResourceInfo@UAlbertaBot@@@std@@PAU?$_Tree_node@U?$pair@QAVUnitInterface@BWAPI@@VResourceInfo@UAlbertaBot@@@std@@PAX@2@@?$_Tree@V?$_Tmap_traits@PAVUnitInterface@BWAPI@@VResourceInfo@UAlbertaBot@@U?$less@PAVUnitInterface@BWAPI@@@std@@V?$allocator@U?$pair@QAVUnitInterface@BWAPI@@VResourceInfo@UAlbertaBot@@@std@@@6@$0A@@std@@@std@@IAE?AV?$_Tree_iterator@V?$_Tree_val@U?$_Tree_simple_types@U?$pair@QAVUnitInterface@BWAPI@@VResourceInfo@UAlbertaBot@@@std@@@std@@@std@@@1@_NPAU?$_Tree_node@U?$pair@QAVUnitInterface@BWAPI@@VResourceInfo@UAlbertaBot@@@std@@PAX@1@AAU?$pair@QAVUnitInterface@BWAPI@@VResourceInfo@UAlbertaBot@@@1@1@Z 10055670 f i InformationManager.obj
 0001:000548a0       ??$_Buynode@ABUpiecewise_construct_t@std@@V?$tuple@ABQAVUnitInterface@BWAPI@@@2@V?$tuple@$$V@2@@?$_Tree_comp_alloc@V?$_Tmap_traits@PAVUnitInterface@BWAPI@@VUnitset@2@U?$less@PAVUnitInterface@BWAPI@@@std@@V?$allocator@U?$pair@QAVUnitInterface@BWAPI@@VUnitset@2@@std@@@5@$0A@@std@@@std@@QAEPAU?$_Tree_node@U?$pair@QAVUnitInterface@BWAPI@@VUnitset@2@@std@@PAX@1@ABUpiecewise_construct_t@1@$$QAV?$tuple@ABQAVUnitInterface@BWAPI@@@1@$$QAV?$tuple@$$V@1@@Z 100558a0 f i InformationManager.obj
 0001:00054970       ??$_Insert_hint@AAU?$pair@QAVUnitInterface@BWAPI@@VUnitset@2@@std@@PAU?$_Tree_node@U?$pair@QAVUnitInterface@BWAPI@@VUnitset@2@@std@@PAX@2@@?$_Tree@V?$_Tmap_traits@PAVUnitInterface@BWAPI@@VUnitset@2@U?$less@PAVUnitInterface@BWAPI@@@std@@V?$allocator@U?$pair@QAVUnitInterface@BWAPI@@VUnitset@2@@std@@@5@$0A@@std@@@std@@IAE?AV?$_Tree_iterator@V?$_Tree_val@U?$_Tree_simple_types@U?$pair@QAVUnitInterface@BWAPI@@VUnitset@2@@std@@@std@@@std@@@1@V?$_Tree_const_iterator@V?$_Tree_val@U?$_Tree_simple_types@U?$pair@QAVUnitInterface@BWAPI@@VUnitset@2@@std@@@std@@@std@@@1@AAU?$pair@QAVUnitInterface@BWAPI@@VUnitset@2@@1@PAU?$_Tree_node@U?$pair@QAVUnitInterface@BWAPI@@VUnitset@2@@std@@PAX@1@@Z 10055970 f i InformationManager.obj
 0001:00054c00       ??$_Buynode@ABUpiecewise_construct_t@std@@V?$tuple@ABQAVPlayerInterface@BWAPI@@@2@V?$tuple@$$V@2@@?$_Tree_comp_alloc@V?$_Tmap_traits@PAVPlayerInterface@BWAPI@@V?$set@PBVZone@UAlbertaBot@@U?$less@PBVZone@UAlbertaBot@@@std@@V?$allocator@PBVZone@UAlbertaBot@@@4@@std@@U?$less@PAVPlayerInterface@BWAPI@@@4@V?$allocator@U?$pair@QAVPlayerInterface@BWAPI@@V?$set@PBVZone@UAlbertaBot@@U?$less@PBVZone@UAlbertaBot@@@std@@V?$allocator@PBVZone@UAlbertaBot@@@4@@std@@@std@@@4@$0A@@std@@@std@@QAEPAU?$_Tree_node@U?$pair@QAVPlayerInterface@BWAPI@@V?$set@PBVZone@UAlbertaBot@@U?$less@PBVZone@UAlbertaBot@@@std@@V?$allocator@PBVZone@UAlbertaBot@@@4@@std@@@std@@PAX@1@ABUpiecewise_construct_t@1@$$QAV?$tuple@ABQAVPlayerInterface@BWAPI@@@1@$$QAV?$tuple@$$V@1@@Z 10055c00 f i InformationManager.obj
 0001:00054c90       ??$_Insert_hint@AAU?$pair@QAVPlayerInterface@BWAPI@@V?$set@PBVZone@UAlbertaBot@@U?$less@PBVZone@UAlbertaBot@@@std@@V?$allocator@PBVZone@UAlbertaBot@@@4@@std@@@std@@PAU?$_Tree_node@U?$pair@QAVPlayerInterface@BWAPI@@V?$set@PBVZone@UAlbertaBot@@U?$less@PBVZone@UAlbertaBot@@@std@@V?$allocator@PBVZone@UAlbertaBot@@@4@@std@@@std@@PAX@2@@?$_Tree@V?$_Tmap_traits@PAVPlayerInterface@BWAPI@@V?$set@PBVZone@UAlbertaBot@@U?$less@PBVZone@UAlbertaBot@@@std@@V?$allocator@PBVZone@UAlbertaBot@@@4@@std@@U?$less@PAVPlayerInterface@BWAPI@@@4@V?$allocator@U?$pair@QAVPlayerInterface@BWAPI@@V?$set@PBVZone@UAlbertaBot@@U?$less@PBVZone@UAlbertaBot@@@std@@V?$allocator@PBVZone@UAlbertaBot@@@4@@std@@@std@@@4@$0A@@std@@@std@@IAE?AV?$_Tree_iterator@V?$_Tree_val@U?$_Tree_simple_types@U?$pair@QAVPlayerInterface@BWAPI@@V?$set@PBVZone@UAlbertaBot@@U?$less@PBVZone@UAlbertaBot@@@std@@V?$allocator@PBVZone@UAlbertaBot@@@4@@std@@@std@@@std@@@std@@@1@V?$_Tree_const_iterator@V?$_Tree_val@U?$_Tree_simple_types@U?$pair@QAVPlayerInterface@BWAPI@@V?$set@PBVZone@UAlbertaBot@@U?$less@PBVZone@UAlbertaBot@@@std@@V?$allocator@PBVZone@UAlbertaBot@@@4@@std@@@std@@@std@@@std@@@1@AAU?$pair@QAVPlayerInterface@BWAPI@@V?$set@PBVZone@UAlbertaBot@@U?$less@PBVZone@UAlbertaBot@@@std@@V?$allocator@PBVZone@UAlbertaBot@@@4@@std@@@1@PAU?$_Tree_node@U?$pair@QAVPlayerInterface@BWAPI@@V?$set@PBVZone@UAlbertaBot@@U?$less@PBVZone@UAlbertaBot@@@std@@V?$allocator@PBVZone@UAlbertaBot@@@4@@std@@@std@@PAX@1@@Z 10055c90 f i InformationManager.obj
 0001:00054f20       ??$_Buynode@ABUpiecewise_construct_t@std@@V?$tuple@$$QAPAVPlayerInterface@BWAPI@@@2@V?$tuple@$$V@2@@?$_Tree_comp_alloc@V?$_Tmap_traits@PAVPlayerInterface@BWAPI@@VUnitData@UAlbertaBot@@U?$less@PAVPlayerInterface@BWAPI@@@std@@V?$allocator@U?$pair@QAVPlayerInterface@BWAPI@@VUnitData@UAlbertaBot@@@std@@@6@$0A@@std@@@std@@QAEPAU?$_Tree_node@U?$pair@QAVPlayerInterface@BWAPI@@VUnitData@UAlbertaBot@@@std@@PAX@1@ABUpiecewise_construct_t@1@$$QAV?$tuple@$$QAPAVPlayerInterface@BWAPI@@@1@$$QAV?$tuple@$$V@1@@Z 10055f20 f i InformationManager.obj
 0001:00054f20       ??$_Buynode@ABUpiecewise_construct_t@std@@V?$tuple@ABQAVPlayerInterface@BWAPI@@@2@V?$tuple@$$V@2@@?$_Tree_comp_alloc@V?$_Tmap_traits@PAVPlayerInterface@BWAPI@@VUnitData@UAlbertaBot@@U?$less@PAVPlayerInterface@BWAPI@@@std@@V?$allocator@U?$pair@QAVPlayerInterface@BWAPI@@VUnitData@UAlbertaBot@@@std@@@6@$0A@@std@@@std@@QAEPAU?$_Tree_node@U?$pair@QAVPlayerInterface@BWAPI@@VUnitData@UAlbertaBot@@@std@@PAX@1@ABUpiecewise_construct_t@1@$$QAV?$tuple@ABQAVPlayerInterface@BWAPI@@@1@$$QAV?$tuple@$$V@1@@Z 10055f20 f i InformationManager.obj
 0001:00054fa0       ??$_Insert_hint@AAU?$pair@QAVPlayerInterface@BWAPI@@VUnitData@UAlbertaBot@@@std@@PAU?$_Tree_node@U?$pair@QAVPlayerInterface@BWAPI@@VUnitData@UAlbertaBot@@@std@@PAX@2@@?$_Tree@V?$_Tmap_traits@PAVPlayerInterface@BWAPI@@VUnitData@UAlbertaBot@@U?$less@PAVPlayerInterface@BWAPI@@@std@@V?$allocator@U?$pair@QAVPlayerInterface@BWAPI@@VUnitData@UAlbertaBot@@@std@@@6@$0A@@std@@@std@@IAE?AV?$_Tree_iterator@V?$_Tree_val@U?$_Tree_simple_types@U?$pair@QAVPlayerInterface@BWAPI@@VUnitData@UAlbertaBot@@@std@@@std@@@std@@@1@V?$_Tree_const_iterator@V?$_Tree_val@U?$_Tree_simple_types@U?$pair@QAVPlayerInterface@BWAPI@@VUnitData@UAlbertaBot@@@std@@@std@@@std@@@1@AAU?$pair@QAVPlayerInterface@BWAPI@@VUnitData@UAlbertaBot@@@1@PAU?$_Tree_node@U?$pair@QAVPlayerInterface@BWAPI@@VUnitData@UAlbertaBot@@@std@@PAX@1@@Z 10055fa0 f i InformationManager.obj
 0001:00055230       ?_Freenode0@?$_Tree_comp_alloc@V?$_Tmap_traits@PAVUnitInterface@BWAPI@@VUnitset@2@U?$less@PAVUnitInterface@BWAPI@@@std@@V?$allocator@U?$pair@QAVUnitInterface@BWAPI@@VUnitset@2@@std@@@5@$0A@@std@@@std@@QAEXPAU?$_Tree_node@U?$pair@QAVUnitInterface@BWAPI@@VUnitset@2@@std@@PAX@2@@Z 10056230 f i InformationManager.obj
 0001:00055250       ?_Buynode0@?$_Tree_comp_alloc@V?$_Tmap_traits@PAVUnitInterface@BWAPI@@VUnitset@2@U?$less@PAVUnitInterface@BWAPI@@@std@@V?$allocator@U?$pair@QAVUnitInterface@BWAPI@@VUnitset@2@@std@@@5@$0A@@std@@@std@@QAEPAU?$_Tree_node@U?$pair@QAVUnitInterface@BWAPI@@VUnitset@2@@std@@PAX@2@XZ 10056250 f i InformationManager.obj
 0001:00055270       ?_Destroy_if_node@?$_Tree@V?$_Tmap_traits@PAVUnitInterface@BWAPI@@VUnitset@2@U?$less@PAVUnitInterface@BWAPI@@@std@@V?$allocator@U?$pair@QAVUnitInterface@BWAPI@@VUnitset@2@@std@@@5@$0A@@std@@@std@@IAEXPAU?$_Tree_node@U?$pair@QAVUnitInterface@BWAPI@@VUnitset@2@@std@@PAX@2@@Z 10056270 f i InformationManager.obj
 0001:00055290       ?_Destroy_if_node@?$_Tree@V?$_Tmap_traits@PAVPlayerInterface@BWAPI@@V?$set@PBVZone@UAlbertaBot@@U?$less@PBVZone@UAlbertaBot@@@std@@V?$allocator@PBVZone@UAlbertaBot@@@4@@std@@U?$less@PAVPlayerInterface@BWAPI@@@4@V?$allocator@U?$pair@QAVPlayerInterface@BWAPI@@V?$set@PBVZone@UAlbertaBot@@U?$less@PBVZone@UAlbertaBot@@@std@@V?$allocator@PBVZone@UAlbertaBot@@@4@@std@@@std@@@4@$0A@@std@@@std@@IAEXPAU?$_Tree_node@U?$pair@QAVPlayerInterface@BWAPI@@V?$set@PBVZone@UAlbertaBot@@U?$less@PBVZone@UAlbertaBot@@@std@@V?$allocator@PBVZone@UAlbertaBot@@@4@@std@@@std@@PAX@2@@Z 10056290 f i InformationManager.obj
 0001:000552c0       ?_Freenode0@?$_Tree_comp_alloc@V?$_Tmap_traits@PAVPlayerInterface@BWAPI@@VUnitData@UAlbertaBot@@U?$less@PAVPlayerInterface@BWAPI@@@std@@V?$allocator@U?$pair@QAVPlayerInterface@BWAPI@@VUnitData@UAlbertaBot@@@std@@@6@$0A@@std@@@std@@QAEXPAU?$_Tree_node@U?$pair@QAVPlayerInterface@BWAPI@@VUnitData@UAlbertaBot@@@std@@PAX@2@@Z 100562c0 f i InformationManager.obj
 0001:000552e0       ?_Buynode0@?$_Tree_comp_alloc@V?$_Tmap_traits@PAVPlayerInterface@BWAPI@@VUnitData@UAlbertaBot@@U?$less@PAVPlayerInterface@BWAPI@@@std@@V?$allocator@U?$pair@QAVPlayerInterface@BWAPI@@VUnitData@UAlbertaBot@@@std@@@6@$0A@@std@@@std@@QAEPAU?$_Tree_node@U?$pair@QAVPlayerInterface@BWAPI@@VUnitData@UAlbertaBot@@@std@@PAX@2@XZ 100562e0 f i InformationManager.obj
 0001:000552e0       ?_Buynode0@?$_Tree_comp_alloc@V?$_Tmap_traits@V?$Point@H$0CA@@BWAPI@@VGridDistances@UAlbertaBot@@U?$less@V?$Point@H$0CA@@BWAPI@@@std@@V?$allocator@U?$pair@$$CBV?$Point@H$0CA@@BWAPI@@VGridDistances@UAlbertaBot@@@std@@@6@$0A@@std@@@std@@QAEPAU?$_Tree_node@U?$pair@$$CBV?$Point@H$0CA@@BWAPI@@VGridDistances@UAlbertaBot@@@std@@PAX@2@XZ 100562e0 f i MapTools.obj
 0001:00055300       ?_Destroy_if_node@?$_Tree@V?$_Tmap_traits@PAVPlayerInterface@BWAPI@@VUnitData@UAlbertaBot@@U?$less@PAVPlayerInterface@BWAPI@@@std@@V?$allocator@U?$pair@QAVPlayerInterface@BWAPI@@VUnitData@UAlbertaBot@@@std@@@6@$0A@@std@@@std@@IAEXPAU?$_Tree_node@U?$pair@QAVPlayerInterface@BWAPI@@VUnitData@UAlbertaBot@@@std@@PAX@2@@Z 10056300 f i InformationManager.obj
 0001:00055350       ??$_Insert_at@AAU?$pair@QAVUnitInterface@BWAPI@@VUnitset@2@@std@@PAU?$_Tree_node@U?$pair@QAVUnitInterface@BWAPI@@VUnitset@2@@std@@PAX@2@@?$_Tree@V?$_Tmap_traits@PAVUnitInterface@BWAPI@@VUnitset@2@U?$less@PAVUnitInterface@BWAPI@@@std@@V?$allocator@U?$pair@QAVUnitInterface@BWAPI@@VUnitset@2@@std@@@5@$0A@@std@@@std@@IAE?AV?$_Tree_iterator@V?$_Tree_val@U?$_Tree_simple_types@U?$pair@QAVUnitInterface@BWAPI@@VUnitset@2@@std@@@std@@@std@@@1@_NPAU?$_Tree_node@U?$pair@QAVUnitInterface@BWAPI@@VUnitset@2@@std@@PAX@1@AAU?$pair@QAVUnitInterface@BWAPI@@VUnitset@2@@1@1@Z 10056350 f i InformationManager.obj
 0001:00055580       ??$_Insert_nohint@AAU?$pair@QAVUnitInterface@BWAPI@@VUnitset@2@@std@@PAU?$_Tree_node@U?$pair@QAVUnitInterface@BWAPI@@VUnitset@2@@std@@PAX@2@@?$_Tree@V?$_Tmap_traits@PAVUnitInterface@BWAPI@@VUnitset@2@U?$less@PAVUnitInterface@BWAPI@@@std@@V?$allocator@U?$pair@QAVUnitInterface@BWAPI@@VUnitset@2@@std@@@5@$0A@@std@@@std@@IAE?AU?$pair@V?$_Tree_iterator@V?$_Tree_val@U?$_Tree_simple_types@U?$pair@QAVUnitInterface@BWAPI@@VUnitset@2@@std@@@std@@@std@@@std@@_N@1@_NAAU?$pair@QAVUnitInterface@BWAPI@@VUnitset@2@@1@PAU?$_Tree_node@U?$pair@QAVUnitInterface@BWAPI@@VUnitset@2@@std@@PAX@1@@Z 10056580 f i InformationManager.obj
 0001:000556f0       ??$_Insert_at@AAU?$pair@QAVPlayerInterface@BWAPI@@V?$set@PBVZone@UAlbertaBot@@U?$less@PBVZone@UAlbertaBot@@@std@@V?$allocator@PBVZone@UAlbertaBot@@@4@@std@@@std@@PAU?$_Tree_node@U?$pair@QAVPlayerInterface@BWAPI@@V?$set@PBVZone@UAlbertaBot@@U?$less@PBVZone@UAlbertaBot@@@std@@V?$allocator@PBVZone@UAlbertaBot@@@4@@std@@@std@@PAX@2@@?$_Tree@V?$_Tmap_traits@PAVPlayerInterface@BWAPI@@V?$set@PBVZone@UAlbertaBot@@U?$less@PBVZone@UAlbertaBot@@@std@@V?$allocator@PBVZone@UAlbertaBot@@@4@@std@@U?$less@PAVPlayerInterface@BWAPI@@@4@V?$allocator@U?$pair@QAVPlayerInterface@BWAPI@@V?$set@PBVZone@UAlbertaBot@@U?$less@PBVZone@UAlbertaBot@@@std@@V?$allocator@PBVZone@UAlbertaBot@@@4@@std@@@std@@@4@$0A@@std@@@std@@IAE?AV?$_Tree_iterator@V?$_Tree_val@U?$_Tree_simple_types@U?$pair@QAVPlayerInterface@BWAPI@@V?$set@PBVZone@UAlbertaBot@@U?$less@PBVZone@UAlbertaBot@@@std@@V?$allocator@PBVZone@UAlbertaBot@@@4@@std@@@std@@@std@@@std@@@1@_NPAU?$_Tree_node@U?$pair@QAVPlayerInterface@BWAPI@@V?$set@PBVZone@UAlbertaBot@@U?$less@PBVZone@UAlbertaBot@@@std@@V?$allocator@PBVZone@UAlbertaBot@@@4@@std@@@std@@PAX@1@AAU?$pair@QAVPlayerInterface@BWAPI@@V?$set@PBVZone@UAlbertaBot@@U?$less@PBVZone@UAlbertaBot@@@std@@V?$allocator@PBVZone@UAlbertaBot@@@4@@std@@@1@1@Z 100566f0 f i InformationManager.obj
 0001:00055920       ??$_Insert_nohint@AAU?$pair@QAVPlayerInterface@BWAPI@@V?$set@PBVZone@UAlbertaBot@@U?$less@PBVZone@UAlbertaBot@@@std@@V?$allocator@PBVZone@UAlbertaBot@@@4@@std@@@std@@PAU?$_Tree_node@U?$pair@QAVPlayerInterface@BWAPI@@V?$set@PBVZone@UAlbertaBot@@U?$less@PBVZone@UAlbertaBot@@@std@@V?$allocator@PBVZone@UAlbertaBot@@@4@@std@@@std@@PAX@2@@?$_Tree@V?$_Tmap_traits@PAVPlayerInterface@BWAPI@@V?$set@PBVZone@UAlbertaBot@@U?$less@PBVZone@UAlbertaBot@@@std@@V?$allocator@PBVZone@UAlbertaBot@@@4@@std@@U?$less@PAVPlayerInterface@BWAPI@@@4@V?$allocator@U?$pair@QAVPlayerInterface@BWAPI@@V?$set@PBVZone@UAlbertaBot@@U?$less@PBVZone@UAlbertaBot@@@std@@V?$allocator@PBVZone@UAlbertaBot@@@4@@std@@@std@@@4@$0A@@std@@@std@@IAE?AU?$pair@V?$_Tree_iterator@V?$_Tree_val@U?$_Tree_simple_types@U?$pair@QAVPlayerInterface@BWAPI@@V?$set@PBVZone@UAlbertaBot@@U?$less@PBVZone@UAlbertaBot@@@std@@V?$allocator@PBVZone@UAlbertaBot@@@4@@std@@@std@@@std@@@std@@@std@@_N@1@_NAAU?$pair@QAVPlayerInterface@BWAPI@@V?$set@PBVZone@UAlbertaBot@@U?$less@PBVZone@UAlbertaBot@@@std@@V?$allocator@PBVZone@UAlbertaBot@@@4@@std@@@1@PAU?$_Tree_node@U?$pair@QAVPlayerInterface@BWAPI@@V?$set@PBVZone@UAlbertaBot@@U?$less@PBVZone@UAlbertaBot@@@std@@V?$allocator@PBVZone@UAlbertaBot@@@4@@std@@@std@@PAX@1@@Z 10056920 f i InformationManager.obj
 0001:00055aa0       ??$_Insert_at@AAU?$pair@QAVPlayerInterface@BWAPI@@VUnitData@UAlbertaBot@@@std@@PAU?$_Tree_node@U?$pair@QAVPlayerInterface@BWAPI@@VUnitData@UAlbertaBot@@@std@@PAX@2@@?$_Tree@V?$_Tmap_traits@PAVPlayerInterface@BWAPI@@VUnitData@UAlbertaBot@@U?$less@PAVPlayerInterface@BWAPI@@@std@@V?$allocator@U?$pair@QAVPlayerInterface@BWAPI@@VUnitData@UAlbertaBot@@@std@@@6@$0A@@std@@@std@@IAE?AV?$_Tree_iterator@V?$_Tree_val@U?$_Tree_simple_types@U?$pair@QAVPlayerInterface@BWAPI@@VUnitData@UAlbertaBot@@@std@@@std@@@std@@@1@_NPAU?$_Tree_node@U?$pair@QAVPlayerInterface@BWAPI@@VUnitData@UAlbertaBot@@@std@@PAX@1@AAU?$pair@QAVPlayerInterface@BWAPI@@VUnitData@UAlbertaBot@@@1@1@Z 10056aa0 f i InformationManager.obj
 0001:00055cd0       ??$_Insert_nohint@AAU?$pair@QAVPlayerInterface@BWAPI@@VUnitData@UAlbertaBot@@@std@@PAU?$_Tree_node@U?$pair@QAVPlayerInterface@BWAPI@@VUnitData@UAlbertaBot@@@std@@PAX@2@@?$_Tree@V?$_Tmap_traits@PAVPlayerInterface@BWAPI@@VUnitData@UAlbertaBot@@U?$less@PAVPlayerInterface@BWAPI@@@std@@V?$allocator@U?$pair@QAVPlayerInterface@BWAPI@@VUnitData@UAlbertaBot@@@std@@@6@$0A@@std@@@std@@IAE?AU?$pair@V?$_Tree_iterator@V?$_Tree_val@U?$_Tree_simple_types@U?$pair@QAVPlayerInterface@BWAPI@@VUnitData@UAlbertaBot@@@std@@@std@@@std@@@std@@_N@1@_NAAU?$pair@QAVPlayerInterface@BWAPI@@VUnitData@UAlbertaBot@@@1@PAU?$_Tree_node@U?$pair@QAVPlayerInterface@BWAPI@@VUnitData@UAlbertaBot@@@std@@PAX@1@@Z 10056cd0 f i InformationManager.obj
 0001:00055e30       ?ReadBool@JSONTools@UAlbertaBot@@YAXPBDABV?$GenericValue@U?$UTF8@D@rapidjson@@V?$MemoryPoolAllocator@VCrtAllocator@rapidjson@@@2@@rapidjson@@AA_N@Z 10056e30 f   JSONTools.obj
 0001:00055ee0       ?ReadString@JSONTools@UAlbertaBot@@YAXPBDABV?$GenericValue@U?$UTF8@D@rapidjson@@V?$MemoryPoolAllocator@VCrtAllocator@rapidjson@@@2@@rapidjson@@AAV?$basic_string@DU?$char_traits@D@std@@V?$allocator@D@2@@std@@@Z 10056ee0 f   JSONTools.obj
 0001:00055fb0       ?HasMember@?$GenericValue@U?$UTF8@D@rapidjson@@V?$MemoryPoolAllocator@VCrtAllocator@rapidjson@@@2@@rapidjson@@QBE_NPBD@Z 10056fb0 f i JSONTools.obj
 0001:00056020       ??$FindMember@V?$MemoryPoolAllocator@VCrtAllocator@rapidjson@@@rapidjson@@@?$GenericValue@U?$UTF8@D@rapidjson@@V?$MemoryPoolAllocator@VCrtAllocator@rapidjson@@@2@@rapidjson@@QAE?AV?$GenericMemberIterator@$0A@U?$UTF8@D@rapidjson@@V?$MemoryPoolAllocator@VCrtAllocator@rapidjson@@@2@@1@ABV01@@Z 10057020 f i JSONTools.obj
 0001:00056120       ??$?A$$CBD@?$GenericValue@U?$UTF8@D@rapidjson@@V?$MemoryPoolAllocator@VCrtAllocator@rapidjson@@@2@@rapidjson@@QAEAAV01@PBD@Z 10057120 f i JSONTools.obj
 0001:00056210       __vsnprintf_s_l            10057210 f i Logger.obj
 0001:00056250       ??0bad_cast@std@@QAE@XZ    10057250 f i Logger.obj
 0001:00056270       ??1locale@std@@QAE@XZ      10057270 f i Logger.obj
 0001:000562c0       ?LogAppendToFile@Logger@UAlbertaBot@@YAXABV?$basic_string@DU?$char_traits@D@std@@V?$allocator@D@2@@std@@0@Z 100572c0 f   Logger.obj
 0001:000563c0       ??_D?$basic_ofstream@DU?$char_traits@D@std@@@std@@QAEXXZ 100573c0 f i Logger.obj
 0001:00056470       ??0?$basic_ofstream@DU?$char_traits@D@std@@@std@@QAE@PBDHH@Z 10057470 f i Logger.obj
 0001:00056570       ??0?$basic_ofstream@DU?$char_traits@D@std@@@std@@QAE@XZ 10057570 f i Logger.obj
 0001:00056650       ?imbue@?$basic_filebuf@DU?$char_traits@D@std@@@std@@MAEXABVlocale@2@@Z 10057650 f i Logger.obj
 0001:00056690       ?sync@?$basic_filebuf@DU?$char_traits@D@std@@@std@@MAEHXZ 10057690 f i Logger.obj
 0001:000566c0       ?setbuf@?$basic_filebuf@DU?$char_traits@D@std@@@std@@MAEPAV?$basic_streambuf@DU?$char_traits@D@std@@@2@PAD_J@Z 100576c0 f i Logger.obj
 0001:00056710       ?seekpos@?$basic_filebuf@DU?$char_traits@D@std@@@std@@MAE?AV?$fpos@U_Mbstatet@@@2@V32@H@Z 10057710 f i Logger.obj
 0001:000567e0       ?seekoff@?$basic_filebuf@DU?$char_traits@D@std@@@std@@MAE?AV?$fpos@U_Mbstatet@@@2@_JHH@Z 100577e0 f i Logger.obj
 0001:000568d0       ?xsputn@?$basic_filebuf@DU?$char_traits@D@std@@@std@@MAE_JPBD_J@Z 100578d0 f i Logger.obj
 0001:000569c0       ?xsgetn@?$basic_filebuf@DU?$char_traits@D@std@@@std@@MAE_JPAD_J@Z 100579c0 f i Logger.obj
 0001:00056af0       ?uflow@?$basic_filebuf@DU?$char_traits@D@std@@@std@@MAEHXZ 10057af0 f i Logger.obj
 0001:00056d10       ?underflow@?$basic_filebuf@DU?$char_traits@D@std@@@std@@MAEHXZ 10057d10 f i Logger.obj
 0001:00056d50       ?pbackfail@?$basic_filebuf@DU?$char_traits@D@std@@@std@@MAEHH@Z 10057d50 f i Logger.obj
 0001:00056e00       ?overflow@?$basic_filebuf@DU?$char_traits@D@std@@@std@@MAEHH@Z 10057e00 f i Logger.obj
 0001:00056f50       ?_Unlock@?$basic_filebuf@DU?$char_traits@D@std@@@std@@UAEXXZ 10057f50 f i Logger.obj
 0001:00056f60       ?_Lock@?$basic_filebuf@DU?$char_traits@D@std@@@std@@UAEXXZ 10057f60 f i Logger.obj
 0001:00056f70       ??1?$basic_filebuf@DU?$char_traits@D@std@@@std@@UAE@XZ 10057f70 f i Logger.obj
 0001:00056ff0       ??_G?$basic_ofstream@DU?$char_traits@D@std@@@std@@UAEPAXI@Z 10057ff0 f i Logger.obj
 0001:00056ff0       ??_E?$basic_ofstream@DU?$char_traits@D@std@@@std@@UAEPAXI@Z 10057ff0 f i * CIL library *:* CIL module *
 0001:00057020       ??_E?$basic_filebuf@DU?$char_traits@D@std@@@std@@UAEPAXI@Z 10058020 f i * CIL library *:* CIL module *
 0001:00057020       ??_G?$basic_filebuf@DU?$char_traits@D@std@@@std@@UAEPAXI@Z 10058020 f i Logger.obj
 0001:000570c0       ?_Reset_back@?$basic_filebuf@DU?$char_traits@D@std@@@std@@AAEXXZ 100580c0 f i Logger.obj
 0001:000570f0       ?_Endwrite@?$basic_filebuf@DU?$char_traits@D@std@@@std@@IAE_NXZ 100580f0 f i Logger.obj
 0001:000571b0       ?_Init@?$basic_filebuf@DU?$char_traits@D@std@@@std@@IAEXPAU_iobuf@@W4_Initfl@12@@Z 100581b0 f i Logger.obj
 0001:00057240       ?close@?$basic_filebuf@DU?$char_traits@D@std@@@std@@QAEPAV12@XZ 10058240 f i Logger.obj
 0001:000572b0       ?open@?$basic_filebuf@DU?$char_traits@D@std@@@std@@QAEPAV12@PBDHH@Z 100582b0 f i Logger.obj
 0001:00057390       ??$use_facet@V?$codecvt@DDU_Mbstatet@@@std@@@std@@YAABV?$codecvt@DDU_Mbstatet@@@0@ABVlocale@0@@Z 10058390 f i Logger.obj
 0001:00057490       ??0bad_cast@std@@QAE@ABV01@@Z 10058490 f i Logger.obj
 0001:000574d0       ??1?$unique_ptr@V_Facet_base@std@@U?$default_delete@V_Facet_base@std@@@2@@std@@QAE@XZ 100584d0 f i Logger.obj
 0001:00057514       ??_E?$basic_ofstream@DU?$char_traits@D@std@@@std@@$4PPPPPPPM@A@AEPAXI@Z 10058514 f i Logger.obj
 0001:00057520       ??0UpgradeType@BWAPI@@QAE@H@Z 10058520 f i MacroAct.obj
 0001:00057540       ??0TechType@BWAPI@@QAE@H@Z 10058540 f i MacroAct.obj
 0001:00057560       ?isBuilding@MacroAct@UAlbertaBot@@QBE_NXZ 10058560 f   MacroAct.obj
 0001:00057580       ?isAddon@MacroAct@UAlbertaBot@@QBE_NXZ 10058580 f   MacroAct.obj
 0001:000575a0       ?getUnitType@MacroAct@UAlbertaBot@@QBE?AVUnitType@BWAPI@@XZ 100585a0 f   MacroAct.obj
 0001:000575d0       ?getTechType@MacroAct@UAlbertaBot@@QBE?AVTechType@BWAPI@@XZ 100585d0 f   MacroAct.obj
 0001:00057600       ?getUpgradeType@MacroAct@UAlbertaBot@@QBE?AVUpgradeType@BWAPI@@XZ 10058600 f   MacroAct.obj
 0001:00057630       ?mineralPrice@MacroAct@UAlbertaBot@@QBEHXZ 10058630 f   MacroAct.obj
 0001:00057710       ?gasPrice@MacroAct@UAlbertaBot@@QBEHXZ 10058710 f   MacroAct.obj
 0001:000577d0       ?whatBuilds@MacroAct@UAlbertaBot@@QBE?AVUnitType@BWAPI@@XZ 100587d0 f   MacroAct.obj
 0001:00057880       ?getName@MacroAct@UAlbertaBot@@QBE?AV?$basic_string@DU?$char_traits@D@std@@V?$allocator@D@2@@std@@XZ 10058880 f   MacroAct.obj
 0001:00057ac0       ?isProducer@MacroAct@UAlbertaBot@@QBE_NPAVUnitInterface@BWAPI@@@Z 10058ac0 f   MacroAct.obj
 0001:00057c70       ?getCandidateProducers@MacroAct@UAlbertaBot@@QBEXAAV?$vector@PAVUnitInterface@BWAPI@@V?$allocator@PAVUnitInterface@BWAPI@@@std@@@std@@@Z 10058c70 f   MacroAct.obj
 0001:00057d60       ?hasTech@MacroAct@UAlbertaBot@@QBE_NXZ 10058d60 f   MacroAct.obj
 0001:00057f90       ??1?$set@VUnitType@BWAPI@@U?$less@VUnitType@BWAPI@@@std@@V?$allocator@VUnitType@BWAPI@@@4@@std@@QAE@XZ 10058f90 f i MacroAct.obj
 0001:00057f90       ??1?$set@W4OpeningPlan@UAlbertaBot@@U?$less@W4OpeningPlan@UAlbertaBot@@@std@@V?$allocator@W4OpeningPlan@UAlbertaBot@@@4@@std@@QAE@XZ 10058f90 f i OpponentModel.obj
 0001:00057f90       ??1?$set@PAVUnitInterface@BWAPI@@U?$less@PAVUnitInterface@BWAPI@@@std@@V?$allocator@PAVUnitInterface@BWAPI@@@4@@std@@QAE@XZ 10058f90 f i WorkerManager.obj
 0001:00058030       ?canProduce@MacroAct@UAlbertaBot@@QBE_NPAVUnitInterface@BWAPI@@@Z 10059030 f   MacroAct.obj
 0001:000581e0       ?produce@MacroAct@UAlbertaBot@@QBEXPAVUnitInterface@BWAPI@@@Z 100591e0 f   MacroAct.obj
 0001:000583e0       ?erase@?$_Tree@V?$_Tmap_traits@V?$basic_string@DU?$char_traits@D@std@@V?$allocator@D@2@@std@@VUnitType@BWAPI@@U?$less@V?$basic_string@DU?$char_traits@D@std@@V?$allocator@D@2@@std@@@2@V?$allocator@U?$pair@$$CBV?$basic_string@DU?$char_traits@D@std@@V?$allocator@D@2@@std@@VUnitType@BWAPI@@@std@@@2@$0A@@std@@@std@@QAE?AV?$_Tree_iterator@V?$_Tree_val@U?$_Tree_simple_types@U?$pair@$$CBV?$basic_string@DU?$char_traits@D@std@@V?$allocator@D@2@@std@@VUnitType@BWAPI@@@std@@@std@@@std@@@2@V?$_Tree_const_iterator@V?$_Tree_val@U?$_Tree_simple_types@U?$pair@$$CBV?$basic_string@DU?$char_traits@D@std@@V?$allocator@D@2@@std@@VUnitType@BWAPI@@@std@@@std@@@std@@@2@0@Z 100593e0 f i MacroAct.obj
 0001:00058590       ?_Buyheadnode@?$_Tree_comp_alloc@V?$_Tmap_traits@V?$basic_string@DU?$char_traits@D@std@@V?$allocator@D@2@@std@@VUnitType@BWAPI@@U?$less@V?$basic_string@DU?$char_traits@D@std@@V?$allocator@D@2@@std@@@2@V?$allocator@U?$pair@$$CBV?$basic_string@DU?$char_traits@D@std@@V?$allocator@D@2@@std@@VUnitType@BWAPI@@@std@@@2@$0A@@std@@@std@@QAEPAU?$_Tree_node@U?$pair@$$CBV?$basic_string@DU?$char_traits@D@std@@V?$allocator@D@2@@std@@VUnitType@BWAPI@@@std@@PAX@2@XZ 10059590 f i MacroAct.obj
 0001:00058590       ?_Buyheadnode@?$_Tree_comp_alloc@V?$_Tmap_traits@V?$basic_string@DU?$char_traits@D@std@@V?$allocator@D@2@@std@@VActionType@BOSS@@U?$less@V?$basic_string@DU?$char_traits@D@std@@V?$allocator@D@2@@std@@@2@V?$allocator@U?$pair@$$CBV?$basic_string@DU?$char_traits@D@std@@V?$allocator@D@2@@std@@VActionType@BOSS@@@std@@@2@$0A@@std@@@std@@QAEPAU?$_Tree_node@U?$pair@$$CBV?$basic_string@DU?$char_traits@D@std@@V?$allocator@D@2@@std@@VActionType@BOSS@@@std@@PAX@2@XZ 10059590 f i BOSS:ActionType.obj
 0001:000585b0       ?_Erase@?$_Tree@V?$_Tmap_traits@V?$basic_string@DU?$char_traits@D@std@@V?$allocator@D@2@@std@@VUnitType@BWAPI@@U?$less@V?$basic_string@DU?$char_traits@D@std@@V?$allocator@D@2@@std@@@2@V?$allocator@U?$pair@$$CBV?$basic_string@DU?$char_traits@D@std@@V?$allocator@D@2@@std@@VUnitType@BWAPI@@@std@@@2@$0A@@std@@@std@@IAEXPAU?$_Tree_node@U?$pair@$$CBV?$basic_string@DU?$char_traits@D@std@@V?$allocator@D@2@@std@@VUnitType@BWAPI@@@std@@PAX@2@@Z 100595b0 f i MacroAct.obj
 0001:00058640       ??$use_facet@V?$ctype@D@std@@@std@@YAABV?$ctype@D@0@ABVlocale@0@@Z 10059640 f i MacroAct.obj
 0001:00058740       ??$?HDU?$char_traits@D@std@@V?$allocator@D@1@@std@@YA?AV?$basic_string@DU?$char_traits@D@std@@V?$allocator@D@2@@0@ABV10@QBD@Z 10059740 f i MacroAct.obj
 0001:000587d0       ??$_Insert_nohint@ABW4OpeningPlan@UAlbertaBot@@U_Not_a_node_tag@std@@@?$_Tree@V?$_Tset_traits@W4OpeningPlan@UAlbertaBot@@U?$less@W4OpeningPlan@UAlbertaBot@@@std@@V?$allocator@W4OpeningPlan@UAlbertaBot@@@4@$0A@@std@@@std@@IAE?AU?$pair@V?$_Tree_const_iterator@V?$_Tree_val@U?$_Tree_simple_types@W4OpeningPlan@UAlbertaBot@@@std@@@std@@@std@@_N@1@_NABW4OpeningPlan@UAlbertaBot@@U_Not_a_node_tag@1@@Z 100597d0 f i OpponentModel.obj
 0001:000587d0       ??$_Insert_nohint@VUnitType@BWAPI@@U_Not_a_node_tag@std@@@?$_Tree@V?$_Tset_traits@VUnitType@BWAPI@@U?$less@VUnitType@BWAPI@@@std@@V?$allocator@VUnitType@BWAPI@@@4@$0A@@std@@@std@@IAE?AU?$pair@V?$_Tree_const_iterator@V?$_Tree_val@U?$_Tree_simple_types@VUnitType@BWAPI@@@std@@@std@@@std@@_N@1@_N$$QAVUnitType@BWAPI@@U_Not_a_node_tag@1@@Z 100597d0 f i MacroAct.obj
 0001:000587d0       ??$_Insert_nohint@ABVTechType@BWAPI@@U_Not_a_node_tag@std@@@?$_Tree@V?$_Tset_traits@VTechType@BWAPI@@U?$less@VTechType@BWAPI@@@std@@V?$allocator@VTechType@BWAPI@@@4@$0A@@std@@@std@@IAE?AU?$pair@V?$_Tree_const_iterator@V?$_Tree_val@U?$_Tree_simple_types@VTechType@BWAPI@@@std@@@std@@@std@@_N@1@_NABVTechType@BWAPI@@U_Not_a_node_tag@1@@Z 100597d0 f i SkillOpeningTiming.obj
 0001:00058920       ?getName@MacroCommand@UAlbertaBot@@SA?BV?$basic_string@DU?$char_traits@D@std@@V?$allocator@D@2@@std@@W4MacroCommandType@2@@Z 10059920 f   MacroCommand.obj
 0001:00058a30       ?Instance@MapGrid@UAlbertaBot@@SAAAV12@XZ 10059a30 f   MapGrid.obj
 0001:00058c00       ?getLeastExploredNear@MapGrid@UAlbertaBot@@QAE?AV?$Point@H$00@BWAPI@@ABV34@_N@Z 10059c00 f   MapGrid.obj
 0001:00058e40       ?getLeastExploredNearBase@MapGrid@UAlbertaBot@@QAE?AV?$Point@H$00@BWAPI@@PAVBase@2@_N@Z 10059e40 f   MapGrid.obj
 0001:00059230       ?update@MapGrid@UAlbertaBot@@QAEXXZ 1005a230 f   MapGrid.obj
 0001:000596a0       ?getUnits@MapGrid@UAlbertaBot@@QAEXAAVUnitset@BWAPI@@V?$Point@H$00@4@H_N2@Z 1005a6a0 f   MapGrid.obj
 0001:000597f0       ??0?$vector@VGridCell@UAlbertaBot@@V?$allocator@VGridCell@UAlbertaBot@@@std@@@std@@QAE@IABV?$allocator@VGridCell@UAlbertaBot@@@1@@Z 1005a7f0 f i MapGrid.obj
 0001:000599d0       ?_Tidy@?$vector@VGridCell@UAlbertaBot@@V?$allocator@VGridCell@UAlbertaBot@@@std@@@std@@AAEXXZ 1005a9d0 f i MapGrid.obj
 0001:00059a60       ??1?$_Uninitialized_backout_al@PAVGridCell@UAlbertaBot@@V?$allocator@VGridCell@UAlbertaBot@@@std@@@std@@QAE@XZ 1005aa60 f i MapGrid.obj
 0001:00059a90       ?findUnwalkability@MapPartitions@UAlbertaBot@@AAEXXZ 1005aa90 f   MapPartitions.obj
 0001:00059df0       ?markOnePartition@MapPartitions@UAlbertaBot@@AAEXABV?$Point@H$07@BWAPI@@@Z 1005adf0 f   MapPartitions.obj
 0001:0005a060       ?initialize@MapPartitions@UAlbertaBot@@QAEXXZ 1005b060 f   MapPartitions.obj
 0001:0005a1e0       ??0?$vector@V?$vector@GV?$allocator@G@std@@@std@@V?$allocator@V?$vector@GV?$allocator@G@std@@@std@@@2@@std@@QAE@IABV?$vector@GV?$allocator@G@std@@@1@ABV?$allocator@V?$vector@GV?$allocator@G@std@@@std@@@1@@Z 1005b1e0 f i MapPartitions.obj
 0001:0005a2f0       ?setBWAPIMapData@MapTools@UAlbertaBot@@AAEXXZ 1005b2f0 f   MapTools.obj
 0001:0005ab30       ?getGroundTileDistance@MapTools@UAlbertaBot@@QAEHV?$Point@H$0CA@@BWAPI@@0@Z 1005bb30 f   MapTools.obj
 0001:0005acf0       ??1?$pair@V?$Point@H$0CA@@BWAPI@@VGridDistances@UAlbertaBot@@@std@@QAE@XZ 1005bcf0 f i MapTools.obj
 0001:0005ad10       ?getClosestTilesTo@MapTools@UAlbertaBot@@QAEABV?$vector@V?$Point@H$0CA@@BWAPI@@V?$allocator@V?$Point@H$0CA@@BWAPI@@@std@@@std@@V?$Point@H$0CA@@BWAPI@@@Z 1005bd10 f   MapTools.obj
 0001:0005ada0       ?nextExpansion@MapTools@UAlbertaBot@@QBEPAVBase@2@_N00@Z 1005bda0 f   MapTools.obj
 0001:0005bb90       ?getNextExpansion@MapTools@UAlbertaBot@@QBE?AV?$Point@H$0CA@@BWAPI@@_N00@Z 1005cb90 f   MapTools.obj
 0001:0005bbd0       ??A?$map@V?$Point@H$0CA@@BWAPI@@VGridDistances@UAlbertaBot@@U?$less@V?$Point@H$0CA@@BWAPI@@@std@@V?$allocator@U?$pair@$$CBV?$Point@H$0CA@@BWAPI@@VGridDistances@UAlbertaBot@@@std@@@6@@std@@QAEAAVGridDistances@UAlbertaBot@@ABV?$Point@H$0CA@@BWAPI@@@Z 1005cbd0 f i MapTools.obj
 0001:0005bc40       ?lower_bound@?$_Tree@V?$_Tmap_traits@V?$Point@H$0CA@@BWAPI@@VGridDistances@UAlbertaBot@@U?$less@V?$Point@H$0CA@@BWAPI@@@std@@V?$allocator@U?$pair@$$CBV?$Point@H$0CA@@BWAPI@@VGridDistances@UAlbertaBot@@@std@@@6@$0A@@std@@@std@@QAE?AV?$_Tree_iterator@V?$_Tree_val@U?$_Tree_simple_types@U?$pair@$$CBV?$Point@H$0CA@@BWAPI@@VGridDistances@UAlbertaBot@@@std@@@std@@@std@@@2@ABV?$Point@H$0CA@@BWAPI@@@Z 1005cc40 f i MapTools.obj
 0001:0005bc90       ??0GridDistances@UAlbertaBot@@QAE@$$QAV01@@Z 1005cc90 f i MapTools.obj
 0001:0005bd30       ??$_Buynode@U?$pair@V?$Point@H$0CA@@BWAPI@@VGridDistances@UAlbertaBot@@@std@@@?$_Tree_comp_alloc@V?$_Tmap_traits@V?$Point@H$0CA@@BWAPI@@VGridDistances@UAlbertaBot@@U?$less@V?$Point@H$0CA@@BWAPI@@@std@@V?$allocator@U?$pair@$$CBV?$Point@H$0CA@@BWAPI@@VGridDistances@UAlbertaBot@@@std@@@6@$0A@@std@@@std@@QAEPAU?$_Tree_node@U?$pair@$$CBV?$Point@H$0CA@@BWAPI@@VGridDistances@UAlbertaBot@@@std@@PAX@1@$$QAU?$pair@V?$Point@H$0CA@@BWAPI@@VGridDistances@UAlbertaBot@@@1@@Z 1005cd30 f i MapTools.obj
 0001:0005bd70       ??$_Insert_nohint@AAU?$pair@$$CBV?$Point@H$0CA@@BWAPI@@VGridDistances@UAlbertaBot@@@std@@PAU?$_Tree_node@U?$pair@$$CBV?$Point@H$0CA@@BWAPI@@VGridDistances@UAlbertaBot@@@std@@PAX@2@@?$_Tree@V?$_Tmap_traits@V?$Point@H$0CA@@BWAPI@@VGridDistances@UAlbertaBot@@U?$less@V?$Point@H$0CA@@BWAPI@@@std@@V?$allocator@U?$pair@$$CBV?$Point@H$0CA@@BWAPI@@VGridDistances@UAlbertaBot@@@std@@@6@$0A@@std@@@std@@IAE?AU?$pair@V?$_Tree_iterator@V?$_Tree_val@U?$_Tree_simple_types@U?$pair@$$CBV?$Point@H$0CA@@BWAPI@@VGridDistances@UAlbertaBot@@@std@@@std@@@std@@@std@@_N@1@_NAAU?$pair@$$CBV?$Point@H$0CA@@BWAPI@@VGridDistances@UAlbertaBot@@@1@PAU?$_Tree_node@U?$pair@$$CBV?$Point@H$0CA@@BWAPI@@VGridDistances@UAlbertaBot@@@std@@PAX@1@@Z 1005cd70 f i MapTools.obj
 0001:0005bef0       ?_Destroy_if_node@?$_Tree@V?$_Tmap_traits@V?$Point@H$0CA@@BWAPI@@VGridDistances@UAlbertaBot@@U?$less@V?$Point@H$0CA@@BWAPI@@@std@@V?$allocator@U?$pair@$$CBV?$Point@H$0CA@@BWAPI@@VGridDistances@UAlbertaBot@@@std@@@6@$0A@@std@@@std@@IAEXPAU?$_Tree_node@U?$pair@$$CBV?$Point@H$0CA@@BWAPI@@VGridDistances@UAlbertaBot@@@std@@PAX@2@@Z 1005cef0 f i MapTools.obj
 0001:0005bf20       ??$_Insert_at@AAU?$pair@$$CBV?$Point@H$0CA@@BWAPI@@VGridDistances@UAlbertaBot@@@std@@PAU?$_Tree_node@U?$pair@$$CBV?$Point@H$0CA@@BWAPI@@VGridDistances@UAlbertaBot@@@std@@PAX@2@@?$_Tree@V?$_Tmap_traits@V?$Point@H$0CA@@BWAPI@@VGridDistances@UAlbertaBot@@U?$less@V?$Point@H$0CA@@BWAPI@@@std@@V?$allocator@U?$pair@$$CBV?$Point@H$0CA@@BWAPI@@VGridDistances@UAlbertaBot@@@std@@@6@$0A@@std@@@std@@IAE?AV?$_Tree_iterator@V?$_Tree_val@U?$_Tree_simple_types@U?$pair@$$CBV?$Point@H$0CA@@BWAPI@@VGridDistances@UAlbertaBot@@@std@@@std@@@std@@@1@_NPAU?$_Tree_node@U?$pair@$$CBV?$Point@H$0CA@@BWAPI@@VGridDistances@UAlbertaBot@@@std@@PAX@1@AAU?$pair@$$CBV?$Point@H$0CA@@BWAPI@@VGridDistances@UAlbertaBot@@@1@1@Z 1005cf20 f i MapTools.obj
 0001:0005c150       ??$_Buynode@ABUpiecewise_construct_t@std@@V?$tuple@ABV?$Point@H$0CA@@BWAPI@@@2@V?$tuple@$$V@2@@?$_Tree_comp_alloc@V?$_Tmap_traits@V?$Point@H$0CA@@BWAPI@@VGridDistances@UAlbertaBot@@U?$less@V?$Point@H$0CA@@BWAPI@@@std@@V?$allocator@U?$pair@$$CBV?$Point@H$0CA@@BWAPI@@VGridDistances@UAlbertaBot@@@std@@@6@$0A@@std@@@std@@QAEPAU?$_Tree_node@U?$pair@$$CBV?$Point@H$0CA@@BWAPI@@VGridDistances@UAlbertaBot@@@std@@PAX@1@ABUpiecewise_construct_t@1@$$QAV?$tuple@ABV?$Point@H$0CA@@BWAPI@@@1@$$QAV?$tuple@$$V@1@@Z 1005d150 f i MapTools.obj
 0001:0005c1b0       ??$_Insert_hint@AAU?$pair@$$CBV?$Point@H$0CA@@BWAPI@@VGridDistances@UAlbertaBot@@@std@@PAU?$_Tree_node@U?$pair@$$CBV?$Point@H$0CA@@BWAPI@@VGridDistances@UAlbertaBot@@@std@@PAX@2@@?$_Tree@V?$_Tmap_traits@V?$Point@H$0CA@@BWAPI@@VGridDistances@UAlbertaBot@@U?$less@V?$Point@H$0CA@@BWAPI@@@std@@V?$allocator@U?$pair@$$CBV?$Point@H$0CA@@BWAPI@@VGridDistances@UAlbertaBot@@@std@@@6@$0A@@std@@@std@@IAE?AV?$_Tree_iterator@V?$_Tree_val@U?$_Tree_simple_types@U?$pair@$$CBV?$Point@H$0CA@@BWAPI@@VGridDistances@UAlbertaBot@@@std@@@std@@@std@@@1@V?$_Tree_const_iterator@V?$_Tree_val@U?$_Tree_simple_types@U?$pair@$$CBV?$Point@H$0CA@@BWAPI@@VGridDistances@UAlbertaBot@@@std@@@std@@@std@@@1@AAU?$pair@$$CBV?$Point@H$0CA@@BWAPI@@VGridDistances@UAlbertaBot@@@1@PAU?$_Tree_node@U?$pair@$$CBV?$Point@H$0CA@@BWAPI@@VGridDistances@UAlbertaBot@@@std@@PAX@1@@Z 1005d1b0 f i MapTools.obj
 0001:0005c490       ??1MicroScourge@UAlbertaBot@@UAE@XZ 1005d490 f i MicroScourge.obj
 0001:0005c490       ??1MicroTanks@UAlbertaBot@@UAE@XZ 1005d490 f i MicroTanks.obj
 0001:0005c490       ??1MicroHighTemplar@UAlbertaBot@@UAE@XZ 1005d490 f i MicroHighTemplar.obj
 0001:0005c490       ??1MicroRanged@UAlbertaBot@@UAE@XZ 1005d490 f i MicroRanged.obj
 0001:0005c490       ??1MicroIrradiated@UAlbertaBot@@UAE@XZ 1005d490 f i MicroIrradiated.obj
 0001:0005c490       ??1MicroDefilers@UAlbertaBot@@UAE@XZ 1005d490 f i MicroDefilers.obj
 0001:0005c490       ??1MicroAirToAir@UAlbertaBot@@UAE@XZ 1005d490 f i MicroAirToAir.obj
 0001:0005c490       ??1MicroManager@UAlbertaBot@@UAE@XZ 1005d490 f i MicroAirToAir.obj
 0001:0005c490       ??1MicroMelee@UAlbertaBot@@UAE@XZ 1005d490 f i MicroMelee.obj
 0001:0005c490       ??1MicroQueens@UAlbertaBot@@UAE@XZ 1005d490 f i MicroQueens.obj
 0001:0005c490       ??1MicroMedics@UAlbertaBot@@UAE@XZ 1005d490 f i MicroMedics.obj
 0001:0005c490       ??1MicroLurkers@UAlbertaBot@@UAE@XZ 1005d490 f i MicroLurkers.obj
 0001:0005c490       ??1MicroDetectors@UAlbertaBot@@UAE@XZ 1005d490 f i MicroDetectors.obj
 0001:0005c4c0       ??_GMicroRanged@UAlbertaBot@@UAEPAXI@Z 1005d4c0 f i MicroRanged.obj
 0001:0005c4c0       ??_EMicroMelee@UAlbertaBot@@UAEPAXI@Z 1005d4c0 f i * CIL library *:* CIL module *
 0001:0005c4c0       ??_GMicroMedics@UAlbertaBot@@UAEPAXI@Z 1005d4c0 f i MicroMedics.obj
 0001:0005c4c0       ??_EMicroManager@UAlbertaBot@@UAEPAXI@Z 1005d4c0 f i * CIL library *:* CIL module *
 0001:0005c4c0       ??_GMicroQueens@UAlbertaBot@@UAEPAXI@Z 1005d4c0 f i MicroQueens.obj
 0001:0005c4c0       ??_EMicroTanks@UAlbertaBot@@UAEPAXI@Z 1005d4c0 f i * CIL library *:* CIL module *
 0001:0005c4c0       ??_EMicroRanged@UAlbertaBot@@UAEPAXI@Z 1005d4c0 f i * CIL library *:* CIL module *
 0001:0005c4c0       ??_EMicroHighTemplar@UAlbertaBot@@UAEPAXI@Z 1005d4c0 f i * CIL library *:* CIL module *
 0001:0005c4c0       ??_EMicroQueens@UAlbertaBot@@UAEPAXI@Z 1005d4c0 f i * CIL library *:* CIL module *
 0001:0005c4c0       ??_GMicroIrradiated@UAlbertaBot@@UAEPAXI@Z 1005d4c0 f i MicroIrradiated.obj
 0001:0005c4c0       ??_EMicroMedics@UAlbertaBot@@UAEPAXI@Z 1005d4c0 f i * CIL library *:* CIL module *
 0001:0005c4c0       ??_EMicroScourge@UAlbertaBot@@UAEPAXI@Z 1005d4c0 f i * CIL library *:* CIL module *
 0001:0005c4c0       ??_GMicroManager@UAlbertaBot@@UAEPAXI@Z 1005d4c0 f i MicroAirToAir.obj
 0001:0005c4c0       ??_EMicroDefilers@UAlbertaBot@@UAEPAXI@Z 1005d4c0 f i * CIL library *:* CIL module *
 0001:0005c4c0       ??_GMicroScourge@UAlbertaBot@@UAEPAXI@Z 1005d4c0 f i MicroScourge.obj
 0001:0005c4c0       ??_GMicroMelee@UAlbertaBot@@UAEPAXI@Z 1005d4c0 f i MicroMelee.obj
 0001:0005c4c0       ??_GMicroDefilers@UAlbertaBot@@UAEPAXI@Z 1005d4c0 f i MicroDefilers.obj
 0001:0005c4c0       ??_EMicroIrradiated@UAlbertaBot@@UAEPAXI@Z 1005d4c0 f i * CIL library *:* CIL module *
 0001:0005c4c0       ??_GMicroAirToAir@UAlbertaBot@@UAEPAXI@Z 1005d4c0 f i MicroAirToAir.obj
 0001:0005c4c0       ??_GMicroTanks@UAlbertaBot@@UAEPAXI@Z 1005d4c0 f i MicroTanks.obj
 0001:0005c4c0       ??_GMicroHighTemplar@UAlbertaBot@@UAEPAXI@Z 1005d4c0 f i MicroHighTemplar.obj
 0001:0005c4c0       ??_EMicroAirToAir@UAlbertaBot@@UAEPAXI@Z 1005d4c0 f i * CIL library *:* CIL module *
 0001:0005c510       ?executeMicro@MicroAirToAir@UAlbertaBot@@UAEXABVUnitset@BWAPI@@ABVUnitCluster@2@@Z 1005d510 f   MicroAirToAir.obj
 0001:0005c590       ?assignTargets@MicroAirToAir@UAlbertaBot@@QAEXABVUnitset@BWAPI@@0@Z 1005d590 f   MicroAirToAir.obj
 0001:0005c770       ?getTarget@MicroAirToAir@UAlbertaBot@@QAEPAVUnitInterface@BWAPI@@PAV34@ABVUnitset@4@@Z 1005d770 f   MicroAirToAir.obj
 0001:0005ca20       ??1?$_Tree_comp_alloc@V?$_Tmap_traits@PAVUnitInterface@BWAPI@@VCasterState@UAlbertaBot@@U?$less@PAVUnitInterface@BWAPI@@@std@@V?$allocator@U?$pair@QAVUnitInterface@BWAPI@@VCasterState@UAlbertaBot@@@std@@@6@$0A@@std@@@std@@QAE@XZ 1005da20 f i MicroAirToAir.obj
 0001:0005ca30       ?_Tidy@?$_Tree@V?$_Tmap_traits@PAVUnitInterface@BWAPI@@VCasterState@UAlbertaBot@@U?$less@PAVUnitInterface@BWAPI@@@std@@V?$allocator@U?$pair@QAVUnitInterface@BWAPI@@VCasterState@UAlbertaBot@@@std@@@6@$0A@@std@@@std@@IAEXXZ 1005da30 f i MicroAirToAir.obj
 0001:0005cac0       ?_Erase@?$_Tree@V?$_Tmap_traits@PAVUnitInterface@BWAPI@@ULurkerRecord@SkillLurkers@UAlbertaBot@@U?$less@PAVUnitInterface@BWAPI@@@std@@V?$allocator@U?$pair@QAVUnitInterface@BWAPI@@ULurkerRecord@SkillLurkers@UAlbertaBot@@@std@@@7@$0A@@std@@@std@@IAEXPAU?$_Tree_node@U?$pair@QAVUnitInterface@BWAPI@@ULurkerRecord@SkillLurkers@UAlbertaBot@@@std@@PAX@2@@Z 1005dac0 f i SkillLurkers.obj
 0001:0005cac0       ?_Erase@?$_Tree@V?$_Tmap_traits@PAVUnitInterface@BWAPI@@VCasterState@UAlbertaBot@@U?$less@PAVUnitInterface@BWAPI@@@std@@V?$allocator@U?$pair@QAVUnitInterface@BWAPI@@VCasterState@UAlbertaBot@@@std@@@6@$0A@@std@@@std@@IAEXPAU?$_Tree_node@U?$pair@QAVUnitInterface@BWAPI@@VCasterState@UAlbertaBot@@@std@@PAX@2@@Z 1005dac0 f i MicroAirToAir.obj
 0001:0005cac0       ?_Erase@?$_Tree@V?$_Tmap_traits@PAVUnitInterface@BWAPI@@VWorkerPost@WorkerData@UAlbertaBot@@U?$less@PAVUnitInterface@BWAPI@@@std@@V?$allocator@U?$pair@QAVUnitInterface@BWAPI@@VWorkerPost@WorkerData@UAlbertaBot@@@std@@@7@$0A@@std@@@std@@IAEXPAU?$_Tree_node@U?$pair@QAVUnitInterface@BWAPI@@VWorkerPost@WorkerData@UAlbertaBot@@@std@@PAX@2@@Z 1005dac0 f i WorkerData.obj
 0001:0005cbb0       ?getDefilers@MicroDefilers@UAlbertaBot@@ABE?AVUnitset@BWAPI@@ABVUnitCluster@2@@Z 1005dbb0 f   MicroDefilers.obj
 0001:0005ccb0       ?aboutToDie@MicroDefilers@UAlbertaBot@@ABE_NQAVUnitInterface@BWAPI@@@Z 1005dcb0 f   MicroDefilers.obj
 0001:0005cd50       ?swarmScore@MicroDefilers@UAlbertaBot@@ABEHPAVUnitInterface@BWAPI@@@Z 1005dd50 f   MicroDefilers.obj
 0001:0005ce30       ?maybeSwarm@MicroDefilers@UAlbertaBot@@AAE_NPAVUnitInterface@BWAPI@@@Z 1005de30 f   MicroDefilers.obj
 0001:0005d7e0       ?plagueScore@MicroDefilers@UAlbertaBot@@ABEHPAVUnitInterface@BWAPI@@@Z 1005e7e0 f   MicroDefilers.obj
 0001:0005d9a0       ?maybePlague@MicroDefilers@UAlbertaBot@@AAE_NPAVUnitInterface@BWAPI@@@Z 1005e9a0 f   MicroDefilers.obj
 0001:0005de30       ?executeMicro@MicroDetectors@UAlbertaBot@@UAEXABVUnitset@BWAPI@@ABVUnitCluster@2@@Z 1005ee30 f   MicroDetectors.obj
 0001:0005de30       ?executeMicro@MicroOverlords@UAlbertaBot@@UAEXABVUnitset@BWAPI@@ABVUnitCluster@2@@Z 1005ee30 f   MicroOverlords.obj
 0001:0005de30       ?executeMicro@MicroIrradiated@UAlbertaBot@@UAEXABVUnitset@BWAPI@@ABVUnitCluster@2@@Z 1005ee30 f   MicroIrradiated.obj
 0001:0005de30       ?getData@Skill@UAlbertaBot@@UAEXAAVGameRecord@2@ABV?$basic_string@DU?$char_traits@D@std@@V?$allocator@D@2@@std@@@Z 1005ee30 f   Skill.obj
 0001:0005de30       ?executeMicro@MicroQueens@UAlbertaBot@@UAEXABVUnitset@BWAPI@@ABVUnitCluster@2@@Z 1005ee30 f   MicroQueens.obj
 0001:0005de30       ?onNukeDetect@AIModule@BWAPI@@UAEXV?$Point@H$00@2@@Z 1005ee30 f   BWAPILIB:AIModule.obj
 0001:0005de30       ?executeMicro@MicroMedics@UAlbertaBot@@UAEXABVUnitset@BWAPI@@ABVUnitCluster@2@@Z 1005ee30 f   MicroMedics.obj
 0001:0005de30       ?executeMicro@MicroDefilers@UAlbertaBot@@UAEXABVUnitset@BWAPI@@ABVUnitCluster@2@@Z 1005ee30 f   MicroDefilers.obj
 0001:0005de30       ?executeMicro@MicroHighTemplar@UAlbertaBot@@UAEXABVUnitset@BWAPI@@ABVUnitCluster@2@@Z 1005ee30 f   MicroHighTemplar.obj
 0001:0005de30       ?executeMicro@MicroTransports@UAlbertaBot@@UAEXABVUnitset@BWAPI@@ABVUnitCluster@2@@Z 1005ee30 f   MicroTransports.obj
 0001:0005de40       ?updateMovement@MicroDefilers@UAlbertaBot@@QAEXABVUnitCluster@2@PAVUnitInterface@BWAPI@@@Z 1005ee40 f   MicroDefilers.obj
 0001:0005e3c0       ?updateSwarm@MicroDefilers@UAlbertaBot@@QAEXABVUnitCluster@2@@Z 1005f3c0 f   MicroDefilers.obj
 0001:0005e5b0       ?updatePlague@MicroDefilers@UAlbertaBot@@QAEXABVUnitCluster@2@@Z 1005f5b0 f   MicroDefilers.obj
 0001:0005e7c0       ??$?WV?$UnaryFilter@PAVUnitInterface@BWAPI@@V?$function@$$A6A_NPAVUnitInterface@BWAPI@@@Z@std@@@BWAPI@@@?$UnaryFilter@PAVUnitInterface@BWAPI@@P6A_NPAV12@@Z@BWAPI@@QBE?AV?$UnaryFilter@PAVUnitInterface@BWAPI@@V?$function@$$A6A_NPAVUnitInterface@BWAPI@@@Z@std@@@1@ABV21@@Z 1005f7c0 f i MicroDefilers.obj
 0001:0005e8d0       ?_Target_type@?$_Func_impl_no_alloc@V<lambda_a2cf48cc0ad720342f05725db62c6909>@@_NPAVUnitInterface@BWAPI@@@std@@EBEABVtype_info@@XZ 1005f8d0 f i MicroDefilers.obj
 0001:0005e8e0       ?_Move@?$_Func_impl_no_alloc@V<lambda_a2cf48cc0ad720342f05725db62c6909>@@_NPAVUnitInterface@BWAPI@@@std@@EAEPAV?$_Func_base@_NPAVUnitInterface@BWAPI@@@2@PAX@Z 1005f8e0 f i MicroDefilers.obj
 0001:0005e8e0       ?_Copy@?$_Func_impl_no_alloc@V<lambda_a2cf48cc0ad720342f05725db62c6909>@@_NPAVUnitInterface@BWAPI@@@std@@EBEPAV?$_Func_base@_NPAVUnitInterface@BWAPI@@@2@PAX@Z 1005f8e0 f i MicroDefilers.obj
 0001:0005e900       ?_Target_type@?$_Func_impl_no_alloc@V<lambda_5f0711d792da3a2e3345062a6240f8fe>@@_NPAVUnitInterface@BWAPI@@@std@@EBEABVtype_info@@XZ 1005f900 f i MicroDefilers.obj
 0001:0005e910       ?_Move@?$_Func_impl_no_alloc@V<lambda_5f0711d792da3a2e3345062a6240f8fe>@@_NPAVUnitInterface@BWAPI@@@std@@EAEPAV?$_Func_base@_NPAVUnitInterface@BWAPI@@@2@PAX@Z 1005f910 f i MicroDefilers.obj
 0001:0005e910       ?_Copy@?$_Func_impl_no_alloc@V<lambda_5f0711d792da3a2e3345062a6240f8fe>@@_NPAVUnitInterface@BWAPI@@@std@@EBEPAV?$_Func_base@_NPAVUnitInterface@BWAPI@@@2@PAX@Z 1005f910 f i MicroDefilers.obj
 0001:0005e930       ?_Do_call@?$_Func_impl_no_alloc@V<lambda_3cdec769ff18744395981dd48fcfc232>@@_NPAVUnitInterface@BWAPI@@@std@@EAE_N$$QAPAVUnitInterface@BWAPI@@@Z 1005f930 f i Micro.obj
 0001:0005e930       ?_Do_call@?$_Func_impl_no_alloc@V<lambda_5f0711d792da3a2e3345062a6240f8fe>@@_NPAVUnitInterface@BWAPI@@@std@@EAE_N$$QAPAVUnitInterface@BWAPI@@@Z 1005f930 f i MicroDefilers.obj
 0001:0005e960       ?_Do_call@?$_Func_impl_no_alloc@V<lambda_a2cf48cc0ad720342f05725db62c6909>@@_NPAVUnitInterface@BWAPI@@@std@@EAE_N$$QAPAVUnitInterface@BWAPI@@@Z 1005f960 f i MicroDefilers.obj
 0001:0005e980       ?_Target_type@?$_Func_impl_no_alloc@V<lambda_c39fdb09d160b656fde65dff274b627b>@@_NPAVUnitInterface@BWAPI@@@std@@EBEABVtype_info@@XZ 1005f980 f i MicroDefilers.obj
 0001:0005e990       ?_Move@?$_Func_impl_no_alloc@V<lambda_c39fdb09d160b656fde65dff274b627b>@@_NPAVUnitInterface@BWAPI@@@std@@EAEPAV?$_Func_base@_NPAVUnitInterface@BWAPI@@@2@PAX@Z 1005f990 f i MicroDefilers.obj
 0001:0005ea00       ?_Copy@?$_Func_impl_no_alloc@V<lambda_c39fdb09d160b656fde65dff274b627b>@@_NPAVUnitInterface@BWAPI@@@std@@EBEPAV?$_Func_base@_NPAVUnitInterface@BWAPI@@@2@PAX@Z 1005fa00 f i MicroDefilers.obj
 0001:0005ea10       ?_Do_call@?$_Func_impl_no_alloc@V<lambda_c39fdb09d160b656fde65dff274b627b>@@_NPAVUnitInterface@BWAPI@@@std@@EAE_N$$QAPAVUnitInterface@BWAPI@@@Z 1005fa10 f i MicroDefilers.obj
 0001:0005ea60       ??$_Global_new@V?$_Func_impl_no_alloc@V<lambda_c39fdb09d160b656fde65dff274b627b>@@_NPAVUnitInterface@BWAPI@@@std@@ABV<lambda_c39fdb09d160b656fde65dff274b627b>@@@std@@YAPAV?$_Func_impl_no_alloc@V<lambda_c39fdb09d160b656fde65dff274b627b>@@_NPAVUnitInterface@BWAPI@@@0@ABV<lambda_c39fdb09d160b656fde65dff274b627b>@@@Z 1005fa60 f i MicroDefilers.obj
 0001:0005ea60       ??$_Global_new@V?$_Func_impl_no_alloc@V<lambda_c39fdb09d160b656fde65dff274b627b>@@_NPAVUnitInterface@BWAPI@@@std@@V<lambda_c39fdb09d160b656fde65dff274b627b>@@@std@@YAPAV?$_Func_impl_no_alloc@V<lambda_c39fdb09d160b656fde65dff274b627b>@@_NPAVUnitInterface@BWAPI@@@0@$$QAV<lambda_c39fdb09d160b656fde65dff274b627b>@@@Z 1005fa60 f i MicroDefilers.obj
 0001:0005eb00       ??_EMicroLurkers@UAlbertaBot@@UAEPAXI@Z 1005fb00 f i * CIL library *:* CIL module *
 0001:0005eb00       ??_GMicroDetectors@UAlbertaBot@@UAEPAXI@Z 1005fb00 f i MicroDetectors.obj
 0001:0005eb00       ??_GMicroLurkers@UAlbertaBot@@UAEPAXI@Z 1005fb00 f i MicroLurkers.obj
 0001:0005eb00       ??_EMicroDetectors@UAlbertaBot@@UAEPAXI@Z 1005fb00 f i * CIL library *:* CIL module *
 0001:0005eb50       ?go@MicroDetectors@UAlbertaBot@@QAEXABVUnitset@BWAPI@@@Z 1005fb50 f   MicroDetectors.obj
 0001:0005f7b0       ?update@MicroHighTemplar@UAlbertaBot@@QAEXXZ 100607b0 f   MicroHighTemplar.obj
 0001:0005fae0       ?nearestEnemy@MicroIrradiated@UAlbertaBot@@ABEPAVUnitInterface@BWAPI@@PAV34@@Z 10060ae0 f   MicroIrradiated.obj
 0001:0005fc80       ?friendNearby@MicroIrradiated@UAlbertaBot@@ABEPAVUnitInterface@BWAPI@@PAV34@@Z 10060c80 f   MicroIrradiated.obj
 0001:0005fe90       ?runToEnemy@MicroIrradiated@UAlbertaBot@@AAEXPAVUnitInterface@BWAPI@@0@Z 10060e90 f   MicroIrradiated.obj
 0001:0005ff20       ?runAway@MicroIrradiated@UAlbertaBot@@AAEXPAVUnitInterface@BWAPI@@0@Z 10060f20 f   MicroIrradiated.obj
 0001:0005ffd0       ?update@MicroIrradiated@UAlbertaBot@@QAEXXZ 10060fd0 f   MicroIrradiated.obj
 0001:00060300       ??$?VV?$UnaryFilter@PAVUnitInterface@BWAPI@@V?$function@$$A6A_NPAVUnitInterface@BWAPI@@@Z@std@@@BWAPI@@@?$UnaryFilter@PAVUnitInterface@BWAPI@@V?$function@$$A6A_NPAVUnitInterface@BWAPI@@@Z@std@@@BWAPI@@QBE?AV01@ABV01@@Z 10061300 f i MicroIrradiated.obj
 0001:00060410       ?_Target_type@?$_Func_impl_no_alloc@V<lambda_cfd6fce307c286eb3135c7782fdef1bb>@@_NPAVUnitInterface@BWAPI@@@std@@EBEABVtype_info@@XZ 10061410 f i MicroIrradiated.obj
 0001:00060420       ?_Move@?$_Func_impl_no_alloc@V<lambda_cfd6fce307c286eb3135c7782fdef1bb>@@_NPAVUnitInterface@BWAPI@@@std@@EAEPAV?$_Func_base@_NPAVUnitInterface@BWAPI@@@2@PAX@Z 10061420 f i MicroIrradiated.obj
 0001:00060490       ?_Copy@?$_Func_impl_no_alloc@V<lambda_cfd6fce307c286eb3135c7782fdef1bb>@@_NPAVUnitInterface@BWAPI@@@std@@EBEPAV?$_Func_base@_NPAVUnitInterface@BWAPI@@@2@PAX@Z 10061490 f i MicroIrradiated.obj
 0001:000604a0       ?_Target_type@?$_Func_impl_no_alloc@V<lambda_118b755b5cc58de9f37bbbebea1f7d1c>@@_NPAVUnitInterface@BWAPI@@@std@@EBEABVtype_info@@XZ 100614a0 f i MicroIrradiated.obj
 0001:000604b0       ?_Move@?$_Func_impl_no_alloc@V<lambda_118b755b5cc58de9f37bbbebea1f7d1c>@@_NPAVUnitInterface@BWAPI@@@std@@EAEPAV?$_Func_base@_NPAVUnitInterface@BWAPI@@@2@PAX@Z 100614b0 f i MicroIrradiated.obj
 0001:000604b0       ?_Copy@?$_Func_impl_no_alloc@V<lambda_118b755b5cc58de9f37bbbebea1f7d1c>@@_NPAVUnitInterface@BWAPI@@@std@@EBEPAV?$_Func_base@_NPAVUnitInterface@BWAPI@@@2@PAX@Z 100614b0 f i MicroIrradiated.obj
 0001:000604d0       ?_Do_call@?$_Func_impl_no_alloc@V<lambda_118b755b5cc58de9f37bbbebea1f7d1c>@@_NPAVUnitInterface@BWAPI@@@std@@EAE_N$$QAPAVUnitInterface@BWAPI@@@Z 100614d0 f i MicroIrradiated.obj
 0001:00060510       ?_Do_call@?$_Func_impl_no_alloc@V<lambda_cfd6fce307c286eb3135c7782fdef1bb>@@_NPAVUnitInterface@BWAPI@@@std@@EAE_N$$QAPAVUnitInterface@BWAPI@@@Z 10061510 f i MicroIrradiated.obj
 0001:00060580       ??$_Global_new@V?$_Func_impl_no_alloc@V<lambda_cfd6fce307c286eb3135c7782fdef1bb>@@_NPAVUnitInterface@BWAPI@@@std@@V<lambda_cfd6fce307c286eb3135c7782fdef1bb>@@@std@@YAPAV?$_Func_impl_no_alloc@V<lambda_cfd6fce307c286eb3135c7782fdef1bb>@@_NPAVUnitInterface@BWAPI@@@0@$$QAV<lambda_cfd6fce307c286eb3135c7782fdef1bb>@@@Z 10061580 f i MicroIrradiated.obj
 0001:00060580       ??$_Global_new@V?$_Func_impl_no_alloc@V<lambda_cfd6fce307c286eb3135c7782fdef1bb>@@_NPAVUnitInterface@BWAPI@@@std@@ABV<lambda_cfd6fce307c286eb3135c7782fdef1bb>@@@std@@YAPAV?$_Func_impl_no_alloc@V<lambda_cfd6fce307c286eb3135c7782fdef1bb>@@_NPAVUnitInterface@BWAPI@@@0@ABV<lambda_cfd6fce307c286eb3135c7782fdef1bb>@@@Z 10061580 f i MicroIrradiated.obj
 0001:00060620       ?dangerousEnemyInRange@MicroLurkers@UAlbertaBot@@ABE_NPAVUnitInterface@BWAPI@@@Z 10061620 f   MicroLurkers.obj
 0001:000607b0       ?seekToBurrow@MicroLurkers@UAlbertaBot@@AAEXABVUnitset@BWAPI@@PAVUnitInterface@4@@Z 100617b0 f   MicroLurkers.obj
 0001:00060890       ?executeMicro@MicroLurkers@UAlbertaBot@@UAEXABVUnitset@BWAPI@@ABVUnitCluster@2@@Z 10061890 f   MicroLurkers.obj
 0001:00060e60       ?getTarget@MicroLurkers@UAlbertaBot@@QAEPAVUnitInterface@BWAPI@@PAV34@ABVUnitset@4@@Z 10061e60 f   MicroLurkers.obj
 0001:00061030       ?getAttackPriority@MicroLurkers@UAlbertaBot@@QBEHPAVUnitInterface@BWAPI@@@Z 10062030 f   MicroLurkers.obj
 0001:00061240       ??0MicroManager@UAlbertaBot@@QAE@XZ 10062240 f   MicroManager.obj
 0001:00061310       ?execute@MicroManager@UAlbertaBot@@QAEXABVUnitCluster@2@@Z 10062310 f   MicroManager.obj
 0001:000616f0       ?getBackstopAttackPriority@MicroManager@UAlbertaBot@@IBEHPAVUnitInterface@BWAPI@@@Z 100626f0 f   MicroManager.obj
 0001:00061880       ?destroyNeutralTargets@MicroManager@UAlbertaBot@@IAEXABVUnitset@BWAPI@@@Z 10062880 f   MicroManager.obj
 0001:00061ac0       ?regroup@MicroManager@UAlbertaBot@@QBEXABV?$Point@H$00@BWAPI@@ABVUnitCluster@2@@Z 10062ac0 f   MicroManager.obj
 0001:00062900       ?unitNearChokepoint@MicroManager@UAlbertaBot@@IBE_NPAVUnitInterface@BWAPI@@@Z 10063900 f   MicroManager.obj
 0001:00062960       ?spell@MicroManager@UAlbertaBot@@IBE_NPAVUnitInterface@BWAPI@@VTechType@4@V?$Point@H$00@4@@Z 10063960 f   MicroManager.obj
 0001:00062bb0       ?spell@MicroManager@UAlbertaBot@@IBE_NPAVUnitInterface@BWAPI@@VTechType@4@0@Z 10063bb0 f   MicroManager.obj
 0001:00062d40       ?updateCasters@MicroManager@UAlbertaBot@@IAEXABVUnitset@BWAPI@@@Z 10063d40 f   MicroManager.obj
 0001:00062ee0       ?infestable@MicroManager@UAlbertaBot@@IBE_NPAVUnitInterface@BWAPI@@@Z 10063ee0 f   MicroManager.obj
 0001:00063100       ?anyUnderThreat@MicroManager@UAlbertaBot@@QBE_NABVUnitset@BWAPI@@@Z 10064100 f   MicroManager.obj
 0001:00063380       ??$_Buynode@U?$pair@PAVUnitInterface@BWAPI@@VCasterState@UAlbertaBot@@@std@@@?$_Tree_comp_alloc@V?$_Tmap_traits@PAVUnitInterface@BWAPI@@VCasterState@UAlbertaBot@@U?$less@PAVUnitInterface@BWAPI@@@std@@V?$allocator@U?$pair@QAVUnitInterface@BWAPI@@VCasterState@UAlbertaBot@@@std@@@6@$0A@@std@@@std@@QAEPAU?$_Tree_node@U?$pair@QAVUnitInterface@BWAPI@@VCasterState@UAlbertaBot@@@std@@PAX@1@$$QAU?$pair@PAVUnitInterface@BWAPI@@VCasterState@UAlbertaBot@@@1@@Z 10064380 f i MicroManager.obj
 0001:000633b0       ??$_Insert_nohint@AAU?$pair@QAVUnitInterface@BWAPI@@VWorkerPost@WorkerData@UAlbertaBot@@@std@@PAU?$_Tree_node@U?$pair@QAVUnitInterface@BWAPI@@VWorkerPost@WorkerData@UAlbertaBot@@@std@@PAX@2@@?$_Tree@V?$_Tmap_traits@PAVUnitInterface@BWAPI@@VWorkerPost@WorkerData@UAlbertaBot@@U?$less@PAVUnitInterface@BWAPI@@@std@@V?$allocator@U?$pair@QAVUnitInterface@BWAPI@@VWorkerPost@WorkerData@UAlbertaBot@@@std@@@7@$0A@@std@@@std@@IAE?AU?$pair@V?$_Tree_iterator@V?$_Tree_val@U?$_Tree_simple_types@U?$pair@QAVUnitInterface@BWAPI@@VWorkerPost@WorkerData@UAlbertaBot@@@std@@@std@@@std@@@std@@_N@1@_NAAU?$pair@QAVUnitInterface@BWAPI@@VWorkerPost@WorkerData@UAlbertaBot@@@1@PAU?$_Tree_node@U?$pair@QAVUnitInterface@BWAPI@@VWorkerPost@WorkerData@UAlbertaBot@@@std@@PAX@1@@Z 100643b0 f i WorkerData.obj
 0001:000633b0       ??$_Insert_nohint@AAU?$pair@QAVUnitInterface@BWAPI@@VCasterState@UAlbertaBot@@@std@@PAU?$_Tree_node@U?$pair@QAVUnitInterface@BWAPI@@VCasterState@UAlbertaBot@@@std@@PAX@2@@?$_Tree@V?$_Tmap_traits@PAVUnitInterface@BWAPI@@VCasterState@UAlbertaBot@@U?$less@PAVUnitInterface@BWAPI@@@std@@V?$allocator@U?$pair@QAVUnitInterface@BWAPI@@VCasterState@UAlbertaBot@@@std@@@6@$0A@@std@@@std@@IAE?AU?$pair@V?$_Tree_iterator@V?$_Tree_val@U?$_Tree_simple_types@U?$pair@QAVUnitInterface@BWAPI@@VCasterState@UAlbertaBot@@@std@@@std@@@std@@@std@@_N@1@_NAAU?$pair@QAVUnitInterface@BWAPI@@VCasterState@UAlbertaBot@@@1@PAU?$_Tree_node@U?$pair@QAVUnitInterface@BWAPI@@VCasterState@UAlbertaBot@@@std@@PAX@1@@Z 100643b0 f i MicroManager.obj
 0001:00063520       ?_Target_type@?$_Func_impl_no_alloc@V<lambda_e0d4f0a6843bbf70301b4930bfad8260>@@_NPAVUnitInterface@BWAPI@@@std@@EBEABVtype_info@@XZ 10064520 f i MicroManager.obj
 0001:00063530       ?_Copy@?$_Func_impl_no_alloc@V<lambda_e0d4f0a6843bbf70301b4930bfad8260>@@_NPAVUnitInterface@BWAPI@@@std@@EBEPAV?$_Func_base@_NPAVUnitInterface@BWAPI@@@2@PAX@Z 10064530 f i MicroManager.obj
 0001:00063530       ?_Move@?$_Func_impl_no_alloc@V<lambda_e0d4f0a6843bbf70301b4930bfad8260>@@_NPAVUnitInterface@BWAPI@@@std@@EAEPAV?$_Func_base@_NPAVUnitInterface@BWAPI@@@2@PAX@Z 10064530 f i MicroManager.obj
 0001:00063550       ?_Destroy_if_node@?$_Tree@V?$_Tmap_traits@PAVUnitInterface@BWAPI@@VWorkerPost@WorkerData@UAlbertaBot@@U?$less@PAVUnitInterface@BWAPI@@@std@@V?$allocator@U?$pair@QAVUnitInterface@BWAPI@@VWorkerPost@WorkerData@UAlbertaBot@@@std@@@7@$0A@@std@@@std@@IAEXPAU?$_Tree_node@U?$pair@QAVUnitInterface@BWAPI@@VWorkerPost@WorkerData@UAlbertaBot@@@std@@PAX@2@@Z 10064550 f i WorkerData.obj
 0001:00063550       ?_Destroy_if_node@?$_Tree@V?$_Tmap_traits@PAVUnitInterface@BWAPI@@VCasterState@UAlbertaBot@@U?$less@PAVUnitInterface@BWAPI@@@std@@V?$allocator@U?$pair@QAVUnitInterface@BWAPI@@VCasterState@UAlbertaBot@@@std@@@6@$0A@@std@@@std@@IAEXPAU?$_Tree_node@U?$pair@QAVUnitInterface@BWAPI@@VCasterState@UAlbertaBot@@@std@@PAX@2@@Z 10064550 f i MicroManager.obj
 0001:00063550       ?_Freenode0@?$_Tree_comp_alloc@V?$_Tmap_traits@PAVUnitInterface@BWAPI@@VWorkerPost@WorkerData@UAlbertaBot@@U?$less@PAVUnitInterface@BWAPI@@@std@@V?$allocator@U?$pair@QAVUnitInterface@BWAPI@@VWorkerPost@WorkerData@UAlbertaBot@@@std@@@7@$0A@@std@@@std@@QAEXPAU?$_Tree_node@U?$pair@QAVUnitInterface@BWAPI@@VWorkerPost@WorkerData@UAlbertaBot@@@std@@PAX@2@@Z 10064550 f i WorkerData.obj
 0001:00063570       ??$_Insert_at@AAU?$pair@QAVUnitInterface@BWAPI@@VCasterState@UAlbertaBot@@@std@@PAU?$_Tree_node@U?$pair@QAVUnitInterface@BWAPI@@VCasterState@UAlbertaBot@@@std@@PAX@2@@?$_Tree@V?$_Tmap_traits@PAVUnitInterface@BWAPI@@VCasterState@UAlbertaBot@@U?$less@PAVUnitInterface@BWAPI@@@std@@V?$allocator@U?$pair@QAVUnitInterface@BWAPI@@VCasterState@UAlbertaBot@@@std@@@6@$0A@@std@@@std@@IAE?AV?$_Tree_iterator@V?$_Tree_val@U?$_Tree_simple_types@U?$pair@QAVUnitInterface@BWAPI@@VCasterState@UAlbertaBot@@@std@@@std@@@std@@@1@_NPAU?$_Tree_node@U?$pair@QAVUnitInterface@BWAPI@@VCasterState@UAlbertaBot@@@std@@PAX@1@AAU?$pair@QAVUnitInterface@BWAPI@@VCasterState@UAlbertaBot@@@1@1@Z 10064570 f i MicroManager.obj
 0001:00063570       ??$_Insert_at@AAU?$pair@QAVUnitInterface@BWAPI@@VWorkerPost@WorkerData@UAlbertaBot@@@std@@PAU?$_Tree_node@U?$pair@QAVUnitInterface@BWAPI@@VWorkerPost@WorkerData@UAlbertaBot@@@std@@PAX@2@@?$_Tree@V?$_Tmap_traits@PAVUnitInterface@BWAPI@@VWorkerPost@WorkerData@UAlbertaBot@@U?$less@PAVUnitInterface@BWAPI@@@std@@V?$allocator@U?$pair@QAVUnitInterface@BWAPI@@VWorkerPost@WorkerData@UAlbertaBot@@@std@@@7@$0A@@std@@@std@@IAE?AV?$_Tree_iterator@V?$_Tree_val@U?$_Tree_simple_types@U?$pair@QAVUnitInterface@BWAPI@@VWorkerPost@WorkerData@UAlbertaBot@@@std@@@std@@@std@@@1@_NPAU?$_Tree_node@U?$pair@QAVUnitInterface@BWAPI@@VWorkerPost@WorkerData@UAlbertaBot@@@std@@PAX@1@AAU?$pair@QAVUnitInterface@BWAPI@@VWorkerPost@WorkerData@UAlbertaBot@@@1@1@Z 10064570 f i WorkerData.obj
 0001:000637a0       ?monitor@MicroState@UAlbertaBot@@AAEXPAVUnitInterface@BWAPI@@@Z 100647a0 f   Micro.obj
 0001:000639a0       ??0MicroState@UAlbertaBot@@QAE@XZ 100649a0 f   Micro.obj
 0001:00063a10       ?setOrder@MicroState@UAlbertaBot@@QAEXPAVUnitInterface@BWAPI@@VOrder@4@@Z 10064a10 f   Micro.obj
 0001:00063ab0       ?setOrder@MicroState@UAlbertaBot@@QAEXPAVUnitInterface@BWAPI@@VOrder@4@0@Z 10064ab0 f   Micro.obj
 0001:00063b50       ?setOrder@MicroState@UAlbertaBot@@QAEXPAVUnitInterface@BWAPI@@VOrder@4@V?$Point@H$00@4@@Z 10064b50 f   Micro.obj
 0001:00063d20       ?update@MicroState@UAlbertaBot@@QAEXPAVUnitInterface@BWAPI@@@Z 10064d20 f   Micro.obj
 0001:00063ee0       ?update@Micro@UAlbertaBot@@QAEXXZ 10064ee0 f   Micro.obj
 0001:000640c0       ?nextGroundDestination@Micro@UAlbertaBot@@ABE?AV?$Point@H$00@BWAPI@@PAVUnitInterface@4@ABV34@PBVGridDistances@2@@Z 100650c0 f   Micro.obj
 0001:000644c0       ?getMicroState@Micro@UAlbertaBot@@QBEABVMicroState@2@PAVUnitInterface@BWAPI@@@Z 100654c0 f   Micro.obj
 0001:00064510       ?inWeaponsDanger@Micro@UAlbertaBot@@QBEPAVUnitInterface@BWAPI@@PAV34@H@Z 10065510 f   Micro.obj
 0001:00064ea0       ?canFleeTo@Micro@UAlbertaBot@@QBE_NPAVUnitInterface@BWAPI@@ABV?$Point@H$00@4@@Z 10065ea0 f   Micro.obj
 0001:00065180       ?kiteBack@Micro@UAlbertaBot@@QAE_NPAVUnitInterface@BWAPI@@0@Z 10066180 f   Micro.obj
 0001:00065350       ?fleeEnemy@Micro@UAlbertaBot@@QAEXPAVUnitInterface@BWAPI@@0H@Z 10066350 f   Micro.obj
 0001:000653f0       ?fleeDT@Micro@UAlbertaBot@@QAE_NPAVUnitInterface@BWAPI@@@Z 100663f0 f   Micro.obj
 0001:00065720       ?Stop@Micro@UAlbertaBot@@QAEXPAVUnitInterface@BWAPI@@@Z 10066720 f   Micro.obj
 0001:00065850       ?CatchAndAttackUnit@Micro@UAlbertaBot@@QAEXPAVUnitInterface@BWAPI@@0@Z 10066850 f   Micro.obj
 0001:000659d0       ?AttackUnit@Micro@UAlbertaBot@@QAEXPAVUnitInterface@BWAPI@@0@Z 100669d0 f   Micro.obj
 0001:00065be0       ?AttackMove@Micro@UAlbertaBot@@QAEXPAVUnitInterface@BWAPI@@ABV?$Point@H$00@4@@Z 10066be0 f   Micro.obj
 0001:00065e00       ?Move@Micro@UAlbertaBot@@QAEXPAVUnitInterface@BWAPI@@ABV?$Point@H$00@4@PBVGridDistances@2@@Z 10066e00 f   Micro.obj
 0001:00065f70       ?MoveNear@Micro@UAlbertaBot@@QAEXPAVUnitInterface@BWAPI@@ABV?$Point@H$00@4@PBVGridDistances@2@@Z 10066f70 f   Micro.obj
 0001:00066010       ?MoveSafely@Micro@UAlbertaBot@@QAE_NPAVUnitInterface@BWAPI@@ABV?$Point@H$00@4@PBVGridDistances@2@@Z 10067010 f   Micro.obj
 0001:000662d0       ?RightClick@Micro@UAlbertaBot@@QAEXPAVUnitInterface@BWAPI@@0@Z 100672d0 f   Micro.obj
 0001:00066510       ?Repair@Micro@UAlbertaBot@@QAEXPAVUnitInterface@BWAPI@@0@Z 10067510 f   Micro.obj
 0001:00066720       ?ReturnCargo@Micro@UAlbertaBot@@QAEXPAVUnitInterface@BWAPI@@@Z 10067720 f   Micro.obj
 0001:000668b0       ?Make@Micro@UAlbertaBot@@QAE_NPAVUnitInterface@BWAPI@@VUnitType@4@@Z 100678b0 f   Micro.obj
 0001:000669e0       ?Cancel@Micro@UAlbertaBot@@QAE_NPAVUnitInterface@BWAPI@@@Z 100679e0 f   Micro.obj
 0001:00066b00       ?Burrow@Micro@UAlbertaBot@@QAE_NPAVUnitInterface@BWAPI@@@Z 10067b00 f   Micro.obj
 0001:00066c00       ?Unburrow@Micro@UAlbertaBot@@QAE_NPAVUnitInterface@BWAPI@@@Z 10067c00 f   Micro.obj
 0001:00066ce0       ?Load@Micro@UAlbertaBot@@QAE_NPAVUnitInterface@BWAPI@@0@Z 10067ce0 f   Micro.obj
 0001:00066de0       ?Siege@Micro@UAlbertaBot@@QAE_NPAVUnitInterface@BWAPI@@@Z 10067de0 f   Micro.obj
 0001:00066ec0       ?Unsiege@Micro@UAlbertaBot@@QAE_NPAVUnitInterface@BWAPI@@@Z 10067ec0 f   Micro.obj
 0001:00066fa0       ?Scan@Micro@UAlbertaBot@@QAE_NABV?$Point@H$00@BWAPI@@@Z 10067fa0 f   Micro.obj
 0001:00067140       ?Stim@Micro@UAlbertaBot@@QAE_NPAVUnitInterface@BWAPI@@@Z 10068140 f   Micro.obj
 0001:00067260       ?MergeArchon@Micro@UAlbertaBot@@QAE_NPAVUnitInterface@BWAPI@@0@Z 10068260 f   Micro.obj
 0001:000673e0       ?UseTech@Micro@UAlbertaBot@@QAE_NPAVUnitInterface@BWAPI@@VTechType@4@0@Z 100683e0 f   Micro.obj
 0001:00067510       ?KiteTarget@Micro@UAlbertaBot@@QAEXPAVUnitInterface@BWAPI@@0@Z 10068510 f   Micro.obj
 0001:00067750       ?MutaDanceTarget@Micro@UAlbertaBot@@QAEXPAVUnitInterface@BWAPI@@0@Z 10068750 f   Micro.obj
 0001:000678e0       ?setAttack@Micro@UAlbertaBot@@QAEXABVUnitset@BWAPI@@_N@Z 100688e0 f   Micro.obj
 0001:00067aa0       ??A?$map@PAVUnitInterface@BWAPI@@VMicroState@UAlbertaBot@@U?$less@PAVUnitInterface@BWAPI@@@std@@V?$allocator@U?$pair@QAVUnitInterface@BWAPI@@VMicroState@UAlbertaBot@@@std@@@6@@std@@QAEAAVMicroState@UAlbertaBot@@ABQAVUnitInterface@BWAPI@@@Z 10068aa0 f i Micro.obj
 0001:00067b10       ?_Buyheadnode@?$_Tree_comp_alloc@V?$_Tmap_traits@PAVUnitInterface@BWAPI@@VMicroState@UAlbertaBot@@U?$less@PAVUnitInterface@BWAPI@@@std@@V?$allocator@U?$pair@QAVUnitInterface@BWAPI@@VMicroState@UAlbertaBot@@@std@@@6@$0A@@std@@@std@@QAEPAU?$_Tree_node@U?$pair@QAVUnitInterface@BWAPI@@VMicroState@UAlbertaBot@@@std@@PAX@2@XZ 10068b10 f i Micro.obj
 0001:00067b30       ?_Target_type@?$_Func_impl_no_alloc@V<lambda_3cdec769ff18744395981dd48fcfc232>@@_NPAVUnitInterface@BWAPI@@@std@@EBEABVtype_info@@XZ 10068b30 f i Micro.obj
 0001:00067b40       ?_Move@?$_Func_impl_no_alloc@V<lambda_3cdec769ff18744395981dd48fcfc232>@@_NPAVUnitInterface@BWAPI@@@std@@EAEPAV?$_Func_base@_NPAVUnitInterface@BWAPI@@@2@PAX@Z 10068b40 f i Micro.obj
 0001:00067b40       ?_Copy@?$_Func_impl_no_alloc@V<lambda_3cdec769ff18744395981dd48fcfc232>@@_NPAVUnitInterface@BWAPI@@@std@@EBEPAV?$_Func_base@_NPAVUnitInterface@BWAPI@@@2@PAX@Z 10068b40 f i Micro.obj
 0001:00067b60       ??$_Buynode@ABUpiecewise_construct_t@std@@V?$tuple@ABQAVUnitInterface@BWAPI@@@2@V?$tuple@$$V@2@@?$_Tree_comp_alloc@V?$_Tmap_traits@PAVUnitInterface@BWAPI@@VMicroState@UAlbertaBot@@U?$less@PAVUnitInterface@BWAPI@@@std@@V?$allocator@U?$pair@QAVUnitInterface@BWAPI@@VMicroState@UAlbertaBot@@@std@@@6@$0A@@std@@@std@@QAEPAU?$_Tree_node@U?$pair@QAVUnitInterface@BWAPI@@VMicroState@UAlbertaBot@@@std@@PAX@1@ABUpiecewise_construct_t@1@$$QAV?$tuple@ABQAVUnitInterface@BWAPI@@@1@$$QAV?$tuple@$$V@1@@Z 10068b60 f i Micro.obj
 0001:00067b90       ??$_Insert_hint@AAU?$pair@QAVUnitInterface@BWAPI@@VMicroState@UAlbertaBot@@@std@@PAU?$_Tree_node@U?$pair@QAVUnitInterface@BWAPI@@VMicroState@UAlbertaBot@@@std@@PAX@2@@?$_Tree@V?$_Tmap_traits@PAVUnitInterface@BWAPI@@VMicroState@UAlbertaBot@@U?$less@PAVUnitInterface@BWAPI@@@std@@V?$allocator@U?$pair@QAVUnitInterface@BWAPI@@VMicroState@UAlbertaBot@@@std@@@6@$0A@@std@@@std@@IAE?AV?$_Tree_iterator@V?$_Tree_val@U?$_Tree_simple_types@U?$pair@QAVUnitInterface@BWAPI@@VMicroState@UAlbertaBot@@@std@@@std@@@std@@@1@V?$_Tree_const_iterator@V?$_Tree_val@U?$_Tree_simple_types@U?$pair@QAVUnitInterface@BWAPI@@VMicroState@UAlbertaBot@@@std@@@std@@@std@@@1@AAU?$pair@QAVUnitInterface@BWAPI@@VMicroState@UAlbertaBot@@@1@PAU?$_Tree_node@U?$pair@QAVUnitInterface@BWAPI@@VMicroState@UAlbertaBot@@@std@@PAX@1@@Z 10068b90 f i Micro.obj
 0001:00067e20       ?_Buynode0@?$_Tree_comp_alloc@V?$_Tmap_traits@PAVUnitInterface@BWAPI@@VMicroState@UAlbertaBot@@U?$less@PAVUnitInterface@BWAPI@@@std@@V?$allocator@U?$pair@QAVUnitInterface@BWAPI@@VMicroState@UAlbertaBot@@@std@@@6@$0A@@std@@@std@@QAEPAU?$_Tree_node@U?$pair@QAVUnitInterface@BWAPI@@VMicroState@UAlbertaBot@@@std@@PAX@2@XZ 10068e20 f i Micro.obj
 0001:00067e40       ?_Destroy_if_node@?$_Tree@V?$_Tmap_traits@PAVUnitInterface@BWAPI@@VMicroState@UAlbertaBot@@U?$less@PAVUnitInterface@BWAPI@@@std@@V?$allocator@U?$pair@QAVUnitInterface@BWAPI@@VMicroState@UAlbertaBot@@@std@@@6@$0A@@std@@@std@@IAEXPAU?$_Tree_node@U?$pair@QAVUnitInterface@BWAPI@@VMicroState@UAlbertaBot@@@std@@PAX@2@@Z 10068e40 f i Micro.obj
 0001:00067e60       ??$_Insert_at@AAU?$pair@QAVUnitInterface@BWAPI@@VMicroState@UAlbertaBot@@@std@@PAU?$_Tree_node@U?$pair@QAVUnitInterface@BWAPI@@VMicroState@UAlbertaBot@@@std@@PAX@2@@?$_Tree@V?$_Tmap_traits@PAVUnitInterface@BWAPI@@VMicroState@UAlbertaBot@@U?$less@PAVUnitInterface@BWAPI@@@std@@V?$allocator@U?$pair@QAVUnitInterface@BWAPI@@VMicroState@UAlbertaBot@@@std@@@6@$0A@@std@@@std@@IAE?AV?$_Tree_iterator@V?$_Tree_val@U?$_Tree_simple_types@U?$pair@QAVUnitInterface@BWAPI@@VMicroState@UAlbertaBot@@@std@@@std@@@std@@@1@_NPAU?$_Tree_node@U?$pair@QAVUnitInterface@BWAPI@@VMicroState@UAlbertaBot@@@std@@PAX@1@AAU?$pair@QAVUnitInterface@BWAPI@@VMicroState@UAlbertaBot@@@1@1@Z 10068e60 f i Micro.obj
 0001:00068090       ??$_Insert_nohint@AAU?$pair@QAVUnitInterface@BWAPI@@VMicroState@UAlbertaBot@@@std@@PAU?$_Tree_node@U?$pair@QAVUnitInterface@BWAPI@@VMicroState@UAlbertaBot@@@std@@PAX@2@@?$_Tree@V?$_Tmap_traits@PAVUnitInterface@BWAPI@@VMicroState@UAlbertaBot@@U?$less@PAVUnitInterface@BWAPI@@@std@@V?$allocator@U?$pair@QAVUnitInterface@BWAPI@@VMicroState@UAlbertaBot@@@std@@@6@$0A@@std@@@std@@IAE?AU?$pair@V?$_Tree_iterator@V?$_Tree_val@U?$_Tree_simple_types@U?$pair@QAVUnitInterface@BWAPI@@VMicroState@UAlbertaBot@@@std@@@std@@@std@@@std@@_N@1@_NAAU?$pair@QAVUnitInterface@BWAPI@@VMicroState@UAlbertaBot@@@1@PAU?$_Tree_node@U?$pair@QAVUnitInterface@BWAPI@@VMicroState@UAlbertaBot@@@std@@PAX@1@@Z 10069090 f i Micro.obj
 0001:00068200       ?update@MicroMedics@UAlbertaBot@@QAEXABVUnitCluster@2@PAVUnitInterface@BWAPI@@@Z 10069200 f   MicroMedics.obj
 0001:000684e0       ?executeMicro@MicroMelee@UAlbertaBot@@UAEXABVUnitset@BWAPI@@ABVUnitCluster@2@@Z 100694e0 f   MicroMelee.obj
 0001:00068560       ?assignTargets@MicroMelee@UAlbertaBot@@QAEXABVUnitset@BWAPI@@0@Z 10069560 f   MicroMelee.obj
 0001:000689c0       ?getTarget@MicroMelee@UAlbertaBot@@QAEPAVUnitInterface@BWAPI@@PAV34@ABVUnitset@4@_N@Z 100699c0 f   MicroMelee.obj
 0001:00068cd0       ?getAttackPriority@MicroMelee@UAlbertaBot@@QBEHPAVUnitInterface@BWAPI@@0@Z 10069cd0 f   MicroMelee.obj
 0001:00068ee0       ?nearestSpore@MicroOverlords@UAlbertaBot@@ABEPAVUnitInterface@BWAPI@@PAV34@@Z 10069ee0 f   MicroOverlords.obj
 0001:00068f90       ?assignOverlordsToSpores@MicroOverlords@UAlbertaBot@@AAEXABVUnitset@BWAPI@@@Z 10069f90 f   MicroOverlords.obj
 0001:00069030       ?assignOverlords@MicroOverlords@UAlbertaBot@@AAEXXZ 1006a030 f   MicroOverlords.obj
 0001:00069d30       ??_EMicroOverlords@UAlbertaBot@@UAEPAXI@Z 1006ad30 f i * CIL library *:* CIL module *
 0001:00069d30       ??_GMicroOverlords@UAlbertaBot@@UAEPAXI@Z 1006ad30 f i MicroOverlords.obj
 0001:00069da0       ??1MicroOverlords@UAlbertaBot@@UAE@XZ 1006ada0 f i MicroOverlords.obj
 0001:00069df0       ??1?$map@PAVUnitInterface@BWAPI@@V?$Point@H$0CA@@2@U?$less@PAVUnitInterface@BWAPI@@@std@@V?$allocator@U?$pair@QAVUnitInterface@BWAPI@@V?$Point@H$0CA@@2@@std@@@5@@std@@QAE@XZ 1006adf0 f i MicroOverlords.obj
 0001:00069e20       ?update@MicroOverlords@UAlbertaBot@@QAEXXZ 1006ae20 f   MicroOverlords.obj
 0001:0006a2b0       ?clear@?$_Tree@V?$_Tmap_traits@PAVUnitInterface@BWAPI@@V?$Point@H$0CA@@2@U?$less@PAVUnitInterface@BWAPI@@@std@@V?$allocator@U?$pair@QAVUnitInterface@BWAPI@@V?$Point@H$0CA@@2@@std@@@5@$0A@@std@@@std@@QAEXXZ 1006b2b0 f i MicroOverlords.obj
 0001:0006a340       ??A?$map@PAVUnitInterface@BWAPI@@V?$Point@H$0CA@@2@U?$less@PAVUnitInterface@BWAPI@@@std@@V?$allocator@U?$pair@QAVUnitInterface@BWAPI@@V?$Point@H$0CA@@2@@std@@@5@@std@@QAEAAV?$Point@H$0CA@@BWAPI@@ABQAVUnitInterface@3@@Z 1006b340 f i MicroOverlords.obj
 0001:0006a3b0       ??1?$_Tree_comp_alloc@V?$_Tmap_traits@PAVUnitInterface@BWAPI@@V?$Point@H$0CA@@2@U?$less@PAVUnitInterface@BWAPI@@@std@@V?$allocator@U?$pair@QAVUnitInterface@BWAPI@@V?$Point@H$0CA@@2@@std@@@5@$0A@@std@@@std@@QAE@XZ 1006b3b0 f i MicroOverlords.obj
 0001:0006a3c0       ?_Tidy@?$_Tree@V?$_Tmap_traits@PAVUnitInterface@BWAPI@@V?$Point@H$0CA@@2@U?$less@PAVUnitInterface@BWAPI@@@std@@V?$allocator@U?$pair@QAVUnitInterface@BWAPI@@V?$Point@H$0CA@@2@@std@@@5@$0A@@std@@@std@@IAEXXZ 1006b3c0 f i MicroOverlords.obj
 0001:0006a3e0       ?_Erase@?$_Tree@V?$_Tmap_traits@PAVUnitInterface@BWAPI@@V?$Point@H$0CA@@2@U?$less@PAVUnitInterface@BWAPI@@@std@@V?$allocator@U?$pair@QAVUnitInterface@BWAPI@@V?$Point@H$0CA@@2@@std@@@5@$0A@@std@@@std@@IAEXPAU?$_Tree_node@U?$pair@QAVUnitInterface@BWAPI@@V?$Point@H$0CA@@2@@std@@PAX@2@@Z 1006b3e0 f i MicroOverlords.obj
 0001:0006a420       ?erase@?$_Tree@V?$_Tmap_traits@PAVUnitInterface@BWAPI@@V?$Point@H$0CA@@2@U?$less@PAVUnitInterface@BWAPI@@@std@@V?$allocator@U?$pair@QAVUnitInterface@BWAPI@@V?$Point@H$0CA@@2@@std@@@5@$0A@@std@@@std@@QAE?AV?$_Tree_iterator@V?$_Tree_val@U?$_Tree_simple_types@U?$pair@QAVUnitInterface@BWAPI@@V?$Point@H$0CA@@2@@std@@@std@@@std@@@2@V?$_Tree_const_iterator@V?$_Tree_val@U?$_Tree_simple_types@U?$pair@QAVUnitInterface@BWAPI@@V?$Point@H$0CA@@2@@std@@@std@@@std@@@2@0@Z 1006b420 f i MicroOverlords.obj
 0001:0006a510       ??$_Insert_nohint@ABV?$Point@H$0CA@@BWAPI@@U_Not_a_node_tag@std@@@?$_Tree@V?$_Tset_traits@V?$Point@H$0CA@@BWAPI@@U?$less@V?$Point@H$0CA@@BWAPI@@@std@@V?$allocator@V?$Point@H$0CA@@BWAPI@@@4@$0A@@std@@@std@@IAE?AU?$pair@V?$_Tree_const_iterator@V?$_Tree_val@U?$_Tree_simple_types@V?$Point@H$0CA@@BWAPI@@@std@@@std@@@std@@_N@1@_NABV?$Point@H$0CA@@BWAPI@@U_Not_a_node_tag@1@@Z 1006b510 f i MicroOverlords.obj
 0001:0006a670       ??$_Insert_at@ABV?$Point@H$0CA@@BWAPI@@U_Not_a_node_tag@std@@@?$_Tree@V?$_Tset_traits@V?$Point@H$0CA@@BWAPI@@U?$less@V?$Point@H$0CA@@BWAPI@@@std@@V?$allocator@V?$Point@H$0CA@@BWAPI@@@4@$0A@@std@@@std@@IAE?AV?$_Tree_const_iterator@V?$_Tree_val@U?$_Tree_simple_types@V?$Point@H$0CA@@BWAPI@@@std@@@std@@@1@_NPAU?$_Tree_node@V?$Point@H$0CA@@BWAPI@@PAX@1@ABV?$Point@H$0CA@@BWAPI@@U_Not_a_node_tag@1@@Z 1006b670 f i MicroOverlords.obj
 0001:0006a8a0       ??$_Buynode@ABUpiecewise_construct_t@std@@V?$tuple@ABQAVUnitInterface@BWAPI@@@2@V?$tuple@$$V@2@@?$_Tree_comp_alloc@V?$_Tmap_traits@PAVUnitInterface@BWAPI@@V?$Point@H$0CA@@2@U?$less@PAVUnitInterface@BWAPI@@@std@@V?$allocator@U?$pair@QAVUnitInterface@BWAPI@@V?$Point@H$0CA@@2@@std@@@5@$0A@@std@@@std@@QAEPAU?$_Tree_node@U?$pair@QAVUnitInterface@BWAPI@@V?$Point@H$0CA@@2@@std@@PAX@1@ABUpiecewise_construct_t@1@$$QAV?$tuple@ABQAVUnitInterface@BWAPI@@@1@$$QAV?$tuple@$$V@1@@Z 1006b8a0 f i MicroOverlords.obj
 0001:0006a8d0       ??$_Insert_hint@AAU?$pair@QAVUnitInterface@BWAPI@@V?$Point@H$0CA@@2@@std@@PAU?$_Tree_node@U?$pair@QAVUnitInterface@BWAPI@@V?$Point@H$0CA@@2@@std@@PAX@2@@?$_Tree@V?$_Tmap_traits@PAVUnitInterface@BWAPI@@V?$Point@H$0CA@@2@U?$less@PAVUnitInterface@BWAPI@@@std@@V?$allocator@U?$pair@QAVUnitInterface@BWAPI@@V?$Point@H$0CA@@2@@std@@@5@$0A@@std@@@std@@IAE?AV?$_Tree_iterator@V?$_Tree_val@U?$_Tree_simple_types@U?$pair@QAVUnitInterface@BWAPI@@V?$Point@H$0CA@@2@@std@@@std@@@std@@@1@V?$_Tree_const_iterator@V?$_Tree_val@U?$_Tree_simple_types@U?$pair@QAVUnitInterface@BWAPI@@V?$Point@H$0CA@@2@@std@@@std@@@std@@@1@AAU?$pair@QAVUnitInterface@BWAPI@@V?$Point@H$0CA@@2@@1@PAU?$_Tree_node@U?$pair@QAVUnitInterface@BWAPI@@V?$Point@H$0CA@@2@@std@@PAX@1@@Z 1006b8d0 f i MicroOverlords.obj
 0001:0006ab60       ??$_Insert_at@AAU?$pair@QAVUnitInterface@BWAPI@@V?$Point@H$0CA@@2@@std@@PAU?$_Tree_node@U?$pair@QAVUnitInterface@BWAPI@@V?$Point@H$0CA@@2@@std@@PAX@2@@?$_Tree@V?$_Tmap_traits@PAVUnitInterface@BWAPI@@V?$Point@H$0CA@@2@U?$less@PAVUnitInterface@BWAPI@@@std@@V?$allocator@U?$pair@QAVUnitInterface@BWAPI@@V?$Point@H$0CA@@2@@std@@@5@$0A@@std@@@std@@IAE?AV?$_Tree_iterator@V?$_Tree_val@U?$_Tree_simple_types@U?$pair@QAVUnitInterface@BWAPI@@V?$Point@H$0CA@@2@@std@@@std@@@std@@@1@_NPAU?$_Tree_node@U?$pair@QAVUnitInterface@BWAPI@@V?$Point@H$0CA@@2@@std@@PAX@1@AAU?$pair@QAVUnitInterface@BWAPI@@V?$Point@H$0CA@@2@@1@1@Z 1006bb60 f i MicroOverlords.obj
 0001:0006ad90       ??$_Insert_nohint@AAU?$pair@QAVUnitInterface@BWAPI@@V?$Point@H$0CA@@2@@std@@PAU?$_Tree_node@U?$pair@QAVUnitInterface@BWAPI@@V?$Point@H$0CA@@2@@std@@PAX@2@@?$_Tree@V?$_Tmap_traits@PAVUnitInterface@BWAPI@@V?$Point@H$0CA@@2@U?$less@PAVUnitInterface@BWAPI@@@std@@V?$allocator@U?$pair@QAVUnitInterface@BWAPI@@V?$Point@H$0CA@@2@@std@@@5@$0A@@std@@@std@@IAE?AU?$pair@V?$_Tree_iterator@V?$_Tree_val@U?$_Tree_simple_types@U?$pair@QAVUnitInterface@BWAPI@@V?$Point@H$0CA@@2@@std@@@std@@@std@@@std@@_N@1@_NAAU?$pair@QAVUnitInterface@BWAPI@@V?$Point@H$0CA@@2@@1@PAU?$_Tree_node@U?$pair@QAVUnitInterface@BWAPI@@V?$Point@H$0CA@@2@@std@@PAX@1@@Z 1006bd90 f i MicroOverlords.obj
 0001:0006af00       ?maybeParasite@MicroQueens@UAlbertaBot@@AAE_NPAVUnitInterface@BWAPI@@H@Z 1006bf00 f   MicroQueens.obj
 0001:0006b490       ?ensnareScore@MicroQueens@UAlbertaBot@@ABEHPAVUnitInterface@BWAPI@@@Z 1006c490 f   MicroQueens.obj
 0001:0006b600       ?maybeEnsnare@MicroQueens@UAlbertaBot@@AAE_NPAVUnitInterface@BWAPI@@@Z 1006c600 f   MicroQueens.obj
 0001:0006bb70       ?broodlingScore@MicroQueens@UAlbertaBot@@ABEHPAVUnitInterface@BWAPI@@0@Z 1006cb70 f   MicroQueens.obj
 0001:0006be80       ?maybeBroodling@MicroQueens@UAlbertaBot@@AAE_NPAVUnitInterface@BWAPI@@@Z 1006ce80 f   MicroQueens.obj
 0001:0006c460       ?getQueenDestination@MicroQueens@UAlbertaBot@@ABE?AV?$Point@H$00@BWAPI@@PAVUnitInterface@4@ABV34@@Z 1006d460 f   MicroQueens.obj
 0001:0006c9e0       ?updateMovement@MicroQueens@UAlbertaBot@@AAEXPAVUnitInterface@BWAPI@@@Z 1006d9e0 f   MicroQueens.obj
 0001:0006cf90       ?updateAction@MicroQueens@UAlbertaBot@@AAEX_N@Z 1006df90 f   MicroQueens.obj
 0001:0006d320       ?_Target_type@?$_Func_impl_no_alloc@V<lambda_78f85996966d427a337d8e82ed1b3dbd>@@_NPAVUnitInterface@BWAPI@@@std@@EBEABVtype_info@@XZ 1006e320 f i MicroQueens.obj
 0001:0006d330       ?_Copy@?$_Func_impl_no_alloc@V<lambda_78f85996966d427a337d8e82ed1b3dbd>@@_NPAVUnitInterface@BWAPI@@@std@@EBEPAV?$_Func_base@_NPAVUnitInterface@BWAPI@@@2@PAX@Z 1006e330 f i MicroQueens.obj
 0001:0006d330       ?_Move@?$_Func_impl_no_alloc@V<lambda_78f85996966d427a337d8e82ed1b3dbd>@@_NPAVUnitInterface@BWAPI@@@std@@EAEPAV?$_Func_base@_NPAVUnitInterface@BWAPI@@@2@PAX@Z 1006e330 f i MicroQueens.obj
 0001:0006d350       ?_Do_call@?$_Func_impl_no_alloc@V<lambda_78f85996966d427a337d8e82ed1b3dbd>@@_NPAVUnitInterface@BWAPI@@@std@@EAE_N$$QAPAVUnitInterface@BWAPI@@@Z 1006e350 f i MicroQueens.obj
 0001:0006d390       ?executeMicro@MicroRanged@UAlbertaBot@@UAEXABVUnitset@BWAPI@@ABVUnitCluster@2@@Z 1006e390 f   MicroRanged.obj
 0001:0006d410       ?assignTargets@MicroRanged@UAlbertaBot@@QAEXABVUnitset@BWAPI@@0@Z 1006e410 f   MicroRanged.obj
 0001:0006d8e0       ?getTarget@MicroRanged@UAlbertaBot@@QAEPAVUnitInterface@BWAPI@@PAV34@ABVUnitset@4@_N@Z 1006e8e0 f   MicroRanged.obj
 0001:0006dd70       ?getAttackPriority@MicroRanged@UAlbertaBot@@QAEHPAVUnitInterface@BWAPI@@0@Z 1006ed70 f   MicroRanged.obj
 0001:0006e200       ?executeMicro@MicroScourge@UAlbertaBot@@UAEXABVUnitset@BWAPI@@ABVUnitCluster@2@@Z 1006f200 f   MicroScourge.obj
 0001:0006e280       ?assignTargets@MicroScourge@UAlbertaBot@@QAEXABVUnitset@BWAPI@@0@Z 1006f280 f   MicroScourge.obj
 0001:0006e690       ?getAttackPriority@MicroScourge@UAlbertaBot@@SAHVUnitType@BWAPI@@@Z 1006f690 f   MicroScourge.obj
 0001:0006e770       ?allMeleeAndSameHeight@MicroTanks@UAlbertaBot@@ABE_NABVUnitset@BWAPI@@PAVUnitInterface@4@@Z 1006f770 f   MicroTanks.obj
 0001:0006e810       ?executeMicro@MicroTanks@UAlbertaBot@@UAEXABVUnitset@BWAPI@@ABVUnitCluster@2@@Z 1006f810 f   MicroTanks.obj
 0001:0006edb0       ?getAttackPriority@MicroTanks@UAlbertaBot@@QAEHPAVUnitInterface@BWAPI@@0@Z 1006fdb0 f   MicroTanks.obj
 0001:0006f000       ??0MicroTransports@UAlbertaBot@@QAE@XZ 10070000 f   MicroTransports.obj
 0001:0006f060       ??_EMicroTransports@UAlbertaBot@@UAEPAXI@Z 10070060 f i * CIL library *:* CIL module *
 0001:0006f060       ??_GMicroTransports@UAlbertaBot@@UAEPAXI@Z 10070060 f i MicroTransports.obj
 0001:0006f0b0       ??1MicroTransports@UAlbertaBot@@UAE@XZ 100700b0 f i MicroTransports.obj
 0001:0006f0f0       ?calculateWaypoints@MicroTransports@UAlbertaBot@@AAEXXZ 100700f0 f   MicroTransports.obj
 0001:0006f2a0       ?drawTransportInformation@MicroTransports@UAlbertaBot@@AAEXXZ 100702a0 f   MicroTransports.obj
 0001:0006f4b0       ?maybeUnloadTroops@MicroTransports@UAlbertaBot@@AAEXXZ 100704b0 f   MicroTransports.obj
 0001:0006f670       ?followPerimeter@MicroTransports@UAlbertaBot@@AAEXXZ 10070670 f   MicroTransports.obj
 0001:0006fa10       ??$_Emplace_reallocate@ABV?$Point@H$00@BWAPI@@@?$vector@V?$Point@H$00@BWAPI@@V?$allocator@V?$Point@H$00@BWAPI@@@std@@@std@@QAEPAV?$Point@H$00@BWAPI@@QAV23@ABV23@@Z 10070a10 f i OpsBoss.obj
 0001:0006fa10       ??$_Emplace_reallocate@V?$Point@H$00@BWAPI@@@?$vector@V?$Point@H$00@BWAPI@@V?$allocator@V?$Point@H$00@BWAPI@@@std@@@std@@QAEPAV?$Point@H$00@BWAPI@@QAV23@$$QAV23@@Z 10070a10 f i MicroTransports.obj
 0001:0006fbb0       ??0invalid_argument@std@@QAE@PBD@Z 10070bb0 f i NEATCommander.obj
 0001:0006fbf0       ??0overflow_error@std@@QAE@PBD@Z 10070bf0 f i NEATCommander.obj
 0001:0006fc40       ?Instance@NEATCommander@UAlbertaBot@@SAAAV12@XZ 10070c40 f   NEATCommander.obj
 0001:0006fe40       ?sendFitnessToTrainServer@NEATCommander@UAlbertaBot@@QAEXXZ 10070e40 f   NEATCommander.obj
 0001:000702a0       ??1DBConnector@@QAE@XZ     100712a0 f i NEATCommander.obj
 0001:000702c0       ?evaluate@NEATCommander@UAlbertaBot@@AAEXXZ 100712c0 f   NEATCommander.obj
 0001:00070b50       ?InitializeNetwork@NEATCommander@UAlbertaBot@@AAEXXZ 10071b50 f   NEATCommander.obj
 0001:000711a0       ?getVisibleMap@NEATCommander@UAlbertaBot@@AAEXH@Z 100721a0 f   NEATCommander.obj
 0001:000714b0       ??0overflow_error@std@@QAE@ABV01@@Z 100724b0 f i NEATCommander.obj
 0001:000714f0       ?ToBWAPIUnit@NEATCommander@UAlbertaBot@@AAE?AVUnitType@BWAPI@@W4NetworkUnits@2@@Z 100724f0 f   NEATCommander.obj
 0001:00071bc0       ??0invalid_argument@std@@QAE@ABV01@@Z 10072bc0 f i NEATCommander.obj
 0001:00071c00       ??0logic_error@std@@QAE@ABV01@@Z 10072c00 f i NEATCommander.obj
 0001:00071c40       ?ToBWAPIUpgrade@NEATCommander@UAlbertaBot@@AAE?AVUpgradeType@BWAPI@@W4NetworkUpgrade@2@@Z 10072c40 f   NEATCommander.obj
 0001:00072030       ?getTileType@NEATCommander@UAlbertaBot@@AAE?AW4NEAT_TileType@2@VUnitType@BWAPI@@@Z 10073030 f   NEATCommander.obj
 0001:000725b0       ??D?$iter_impl@V?$basic_json@Vmap@std@@Vvector@2@V?$basic_string@DU?$char_traits@D@std@@V?$allocator@D@2@@2@_N_J_KNVallocator@2@Uadl_serializer@json_abi_v3_11_3@nlohmann@@V?$vector@EV?$allocator@E@std@@@2@X@json_abi_v3_11_3@nlohmann@@@detail@json_abi_v3_11_3@nlohmann@@QBEAAV?$basic_json@Vmap@std@@Vvector@2@V?$basic_string@DU?$char_traits@D@std@@V?$allocator@D@2@@2@_N_J_KNVallocator@2@Uadl_serializer@json_abi_v3_11_3@nlohmann@@V?$vector@EV?$allocator@E@std@@@2@X@23@XZ 100735b0 f i NEATCommander.obj
 0001:00072690       ??$Activate@N@FeedForwardNetwork@@QAEXAAV?$vector@NV?$allocator@N@std@@@std@@@Z 10073690 f i NEATCommander.obj
 0001:00072900       ??$_Emplace_reallocate@V?$array@H$01@std@@@?$vector@V?$array@H$01@std@@V?$allocator@V?$array@H$01@std@@@2@@std@@QAEPAV?$array@H$01@1@QAV21@$$QAV21@@Z 10073900 f i NEATCommander.obj
 0001:00072a80       ??$_Emplace_reallocate@N@?$vector@NV?$allocator@N@std@@@std@@QAEPANQAN$$QAN@Z 10073a80 f i NEATCommander.obj
 0001:00072a80       ??$_Emplace_reallocate@ABN@?$vector@NV?$allocator@N@std@@@std@@QAEPANQANABN@Z 10073a80 f i NEATCommander.obj
 0001:00072bc0       ??$_Emplace_reallocate@V?$basic_string@DU?$char_traits@D@std@@V?$allocator@D@2@@std@@@?$vector@V?$basic_string@DU?$char_traits@D@std@@V?$allocator@D@2@@std@@V?$allocator@V?$basic_string@DU?$char_traits@D@std@@V?$allocator@D@2@@std@@@2@@std@@QAEPAV?$basic_string@DU?$char_traits@D@std@@V?$allocator@D@2@@1@QAV21@$$QAV21@@Z 10073bc0 f i NEATCommander.obj
 0001:00072d30       ??A?$unordered_map@HNU?$hash@H@std@@U?$equal_to@H@2@V?$allocator@U?$pair@$$CBHN@std@@@2@@std@@QAEAANABH@Z 10073d30 f i NEATCommander.obj
 0001:00072e10       ??$_Insert@AAU?$pair@$$CBHN@std@@V?$_List_unchecked_iterator@V?$_List_val@U?$_List_simple_types@U?$pair@$$CBHN@std@@@std@@@std@@@2@@?$_Hash@V?$_Umap_traits@HNV?$_Uhash_compare@HU?$hash@H@std@@U?$equal_to@H@2@@std@@V?$allocator@U?$pair@$$CBHN@std@@@2@$0A@@std@@@std@@IAE?AU?$pair@V?$_List_iterator@V?$_List_val@U?$_List_simple_types@U?$pair@$$CBHN@std@@@std@@@std@@@std@@_N@1@AAU?$pair@$$CBHN@1@V?$_List_unchecked_iterator@V?$_List_val@U?$_List_simple_types@U?$pair@$$CBHN@std@@@std@@@std@@@1@@Z 10073e10 f i NEATCommander.obj
 0001:00073020       ??$_Buynode@ABUpiecewise_construct_t@std@@V?$tuple@ABH@2@V?$tuple@$$V@2@@?$_List_buy@U?$pair@$$CBHN@std@@V?$allocator@U?$pair@$$CBHN@std@@@2@@std@@QAEPAU?$_List_node@U?$pair@$$CBHN@std@@PAX@1@PAU21@0ABUpiecewise_construct_t@1@$$QAV?$tuple@ABH@1@$$QAV?$tuple@$$V@1@@Z 10074020 f i NEATCommander.obj
 0001:00073050       ??$erase@V?$_List_iterator@V?$_List_val@U?$_List_simple_types@U?$pair@$$CBHN@std@@@std@@@std@@@std@@X@?$_Hash@V?$_Umap_traits@HNV?$_Uhash_compare@HU?$hash@H@std@@U?$equal_to@H@2@@std@@V?$allocator@U?$pair@$$CBHN@std@@@2@$0A@@std@@@std@@QAE?AV?$_List_iterator@V?$_List_val@U?$_List_simple_types@U?$pair@$$CBHN@std@@@std@@@std@@@1@V21@@Z 10074050 f i NEATCommander.obj
 0001:00073100       ?_Buynode0@?$_List_alloc@U?$_List_base_types@U?$pair@$$CBHN@std@@V?$allocator@U?$pair@$$CBHN@std@@@2@@std@@@std@@QAEPAU?$_List_node@U?$pair@$$CBHN@std@@PAX@2@PAU32@0@Z 10074100 f i NEATCommander.obj
 0001:00073130       ??$concat@V?$basic_string@DU?$char_traits@D@std@@V?$allocator@D@2@@std@@AAY0BN@$$CBDPBD@detail@json_abi_v3_11_3@nlohmann@@YA?AV?$basic_string@DU?$char_traits@D@std@@V?$allocator@D@2@@std@@AAY0BN@$$CBD$$QAPBD@Z 10074130 f i NEATCommander.obj
 0001:000731e0       ??0NodeEval@@QAE@HABV?$basic_string@DU?$char_traits@D@std@@V?$allocator@D@2@@std@@0NN@Z 100741e0 f   NodeEval.obj
 0001:00073550       ??0FeedForwardNetwork@@QAE@AAV?$basic_json@Vmap@std@@Vvector@2@V?$basic_string@DU?$char_traits@D@std@@V?$allocator@D@2@@2@_N_J_KNVallocator@2@Uadl_serializer@json_abi_v3_11_3@nlohmann@@V?$vector@EV?$allocator@E@std@@@2@X@json_abi_v3_11_3@nlohmann@@0@Z 10074550 f   NodeEval.obj
 0001:00073900       ??1?$unordered_map@HNU?$hash@H@std@@U?$equal_to@H@2@V?$allocator@U?$pair@$$CBHN@std@@@2@@std@@QAE@XZ 10074900 f i NodeEval.obj
 0001:00073910       ??1?$_Hash@V?$_Umap_traits@HNV?$_Uhash_compare@HU?$hash@H@std@@U?$equal_to@H@2@@std@@V?$allocator@U?$pair@$$CBHN@std@@@2@$0A@@std@@@std@@QAE@XZ 10074910 f i NodeEval.obj
 0001:000739b0       ?AddNodeEval@FeedForwardNetwork@@QAEXABV?$basic_json@Vmap@std@@Vvector@2@V?$basic_string@DU?$char_traits@D@std@@V?$allocator@D@2@@2@_N_J_KNVallocator@2@Uadl_serializer@json_abi_v3_11_3@nlohmann@@V?$vector@EV?$allocator@E@std@@@2@X@json_abi_v3_11_3@nlohmann@@@Z 100749b0 f   NodeEval.obj
 0001:000741f0       ??1NodeEval@@QAE@XZ        100751f0 f i NodeEval.obj
 0001:000742d0       ?sum_aggregation@@YANABV?$vector@NV?$allocator@N@std@@@std@@@Z 100752d0 f   NodeEval.obj
 0001:00074320       ?max_aggregation@@YANABV?$vector@NV?$allocator@N@std@@@std@@@Z 10075320 f   NodeEval.obj
 0001:00074360       ?min_aggregation@@YANABV?$vector@NV?$allocator@N@std@@@std@@@Z 10075360 f   NodeEval.obj
 0001:000743a0       ?maxabs_aggregation@@YANABV?$vector@NV?$allocator@N@std@@@std@@@Z 100753a0 f   NodeEval.obj
 0001:000743c0       ?median_aggregation@@YANV?$vector@NV?$allocator@N@std@@@std@@@Z 100753c0 f   NodeEval.obj
 0001:00074460       ?mean_aggregation@@YANABV?$vector@NV?$allocator@N@std@@@std@@@Z 10075460 f   NodeEval.obj
 0001:000744d0       ?abs_activation@@YANN@Z    100754d0 f   NodeEval.obj
 0001:000744f0       ?clamped_activation@@YANN@Z 100754f0 f   NodeEval.obj
 0001:00074530       ?cube_activation@@YANN@Z   10075530 f   NodeEval.obj
 0001:00074540       ?exp_activation@@YANN@Z    10075540 f   NodeEval.obj
 0001:00074590       ?gauss_activation@@YANN@Z  10075590 f   NodeEval.obj
 0001:000745f0       ?hat_activation@@YANN@Z    100755f0 f   NodeEval.obj
 0001:00074630       ?identity_activation@@YANN@Z 10075630 f   NodeEval.obj
 0001:00074640       ?inv_activation@@YANN@Z    10075640 f   NodeEval.obj
 0001:00074650       ?log_activation@@YANN@Z    10075650 f   NodeEval.obj
 0001:00074670       ?relu_activation@@YANN@Z   10075670 f   NodeEval.obj
 0001:00074690       ?sigmoid_activation@@YANN@Z 10075690 f   NodeEval.obj
 0001:00074700       ?sin_activation@@YANN@Z    10075700 f   NodeEval.obj
 0001:00074750       ?softplus_activation@@YANN@Z 10075750 f   NodeEval.obj
 0001:000747c0       ?square_activation@@YANN@Z 100757c0 f   NodeEval.obj
 0001:000747d0       ?tanh_activation@@YANN@Z   100757d0 f   NodeEval.obj
 0001:00074830       ?getActivationFunction@NodeEval@@CA?AV?$function@$$A6ANN@Z@std@@PBD@Z 10075830 f   NodeEval.obj
 0001:00074d00       ??1?$list@U?$pair@$$CBHN@std@@V?$allocator@U?$pair@$$CBHN@std@@@2@@std@@QAE@XZ 10075d00 f i NodeEval.obj
 0001:00074d50       ??1?$vector@VNodeEval@@V?$allocator@VNodeEval@@@std@@@std@@QAE@XZ 10075d50 f i NodeEval.obj
 0001:00074de0       ?_Destroy@?$vector@VNodeEval@@V?$allocator@VNodeEval@@@std@@@std@@AAEXPAVNodeEval@@0@Z 10075de0 f i NodeEval.obj
 0001:00074e10       ?deallocate@?$allocator@VNodeEval@@@std@@QAEXQAVNodeEval@@I@Z 10075e10 f i NodeEval.obj
 0001:00074e60       ??$?A$$CBD@?$basic_json@Vmap@std@@Vvector@2@V?$basic_string@DU?$char_traits@D@std@@V?$allocator@D@2@@2@_N_J_KNVallocator@2@Uadl_serializer@json_abi_v3_11_3@nlohmann@@V?$vector@EV?$allocator@E@std@@@2@X@json_abi_v3_11_3@nlohmann@@QBEABV012@PBD@Z 10075e60 f i NodeEval.obj
 0001:00074fb0       ??$?BV?$basic_string@DU?$char_traits@D@std@@V?$allocator@D@2@@std@@$0A@@?$basic_json@Vmap@std@@Vvector@2@V?$basic_string@DU?$char_traits@D@std@@V?$allocator@D@2@@2@_N_J_KNVallocator@2@Uadl_serializer@json_abi_v3_11_3@nlohmann@@V?$vector@EV?$allocator@E@std@@@2@X@json_abi_v3_11_3@nlohmann@@QBE?AV?$basic_string@DU?$char_traits@D@std@@V?$allocator@D@2@@std@@XZ 10075fb0 f i NodeEval.obj
 0001:00075090       ??$_Emplace_reallocate@ABVNodeEval@@@?$vector@VNodeEval@@V?$allocator@VNodeEval@@@std@@@std@@QAEPAVNodeEval@@QAV2@ABV2@@Z 10076090 f i NodeEval.obj
 0001:00075350       ??$_Emplace_reallocate@UConnection@@@?$vector@UConnection@@V?$allocator@UConnection@@@std@@@std@@QAEPAUConnection@@QAU2@$$QAU2@@Z 10076350 f i NodeEval.obj
 0001:000754d0       ??0NodeEval@@QAE@ABV0@@Z   100764d0 f i NodeEval.obj
 0001:00075590       ??0?$vector@UConnection@@V?$allocator@UConnection@@@std@@@std@@QAE@ABV01@@Z 10076590 f i NodeEval.obj
 0001:000756a0       ?_Target_type@?$_Func_impl_no_alloc@P6ANV?$vector@NV?$allocator@N@std@@@std@@@ZNABV12@@std@@EBEABVtype_info@@XZ 100766a0 f i NodeEval.obj
 0001:000756b0       ?_Copy@?$_Func_impl_no_alloc@P6ANV?$vector@NV?$allocator@N@std@@@std@@@ZNABV12@@std@@EBEPAV?$_Func_base@NABV?$vector@NV?$allocator@N@std@@@std@@@2@PAX@Z 100766b0 f i NodeEval.obj
 0001:000756b0       ?_Move@?$_Func_impl_no_alloc@P6ANV?$vector@NV?$allocator@N@std@@@std@@@ZNABV12@@std@@EAEPAV?$_Func_base@NABV?$vector@NV?$allocator@N@std@@@std@@@2@PAX@Z 100766b0 f i NodeEval.obj
 0001:000756d0       ?_Target_type@?$_Func_impl_no_alloc@P6ANABV?$vector@NV?$allocator@N@std@@@std@@@ZNABV12@@std@@EBEABVtype_info@@XZ 100766d0 f i NodeEval.obj
 0001:000756e0       ?_Move@?$_Func_impl_no_alloc@P6ANABV?$vector@NV?$allocator@N@std@@@std@@@ZNABV12@@std@@EAEPAV?$_Func_base@NABV?$vector@NV?$allocator@N@std@@@std@@@2@PAX@Z 100766e0 f i NodeEval.obj
 0001:000756e0       ?_Copy@?$_Func_impl_no_alloc@P6ANABV?$vector@NV?$allocator@N@std@@@std@@@ZNABV12@@std@@EBEPAV?$_Func_base@NABV?$vector@NV?$allocator@N@std@@@std@@@2@PAX@Z 100766e0 f i NodeEval.obj
 0001:00075700       ?_Target_type@?$_Func_impl_no_alloc@P6ANN@ZNN@std@@EBEABVtype_info@@XZ 10076700 f i NodeEval.obj
 0001:00075710       ?_Move@?$_Func_impl_no_alloc@P6ANN@ZNN@std@@EAEPAV?$_Func_base@NN@2@PAX@Z 10076710 f i NodeEval.obj
 0001:00075710       ?_Copy@?$_Func_impl_no_alloc@P6ANN@ZNN@std@@EBEPAV?$_Func_base@NN@2@PAX@Z 10076710 f i NodeEval.obj
 0001:00075730       ??$_Sort_unchecked@PANU?$less@X@std@@@std@@YAXPAN0HU?$less@X@0@@Z 10076730 f i NodeEval.obj
 0001:00075980       ?_Do_call@?$_Func_impl_no_alloc@P6ANN@ZNN@std@@EAEN$$QAN@Z 10076980 f i NodeEval.obj
 0001:000759b0       ?_Do_call@?$_Func_impl_no_alloc@P6ANABV?$vector@NV?$allocator@N@std@@@std@@@ZNABV12@@std@@EAENABV?$vector@NV?$allocator@N@std@@@2@@Z 100769b0 f i NodeEval.obj
 0001:000759d0       ?_Do_call@?$_Func_impl_no_alloc@P6ANV?$vector@NV?$allocator@N@std@@@std@@@ZNABV12@@std@@EAENABV?$vector@NV?$allocator@N@std@@@2@@Z 100769d0 f i NodeEval.obj
 0001:00075a00       ??1?$_Uninitialized_backout_al@PAVNodeEval@@V?$allocator@VNodeEval@@@std@@@std@@QAE@XZ 10076a00 f i NodeEval.obj
 0001:00075a30       ??$_Partition_by_median_guess_unchecked@PANU?$less@X@std@@@std@@YA?AU?$pair@PANPAN@0@PAN0U?$less@X@0@@Z 10076a30 f i NodeEval.obj
 0001:00075d50       ??$_Pop_heap_hole_by_index@PANNU?$less@X@std@@@std@@YAXPANHH$$QANU?$less@X@0@@Z 10076d50 f i NodeEval.obj
 0001:00075e00       ??0?$vector@NV?$allocator@N@std@@@std@@QAE@ABV01@@Z 10076e00 f i NodeEval.obj
 0001:00075ed0       ??_D?$basic_ifstream@DU?$char_traits@D@std@@@std@@QAEXXZ 10076ed0 f i OpeningTiming.obj
 0001:00075f80       ??0?$basic_ifstream@DU?$char_traits@D@std@@@std@@QAE@XZ 10076f80 f i OpeningTiming.obj
 0001:00076060       ??_G?$basic_ifstream@DU?$char_traits@D@std@@@std@@UAEPAXI@Z 10077060 f i OpeningTiming.obj
 0001:00076060       ??_E?$basic_ifstream@DU?$char_traits@D@std@@@std@@UAEPAXI@Z 10077060 f i * CIL library *:* CIL module *
 0001:00076090       ??$?HDU?$char_traits@D@std@@V?$allocator@D@1@@std@@YA?AV?$basic_string@DU?$char_traits@D@std@@V?$allocator@D@2@@0@ABV10@0@Z 10077090 f i OpeningTiming.obj
 0001:00076118       ??_E?$basic_ifstream@DU?$char_traits@D@std@@@std@@$4PPPPPPPM@A@AEPAXI@Z 10077118 f i OpeningTiming.obj
 0001:00076120       ??0OpeningTimingRecord@UAlbertaBot@@QAE@XZ 10077120 f   OpeningTimingRecord.obj
 0001:00076270       ?predictEnemyPlan@OpponentModel@UAlbertaBot@@ABE?AW4OpeningPlan@2@XZ 10077270 f   OpponentModel.obj
 0001:00076450       ?considerOpenings@OpponentModel@UAlbertaBot@@AAEXXZ 10077450 f   OpponentModel.obj
 0001:00076ae0       ?singleStrategyEnemyOpenings@OpponentModel@UAlbertaBot@@AAEXXZ 10077ae0 f   OpponentModel.obj
 0001:00076d40       ?multipleStrategyEnemyOpenings@OpponentModel@UAlbertaBot@@AAEXXZ 10077d40 f   OpponentModel.obj
 0001:00077110       ?getExploreOpening@OpponentModel@UAlbertaBot@@AAE?AV?$basic_string@DU?$char_traits@D@std@@V?$allocator@D@2@@std@@ABUOpponentSummary@12@@Z 10078110 f   OpponentModel.obj
 0001:00077220       ?getOpeningForEnemyPlan@OpponentModel@UAlbertaBot@@AAE?AV?$basic_string@DU?$char_traits@D@std@@V?$allocator@D@2@@std@@W4OpeningPlan@2@@Z 10078220 f   OpponentModel.obj
 0001:00077330       ??0OpponentModel@UAlbertaBot@@QAE@XZ 10078330 f   OpponentModel.obj
 0001:00077620       ??1GameRecordNow@UAlbertaBot@@QAE@XZ 10078620 f i OpponentModel.obj
 0001:000776d0       ??1OpponentSummary@OpponentModel@UAlbertaBot@@QAE@XZ 100786d0 f i OpponentModel.obj
 0001:00077740       ?read@OpponentModel@UAlbertaBot@@QAEXXZ 10078740 f   OpponentModel.obj
 0001:00077d80       ?write@OpponentModel@UAlbertaBot@@QAEXXZ 10078d80 f   OpponentModel.obj
 0001:00077f80       ?getDarnLikelyEnemyPlan@OpponentModel@UAlbertaBot@@QBE?AW4OpeningPlan@2@XZ 10078f80 f   OpponentModel.obj
 0001:00077fe0       ?Instance@OpponentModel@UAlbertaBot@@SAAAV12@XZ 10078fe0 f   OpponentModel.obj
 0001:00078070       ??1?$vector@U?$pair@V?$basic_string@DU?$char_traits@D@std@@V?$allocator@D@2@@std@@N@std@@V?$allocator@U?$pair@V?$basic_string@DU?$char_traits@D@std@@V?$allocator@D@2@@std@@N@std@@@2@@std@@QAE@XZ 10079070 f i OpponentModel.obj
 0001:000780d0       ?_Buyheadnode@?$_Tree_comp_alloc@V?$_Tmap_traits@V?$basic_string@DU?$char_traits@D@std@@V?$allocator@D@2@@std@@UOpeningInfoType@OpponentModel@UAlbertaBot@@U?$less@V?$basic_string@DU?$char_traits@D@std@@V?$allocator@D@2@@std@@@2@V?$allocator@U?$pair@$$CBV?$basic_string@DU?$char_traits@D@std@@V?$allocator@D@2@@std@@UOpeningInfoType@OpponentModel@UAlbertaBot@@@std@@@2@$0A@@std@@@std@@QAEPAU?$_Tree_node@U?$pair@$$CBV?$basic_string@DU?$char_traits@D@std@@V?$allocator@D@2@@std@@UOpeningInfoType@OpponentModel@UAlbertaBot@@@std@@PAX@2@XZ 100790d0 f i OpponentModel.obj
 0001:000780f0       ?_Erase@?$_Tree@V?$_Tmap_traits@V?$basic_string@DU?$char_traits@D@std@@V?$allocator@D@2@@std@@UOpeningInfoType@OpponentModel@UAlbertaBot@@U?$less@V?$basic_string@DU?$char_traits@D@std@@V?$allocator@D@2@@std@@@2@V?$allocator@U?$pair@$$CBV?$basic_string@DU?$char_traits@D@std@@V?$allocator@D@2@@std@@UOpeningInfoType@OpponentModel@UAlbertaBot@@@std@@@2@$0A@@std@@@std@@IAEXPAU?$_Tree_node@U?$pair@$$CBV?$basic_string@DU?$char_traits@D@std@@V?$allocator@D@2@@std@@UOpeningInfoType@OpponentModel@UAlbertaBot@@@std@@PAX@2@@Z 100790f0 f i OpponentModel.obj
 0001:00078180       ??$_Emplace_reallocate@U?$pair@V?$basic_string@DU?$char_traits@D@std@@V?$allocator@D@2@@std@@N@std@@@?$vector@U?$pair@V?$basic_string@DU?$char_traits@D@std@@V?$allocator@D@2@@std@@N@std@@V?$allocator@U?$pair@V?$basic_string@DU?$char_traits@D@std@@V?$allocator@D@2@@std@@N@std@@@2@@std@@QAEPAU?$pair@V?$basic_string@DU?$char_traits@D@std@@V?$allocator@D@2@@std@@N@1@QAU21@$$QAU21@@Z 10079180 f i OpponentModel.obj
 0001:00078310       ??$_Destroy_range@V?$allocator@U?$pair@V?$basic_string@DU?$char_traits@D@std@@V?$allocator@D@2@@std@@N@std@@@std@@@std@@YAXPAU?$pair@V?$basic_string@DU?$char_traits@D@std@@V?$allocator@D@2@@std@@N@0@0AAV?$allocator@U?$pair@V?$basic_string@DU?$char_traits@D@std@@V?$allocator@D@2@@std@@N@std@@@0@@Z 10079310 f i OpponentModel.obj
 0001:00078380       ??$_Uninitialized_move@PAU?$pair@V?$basic_string@DU?$char_traits@D@std@@V?$allocator@D@2@@std@@N@std@@PAU12@V?$allocator@U?$pair@V?$basic_string@DU?$char_traits@D@std@@V?$allocator@D@2@@std@@N@std@@@2@@std@@YAPAU?$pair@V?$basic_string@DU?$char_traits@D@std@@V?$allocator@D@2@@std@@N@0@QAU10@0PAU10@AAV?$allocator@U?$pair@V?$basic_string@DU?$char_traits@D@std@@V?$allocator@D@2@@std@@N@std@@@0@@Z 10079380 f i OpponentModel.obj
 0001:00078400       ??$_Buynode@ABUpiecewise_construct_t@std@@V?$tuple@ABV?$basic_string@DU?$char_traits@D@std@@V?$allocator@D@2@@std@@@2@V?$tuple@$$V@2@@?$_Tree_comp_alloc@V?$_Tmap_traits@V?$basic_string@DU?$char_traits@D@std@@V?$allocator@D@2@@std@@UOpeningInfoType@OpponentModel@UAlbertaBot@@U?$less@V?$basic_string@DU?$char_traits@D@std@@V?$allocator@D@2@@std@@@2@V?$allocator@U?$pair@$$CBV?$basic_string@DU?$char_traits@D@std@@V?$allocator@D@2@@std@@UOpeningInfoType@OpponentModel@UAlbertaBot@@@std@@@2@$0A@@std@@@std@@QAEPAU?$_Tree_node@U?$pair@$$CBV?$basic_string@DU?$char_traits@D@std@@V?$allocator@D@2@@std@@UOpeningInfoType@OpponentModel@UAlbertaBot@@@std@@PAX@1@ABUpiecewise_construct_t@1@$$QAV?$tuple@ABV?$basic_string@DU?$char_traits@D@std@@V?$allocator@D@2@@std@@@1@$$QAV?$tuple@$$V@1@@Z 10079400 f i OpponentModel.obj
 0001:000784a0       ??$_Insert_hint@AAU?$pair@$$CBV?$basic_string@DU?$char_traits@D@std@@V?$allocator@D@2@@std@@UOpeningInfoType@OpponentModel@UAlbertaBot@@@std@@PAU?$_Tree_node@U?$pair@$$CBV?$basic_string@DU?$char_traits@D@std@@V?$allocator@D@2@@std@@UOpeningInfoType@OpponentModel@UAlbertaBot@@@std@@PAX@2@@?$_Tree@V?$_Tmap_traits@V?$basic_string@DU?$char_traits@D@std@@V?$allocator@D@2@@std@@UOpeningInfoType@OpponentModel@UAlbertaBot@@U?$less@V?$basic_string@DU?$char_traits@D@std@@V?$allocator@D@2@@std@@@2@V?$allocator@U?$pair@$$CBV?$basic_string@DU?$char_traits@D@std@@V?$allocator@D@2@@std@@UOpeningInfoType@OpponentModel@UAlbertaBot@@@std@@@2@$0A@@std@@@std@@IAE?AV?$_Tree_iterator@V?$_Tree_val@U?$_Tree_simple_types@U?$pair@$$CBV?$basic_string@DU?$char_traits@D@std@@V?$allocator@D@2@@std@@UOpeningInfoType@OpponentModel@UAlbertaBot@@@std@@@std@@@std@@@1@V?$_Tree_const_iterator@V?$_Tree_val@U?$_Tree_simple_types@U?$pair@$$CBV?$basic_string@DU?$char_traits@D@std@@V?$allocator@D@2@@std@@UOpeningInfoType@OpponentModel@UAlbertaBot@@@std@@@std@@@std@@@1@AAU?$pair@$$CBV?$basic_string@DU?$char_traits@D@std@@V?$allocator@D@2@@std@@UOpeningInfoType@OpponentModel@UAlbertaBot@@@1@PAU?$_Tree_node@U?$pair@$$CBV?$basic_string@DU?$char_traits@D@std@@V?$allocator@D@2@@std@@UOpeningInfoType@OpponentModel@UAlbertaBot@@@std@@PAX@1@@Z 100794a0 f i OpponentModel.obj
 0001:000787f0       ?_Freenode0@?$_Tree_comp_alloc@V?$_Tmap_traits@V?$basic_string@DU?$char_traits@D@std@@V?$allocator@D@2@@std@@UOpeningInfoType@OpponentModel@UAlbertaBot@@U?$less@V?$basic_string@DU?$char_traits@D@std@@V?$allocator@D@2@@std@@@2@V?$allocator@U?$pair@$$CBV?$basic_string@DU?$char_traits@D@std@@V?$allocator@D@2@@std@@UOpeningInfoType@OpponentModel@UAlbertaBot@@@std@@@2@$0A@@std@@@std@@QAEXPAU?$_Tree_node@U?$pair@$$CBV?$basic_string@DU?$char_traits@D@std@@V?$allocator@D@2@@std@@UOpeningInfoType@OpponentModel@UAlbertaBot@@@std@@PAX@2@@Z 100797f0 f i OpponentModel.obj
 0001:00078810       ?_Buynode0@?$_Tree_comp_alloc@V?$_Tmap_traits@V?$basic_string@DU?$char_traits@D@std@@V?$allocator@D@2@@std@@UOpeningInfoType@OpponentModel@UAlbertaBot@@U?$less@V?$basic_string@DU?$char_traits@D@std@@V?$allocator@D@2@@std@@@2@V?$allocator@U?$pair@$$CBV?$basic_string@DU?$char_traits@D@std@@V?$allocator@D@2@@std@@UOpeningInfoType@OpponentModel@UAlbertaBot@@@std@@@2@$0A@@std@@@std@@QAEPAU?$_Tree_node@U?$pair@$$CBV?$basic_string@DU?$char_traits@D@std@@V?$allocator@D@2@@std@@UOpeningInfoType@OpponentModel@UAlbertaBot@@@std@@PAX@2@XZ 10079810 f i OpponentModel.obj
 0001:00078830       ?_Destroy_if_node@?$_Tree@V?$_Tmap_traits@V?$basic_string@DU?$char_traits@D@std@@V?$allocator@D@2@@std@@UOpeningInfoType@OpponentModel@UAlbertaBot@@U?$less@V?$basic_string@DU?$char_traits@D@std@@V?$allocator@D@2@@std@@@2@V?$allocator@U?$pair@$$CBV?$basic_string@DU?$char_traits@D@std@@V?$allocator@D@2@@std@@UOpeningInfoType@OpponentModel@UAlbertaBot@@@std@@@2@$0A@@std@@@std@@IAEXPAU?$_Tree_node@U?$pair@$$CBV?$basic_string@DU?$char_traits@D@std@@V?$allocator@D@2@@std@@UOpeningInfoType@OpponentModel@UAlbertaBot@@@std@@PAX@2@@Z 10079830 f i OpponentModel.obj
 0001:00078890       ??$_Insert_at@AAU?$pair@$$CBV?$basic_string@DU?$char_traits@D@std@@V?$allocator@D@2@@std@@UOpeningInfoType@OpponentModel@UAlbertaBot@@@std@@PAU?$_Tree_node@U?$pair@$$CBV?$basic_string@DU?$char_traits@D@std@@V?$allocator@D@2@@std@@UOpeningInfoType@OpponentModel@UAlbertaBot@@@std@@PAX@2@@?$_Tree@V?$_Tmap_traits@V?$basic_string@DU?$char_traits@D@std@@V?$allocator@D@2@@std@@UOpeningInfoType@OpponentModel@UAlbertaBot@@U?$less@V?$basic_string@DU?$char_traits@D@std@@V?$allocator@D@2@@std@@@2@V?$allocator@U?$pair@$$CBV?$basic_string@DU?$char_traits@D@std@@V?$allocator@D@2@@std@@UOpeningInfoType@OpponentModel@UAlbertaBot@@@std@@@2@$0A@@std@@@std@@IAE?AV?$_Tree_iterator@V?$_Tree_val@U?$_Tree_simple_types@U?$pair@$$CBV?$basic_string@DU?$char_traits@D@std@@V?$allocator@D@2@@std@@UOpeningInfoType@OpponentModel@UAlbertaBot@@@std@@@std@@@std@@@1@_NPAU?$_Tree_node@U?$pair@$$CBV?$basic_string@DU?$char_traits@D@std@@V?$allocator@D@2@@std@@UOpeningInfoType@OpponentModel@UAlbertaBot@@@std@@PAX@1@AAU?$pair@$$CBV?$basic_string@DU?$char_traits@D@std@@V?$allocator@D@2@@std@@UOpeningInfoType@OpponentModel@UAlbertaBot@@@1@1@Z 10079890 f i OpponentModel.obj
 0001:00078ac0       ??$_Insert_nohint@AAU?$pair@$$CBV?$basic_string@DU?$char_traits@D@std@@V?$allocator@D@2@@std@@UOpeningInfoType@OpponentModel@UAlbertaBot@@@std@@PAU?$_Tree_node@U?$pair@$$CBV?$basic_string@DU?$char_traits@D@std@@V?$allocator@D@2@@std@@UOpeningInfoType@OpponentModel@UAlbertaBot@@@std@@PAX@2@@?$_Tree@V?$_Tmap_traits@V?$basic_string@DU?$char_traits@D@std@@V?$allocator@D@2@@std@@UOpeningInfoType@OpponentModel@UAlbertaBot@@U?$less@V?$basic_string@DU?$char_traits@D@std@@V?$allocator@D@2@@std@@@2@V?$allocator@U?$pair@$$CBV?$basic_string@DU?$char_traits@D@std@@V?$allocator@D@2@@std@@UOpeningInfoType@OpponentModel@UAlbertaBot@@@std@@@2@$0A@@std@@@std@@IAE?AU?$pair@V?$_Tree_iterator@V?$_Tree_val@U?$_Tree_simple_types@U?$pair@$$CBV?$basic_string@DU?$char_traits@D@std@@V?$allocator@D@2@@std@@UOpeningInfoType@OpponentModel@UAlbertaBot@@@std@@@std@@@std@@@std@@_N@1@_NAAU?$pair@$$CBV?$basic_string@DU?$char_traits@D@std@@V?$allocator@D@2@@std@@UOpeningInfoType@OpponentModel@UAlbertaBot@@@1@PAU?$_Tree_node@U?$pair@$$CBV?$basic_string@DU?$char_traits@D@std@@V?$allocator@D@2@@std@@UOpeningInfoType@OpponentModel@UAlbertaBot@@@std@@PAX@1@@Z 10079ac0 f i OpponentModel.obj
 0001:00078c60       ?closestEnemyBase@OpponentPlan@UAlbertaBot@@ABEPAVBase@2@ABV?$Point@H$00@BWAPI@@@Z 10079c60 f   OpponentPlan.obj
 0001:00078db0       ?recognizeProxy@OpponentPlan@UAlbertaBot@@ABE?AW4OpeningPlan@2@XZ 10079db0 f   OpponentPlan.obj
 0001:000790a0       ?recognizeRush@OpponentPlan@UAlbertaBot@@ABE?AW4OpeningPlan@2@XZ 1007a0a0 f   OpponentPlan.obj
 0001:00079550       ?recognizeTerranTech@OpponentPlan@UAlbertaBot@@ABE?AW4OpeningPlan@2@XZ 1007a550 f   OpponentPlan.obj
 0001:000796d0       ?recognize@OpponentPlan@UAlbertaBot@@AAEXXZ 1007a6d0 f   OpponentPlan.obj
 0001:00079950       ?add@UnitCluster@UAlbertaBot@@QAEXABUUnitInfo@2@@Z 1007a950 f   OpsBoss.obj
 0001:00079be0       ?draw@UnitCluster@UAlbertaBot@@QBEXVColor@BWAPI@@ABV?$basic_string@DU?$char_traits@D@std@@V?$allocator@D@2@@std@@@Z 1007abe0 f   OpsBoss.obj
 0001:00079d40       ?formCluster@OpsBoss@UAlbertaBot@@AAEXABUUnitInfo@2@ABV?$map@PAVUnitInterface@BWAPI@@UUnitInfo@UAlbertaBot@@U?$less@PAVUnitInterface@BWAPI@@@std@@V?$allocator@U?$pair@QAVUnitInterface@BWAPI@@UUnitInfo@UAlbertaBot@@@std@@@6@@std@@AAVUnitset@BWAPI@@AAVUnitCluster@2@@Z 1007ad40 f   OpsBoss.obj
 0001:0007a020       ?clusterUnits@OpsBoss@UAlbertaBot@@AAEXPAVPlayerInterface@BWAPI@@AAVUnitset@4@AAV?$vector@VUnitCluster@UAlbertaBot@@V?$allocator@VUnitCluster@UAlbertaBot@@@std@@@std@@@Z 1007b020 f   OpsBoss.obj
 0001:0007a2a0       ?updateDefenders@OpsBoss@UAlbertaBot@@AAEXXZ 1007b2a0 f   OpsBoss.obj
 0001:0007a5f0       ?cluster@OpsBoss@UAlbertaBot@@QAEXPAVPlayerInterface@BWAPI@@AAV?$vector@VUnitCluster@UAlbertaBot@@V?$allocator@VUnitCluster@UAlbertaBot@@@std@@@std@@@Z 1007b5f0 f   OpsBoss.obj
 0001:0007a7c0       ?getGroundDefenseClusters@OpsBoss@UAlbertaBot@@QAEABV?$vector@VUnitCluster@UAlbertaBot@@V?$allocator@VUnitCluster@UAlbertaBot@@@std@@@std@@XZ 1007b7c0 f   OpsBoss.obj
 0001:0007a800       ?getAirDefenseClusters@OpsBoss@UAlbertaBot@@QAEABV?$vector@VUnitCluster@UAlbertaBot@@V?$allocator@VUnitCluster@UAlbertaBot@@@std@@@std@@XZ 1007b800 f   OpsBoss.obj
 0001:0007a840       ??$construct@VUnitCluster@UAlbertaBot@@V12@@?$_Default_allocator_traits@V?$allocator@VUnitCluster@UAlbertaBot@@@std@@@std@@SAXAAV?$allocator@VUnitCluster@UAlbertaBot@@@1@QAVUnitCluster@UAlbertaBot@@$$QAV34@@Z 1007b840 f i OpsBoss.obj
 0001:0007a950       ??$_Emplace_reallocate@VUnitCluster@UAlbertaBot@@@?$vector@VUnitCluster@UAlbertaBot@@V?$allocator@VUnitCluster@UAlbertaBot@@@std@@@std@@QAEPAVUnitCluster@UAlbertaBot@@QAV23@$$QAV23@@Z 1007b950 f i OpsBoss.obj
 0001:0007abe0       ??$_Uninitialized_copy@PAVUnitCluster@UAlbertaBot@@PAV12@V?$allocator@VUnitCluster@UAlbertaBot@@@std@@@std@@YAPAVUnitCluster@UAlbertaBot@@QAV12@0PAV12@AAV?$allocator@VUnitCluster@UAlbertaBot@@@0@@Z 1007bbe0 f i OpsBoss.obj
 0001:0007ad20       ??1?$_Uninitialized_backout_al@PAVUnitCluster@UAlbertaBot@@V?$allocator@VUnitCluster@UAlbertaBot@@@std@@@std@@QAE@XZ 1007bd20 f i OpsBoss.obj
 0001:0007ad30       ?ParseConfigFile@ParseUtils@UAlbertaBot@@YAXABV?$basic_string@DU?$char_traits@D@std@@V?$allocator@D@2@@std@@@Z 1007bd30 f   ParseUtils.obj
 0001:0007c070       ?ParseTextCommand@ParseUtils@UAlbertaBot@@YAXABV?$basic_string@DU?$char_traits@D@std@@V?$allocator@D@2@@std@@@Z 1007d070 f   ParseUtils.obj
 0001:0007ca50       ?GetBoolFromString@ParseUtils@UAlbertaBot@@YA_NABV?$basic_string@DU?$char_traits@D@std@@V?$allocator@D@2@@std@@@Z 1007da50 f   ParseUtils.obj
 0001:0007cbb0       ?GetIntByRace@ParseUtils@UAlbertaBot@@YAHPBDABV?$GenericValue@U?$UTF8@D@rapidjson@@V?$MemoryPoolAllocator@VCrtAllocator@rapidjson@@@2@@rapidjson@@@Z 1007dbb0 f   ParseUtils.obj
 0001:0007cda0       ?GetDoubleByRace@ParseUtils@UAlbertaBot@@YANPBDABV?$GenericValue@U?$UTF8@D@rapidjson@@V?$MemoryPoolAllocator@VCrtAllocator@rapidjson@@@2@@rapidjson@@@Z 1007dda0 f   ParseUtils.obj
 0001:0007cfc0       ?GetBoolByRace@ParseUtils@UAlbertaBot@@YA_NPBDABV?$GenericValue@U?$UTF8@D@rapidjson@@V?$MemoryPoolAllocator@VCrtAllocator@rapidjson@@@2@@rapidjson@@@Z 1007dfc0 f   ParseUtils.obj
 0001:0007d1c0       ??1?$GenericDocument@U?$UTF8@D@rapidjson@@V?$MemoryPoolAllocator@VCrtAllocator@rapidjson@@@2@VCrtAllocator@2@@rapidjson@@QAE@XZ 1007e1c0 f i ParseUtils.obj
 0001:0007d240       ?GetDouble@?$GenericValue@U?$UTF8@D@rapidjson@@V?$MemoryPoolAllocator@VCrtAllocator@rapidjson@@@2@@rapidjson@@QBENXZ 1007e240 f i ParseUtils.obj
 0001:0007d2a0       ??1?$GenericReader@U?$UTF8@D@rapidjson@@U12@VCrtAllocator@2@@rapidjson@@QAE@XZ 1007e2a0 f i ParseUtils.obj
 0001:0007d2a0       ??1?$Stack@VCrtAllocator@rapidjson@@@internal@rapidjson@@QAE@XZ 1007e2a0 f i ParseUtils.obj
 0001:0007d2c0       ??$ReadInt@H@JSONTools@UAlbertaBot@@YAXPBDABV?$GenericValue@U?$UTF8@D@rapidjson@@V?$MemoryPoolAllocator@VCrtAllocator@rapidjson@@@2@@rapidjson@@AAH@Z 1007e2c0 f i ParseUtils.obj
 0001:0007d370       ??$?5DU?$char_traits@D@std@@V?$allocator@D@1@@std@@YAAAV?$basic_istream@DU?$char_traits@D@std@@@0@$$QAV10@AAV?$basic_string@DU?$char_traits@D@std@@V?$allocator@D@2@@0@@Z 1007e370 f i ParseUtils.obj
 0001:0007d530       ??1ClearStackOnExit@?$GenericDocument@U?$UTF8@D@rapidjson@@V?$MemoryPoolAllocator@VCrtAllocator@rapidjson@@@2@VCrtAllocator@2@@rapidjson@@QAE@XZ 1007e530 f i ParseUtils.obj
 0001:0007d560       ??1ClearStackOnExit@?$GenericReader@U?$UTF8@D@rapidjson@@U12@VCrtAllocator@2@@rapidjson@@QAE@XZ 1007e560 f i ParseUtils.obj
 0001:0007d570       ??$SkipWhitespace@U?$GenericStringStream@U?$UTF8@D@rapidjson@@@rapidjson@@@rapidjson@@YAXAAU?$GenericStringStream@U?$UTF8@D@rapidjson@@@0@@Z 1007e570 f i ParseUtils.obj
 0001:0007d5a0       ??$ParseValue@$0A@U?$GenericStringStream@U?$UTF8@D@rapidjson@@@rapidjson@@V?$GenericDocument@U?$UTF8@D@rapidjson@@V?$MemoryPoolAllocator@VCrtAllocator@rapidjson@@@2@VCrtAllocator@2@@2@@?$GenericReader@U?$UTF8@D@rapidjson@@U12@VCrtAllocator@2@@rapidjson@@AAEXAAU?$GenericStringStream@U?$UTF8@D@rapidjson@@@1@AAV?$GenericDocument@U?$UTF8@D@rapidjson@@V?$MemoryPoolAllocator@VCrtAllocator@rapidjson@@@2@VCrtAllocator@2@@1@@Z 1007e5a0 f i ParseUtils.obj
 0001:0007d790       ??1?$StreamLocalCopy@U?$GenericStringStream@U?$UTF8@D@rapidjson@@@rapidjson@@$00@internal@rapidjson@@QAE@XZ 1007e790 f i ParseUtils.obj
 0001:0007d7a0       ??$ParseString@$0A@U?$GenericStringStream@U?$UTF8@D@rapidjson@@@rapidjson@@V?$GenericDocument@U?$UTF8@D@rapidjson@@V?$MemoryPoolAllocator@VCrtAllocator@rapidjson@@@2@VCrtAllocator@2@@2@@?$GenericReader@U?$UTF8@D@rapidjson@@U12@VCrtAllocator@2@@rapidjson@@AAEXAAU?$GenericStringStream@U?$UTF8@D@rapidjson@@@1@AAV?$GenericDocument@U?$UTF8@D@rapidjson@@V?$MemoryPoolAllocator@VCrtAllocator@rapidjson@@@2@VCrtAllocator@2@@1@_N@Z 1007e7a0 f i ParseUtils.obj
 0001:0007d850       ??$ParseObject@$0A@U?$GenericStringStream@U?$UTF8@D@rapidjson@@@rapidjson@@V?$GenericDocument@U?$UTF8@D@rapidjson@@V?$MemoryPoolAllocator@VCrtAllocator@rapidjson@@@2@VCrtAllocator@2@@2@@?$GenericReader@U?$UTF8@D@rapidjson@@U12@VCrtAllocator@2@@rapidjson@@AAEXAAU?$GenericStringStream@U?$UTF8@D@rapidjson@@@1@AAV?$GenericDocument@U?$UTF8@D@rapidjson@@V?$MemoryPoolAllocator@VCrtAllocator@rapidjson@@@2@VCrtAllocator@2@@1@@Z 1007e850 f i ParseUtils.obj
 0001:0007dad0       ??$ParseArray@$0A@U?$GenericStringStream@U?$UTF8@D@rapidjson@@@rapidjson@@V?$GenericDocument@U?$UTF8@D@rapidjson@@V?$MemoryPoolAllocator@VCrtAllocator@rapidjson@@@2@VCrtAllocator@2@@2@@?$GenericReader@U?$UTF8@D@rapidjson@@U12@VCrtAllocator@2@@rapidjson@@AAEXAAU?$GenericStringStream@U?$UTF8@D@rapidjson@@@1@AAV?$GenericDocument@U?$UTF8@D@rapidjson@@V?$MemoryPoolAllocator@VCrtAllocator@rapidjson@@@2@VCrtAllocator@2@@1@@Z 1007ead0 f i ParseUtils.obj
 0001:0007dc00       ??$ParseNumber@$0A@U?$GenericStringStream@U?$UTF8@D@rapidjson@@@rapidjson@@V?$GenericDocument@U?$UTF8@D@rapidjson@@V?$MemoryPoolAllocator@VCrtAllocator@rapidjson@@@2@VCrtAllocator@2@@2@@?$GenericReader@U?$UTF8@D@rapidjson@@U12@VCrtAllocator@2@@rapidjson@@AAEXAAU?$GenericStringStream@U?$UTF8@D@rapidjson@@@1@AAV?$GenericDocument@U?$UTF8@D@rapidjson@@V?$MemoryPoolAllocator@VCrtAllocator@rapidjson@@@2@VCrtAllocator@2@@1@@Z 1007ec00 f i ParseUtils.obj
 0001:0007e410       ?EndArray@?$GenericDocument@U?$UTF8@D@rapidjson@@V?$MemoryPoolAllocator@VCrtAllocator@rapidjson@@@2@VCrtAllocator@2@@rapidjson@@AAE_NI@Z 1007f410 f i ParseUtils.obj
 0001:0007e470       ?EndObject@?$GenericDocument@U?$UTF8@D@rapidjson@@V?$MemoryPoolAllocator@VCrtAllocator@rapidjson@@@2@VCrtAllocator@2@@rapidjson@@AAE_NI@Z 1007f470 f i ParseUtils.obj
 0001:0007e4d0       ?String@?$GenericDocument@U?$UTF8@D@rapidjson@@V?$MemoryPoolAllocator@VCrtAllocator@rapidjson@@@2@VCrtAllocator@2@@rapidjson@@AAE_NPBDI_N@Z 1007f4d0 f i ParseUtils.obj
 0001:0007e540       ?Malloc@?$MemoryPoolAllocator@VCrtAllocator@rapidjson@@@rapidjson@@QAEPAXI@Z 1007f540 f i ParseUtils.obj
 0001:0007e5d0       ??$ParseStringToStream@$0A@U?$UTF8@D@rapidjson@@U12@U?$GenericStringStream@U?$UTF8@D@rapidjson@@@2@V?$StackStream@D@?$GenericReader@U?$UTF8@D@rapidjson@@U12@VCrtAllocator@2@@2@@?$GenericReader@U?$UTF8@D@rapidjson@@U12@VCrtAllocator@2@@rapidjson@@AAEXAAU?$GenericStringStream@U?$UTF8@D@rapidjson@@@1@AAV?$StackStream@D@01@@Z 1007f5d0 f i ParseUtils.obj
 0001:0007e7f0       ??$Push@V?$GenericValue@U?$UTF8@D@rapidjson@@V?$MemoryPoolAllocator@VCrtAllocator@rapidjson@@@2@@rapidjson@@@?$Stack@VCrtAllocator@rapidjson@@@internal@rapidjson@@QAEPAV?$GenericValue@U?$UTF8@D@rapidjson@@V?$MemoryPoolAllocator@VCrtAllocator@rapidjson@@@2@@2@I@Z 1007f7f0 f i ParseUtils.obj
 0001:0007e880       ?Put@?$StackStream@D@?$GenericReader@U?$UTF8@D@rapidjson@@U12@VCrtAllocator@2@@rapidjson@@QAEXD@Z 1007f880 f i ParseUtils.obj
 0001:0007e920       ??$ParseHex4@U?$GenericStringStream@U?$UTF8@D@rapidjson@@@rapidjson@@@?$GenericReader@U?$UTF8@D@rapidjson@@U12@VCrtAllocator@2@@rapidjson@@AAEIAAU?$GenericStringStream@U?$UTF8@D@rapidjson@@@1@@Z 1007f920 f i ParseUtils.obj
 0001:0007e990       ?reset@PlayerSnapshot@UAlbertaBot@@IAEXPAVPlayerInterface@BWAPI@@@Z 1007f990 f   PlayerSnapshot.obj
 0001:0007ea10       ??0PlayerSnapshot@UAlbertaBot@@QAE@XZ 1007fa10 f   PlayerSnapshot.obj
 0001:0007ea60       ??0PlayerSnapshot@UAlbertaBot@@QAE@PAVPlayerInterface@BWAPI@@@Z 1007fa60 f   PlayerSnapshot.obj
 0001:0007eb20       ?takeSelf@PlayerSnapshot@UAlbertaBot@@QAEXXZ 1007fb20 f   PlayerSnapshot.obj
 0001:0007ebd0       ?takeSelfAll@PlayerSnapshot@UAlbertaBot@@QAEXXZ 1007fbd0 f   PlayerSnapshot.obj
 0001:0007ed50       ?takeEnemy@PlayerSnapshot@UAlbertaBot@@QAEXXZ 1007fd50 f   PlayerSnapshot.obj
 0001:0007ee50       ?takeEnemyEver@PlayerSnapshot@UAlbertaBot@@QAEXABV12@@Z 1007fe50 f   PlayerSnapshot.obj
 0001:0007efc0       ?count@PlayerSnapshot@UAlbertaBot@@QBEHVUnitType@BWAPI@@@Z 1007ffc0 f   PlayerSnapshot.obj
 0001:0007f010       ?getSupply@PlayerSnapshot@UAlbertaBot@@QBEHXZ 10080010 f   PlayerSnapshot.obj
 0001:0007f090       ?alreadyAchieved@ProductionGoal@UAlbertaBot@@ABE_NXZ 10080090 f   ProductionGoal.obj
 0001:0007f200       ?done@ProductionGoal@UAlbertaBot@@QAE_NXZ 10080200 f   ProductionGoal.obj
 0001:0007f370       ?update@ProductionManager@UAlbertaBot@@QAEXXZ 10080370 f   ProductionManager.obj
 0001:0007f530       ?dropJammedItemsFromQueue@ProductionManager@UAlbertaBot@@AAEXXZ 10080530 f   ProductionManager.obj
 0001:0007f830       ?manageBuildOrderQueue@ProductionManager@UAlbertaBot@@AAEXXZ 10080830 f   ProductionManager.obj
 0001:0007fc00       ?maybeReorderQueue@ProductionManager@UAlbertaBot@@AAEXXZ 10080c00 f   ProductionManager.obj
 0001:00080340       ?getProducer@ProductionManager@UAlbertaBot@@ABEPAVUnitInterface@BWAPI@@VMacroAct@2@@Z 10081340 f   ProductionManager.obj
 0001:00080620       ?getClosestUnitToPosition@ProductionManager@UAlbertaBot@@ABEPAVUnitInterface@BWAPI@@ABV?$vector@PAVUnitInterface@BWAPI@@V?$allocator@PAVUnitInterface@BWAPI@@@std@@@std@@V?$Point@H$00@4@@Z 10081620 f   ProductionManager.obj
 0001:000806e0       ?create@ProductionManager@UAlbertaBot@@AAEXPAVUnitInterface@BWAPI@@ABUBuildOrderItem@2@@Z 100816e0 f   ProductionManager.obj
 0001:00080760       ?predictWorkerMovement@ProductionManager@UAlbertaBot@@AAEXAAVBuilding@2@@Z 10081760 f   ProductionManager.obj
 0001:000809f0       ?getFreeMinerals@ProductionManager@UAlbertaBot@@ABEHXZ 100819f0 f   ProductionManager.obj
 0001:00080a20       ?getFreeGas@ProductionManager@UAlbertaBot@@ABEHXZ 10081a20 f   ProductionManager.obj
 0001:00080a50       ?executeCommand@ProductionManager@UAlbertaBot@@AAEXABVMacroAct@2@@Z 10081a50 f   ProductionManager.obj
 0001:00081310       ?drawProductionInformation@ProductionManager@UAlbertaBot@@QAEXHH@Z 10082310 f   ProductionManager.obj
 0001:000817c0       ?Instance@ProductionManager@UAlbertaBot@@SAAAV12@XZ 100827c0 f   ProductionManager.obj
 0001:00081920       ?nextIsBuilding@ProductionManager@UAlbertaBot@@QBE_NXZ 10082920 f   ProductionManager.obj
 0001:00081970       ?goOutOfBookAndClearQueue@ProductionManager@UAlbertaBot@@QAEXXZ 10082970 f   ProductionManager.obj
 0001:000819d0       ??$_Sort_unchecked@PAPAVUnitInterface@BWAPI@@VCompareWhenStarted@UAlbertaBot@@@std@@YAXPAPAVUnitInterface@BWAPI@@0HVCompareWhenStarted@UAlbertaBot@@@Z 100829d0 f i ProductionManager.obj
 0001:00081b10       ??$_Buynode@VProductionGoal@UAlbertaBot@@@?$_Flist_buy@VProductionGoal@UAlbertaBot@@V?$allocator@VProductionGoal@UAlbertaBot@@@std@@@std@@QAEPAU?$_Flist_node@VProductionGoal@UAlbertaBot@@PAX@1@PAU21@$$QAVProductionGoal@UAlbertaBot@@@Z 10082b10 f i ProductionManager.obj
 0001:00081b50       ?_Buynode0@?$_Flist_buy@VProductionGoal@UAlbertaBot@@V?$allocator@VProductionGoal@UAlbertaBot@@@std@@@std@@QAEPAU?$_Flist_node@VProductionGoal@UAlbertaBot@@PAX@2@PAU32@@Z 10082b50 f i ProductionManager.obj
 0001:00081b70       ??$_Partition_by_median_guess_unchecked@PAPAVUnitInterface@BWAPI@@VCompareWhenStarted@UAlbertaBot@@@std@@YA?AU?$pair@PAPAVUnitInterface@BWAPI@@PAPAV12@@0@PAPAVUnitInterface@BWAPI@@0VCompareWhenStarted@UAlbertaBot@@@Z 10082b70 f i ProductionManager.obj
 0001:00082010       ??$_Insertion_sort_unchecked@PAPAVUnitInterface@BWAPI@@VCompareWhenStarted@UAlbertaBot@@@std@@YAPAPAVUnitInterface@BWAPI@@PAPAV12@QAPAV12@VCompareWhenStarted@UAlbertaBot@@@Z 10083010 f i ProductionManager.obj
 0001:000821a0       ??$_Pop_heap_hole_by_index@PAPAVUnitInterface@BWAPI@@PAV12@VCompareWhenStarted@UAlbertaBot@@@std@@YAXPAPAVUnitInterface@BWAPI@@HH$$QAPAV12@VCompareWhenStarted@UAlbertaBot@@@Z 100831a0 f i ProductionManager.obj
 0001:00082300       ??$_Med3_unchecked@PAPAVUnitInterface@BWAPI@@VCompareWhenStarted@UAlbertaBot@@@std@@YAXPAPAVUnitInterface@BWAPI@@00VCompareWhenStarted@UAlbertaBot@@@Z 10083300 f i ProductionManager.obj
 0001:00082420       ?Instance@Random@UAlbertaBot@@SAAAV12@XZ 10083420 f   Random.obj
 0001:000824e0       ??$generate_canonical@N$0PPPPPPPP@V?$linear_congruential_engine@I$0LMIP@$0A@$0HPPPPPPP@@std@@@std@@YANAAV?$linear_congruential_engine@I$0LMIP@$0A@$0HPPPPPPP@@0@@Z 100834e0 f i Random.obj
 0001:00082760       ?accessibleGasUnit@ResourceInfo@UAlbertaBot@@AAEPAVUnitInterface@BWAPI@@XZ 10083760 f   ResourceInfo.obj
 0001:00082a60       ?Instance@ScoutManager@UAlbertaBot@@SAAAV12@XZ 10083a60 f   ScoutManager.obj
 0001:00082bd0       ?setScoutTargets@ScoutManager@UAlbertaBot@@AAEXXZ 10083bd0 f   ScoutManager.obj
 0001:00082db0       ?putData@Skill@UAlbertaBot@@UBE?AV?$basic_string@DU?$char_traits@D@std@@V?$allocator@D@2@@std@@XZ 10083db0 f i Skill.obj
 0001:00082de0       ?enabled@SkillOpeningTiming@UAlbertaBot@@UBE_NXZ 10083de0 f i SkillOpeningTiming.obj
 0001:00082de0       ___scrt_stub_for_acrt_thread_detach 10083de0 f i MSVCRT:ucrt_stubs.obj
 0001:00082de0       ___scrt_stub_for_acrt_uninitialize_critical 10083de0 f i MSVCRT:ucrt_stubs.obj
 0001:00082de0       ?good@SkillLurkers@UAlbertaBot@@UBE_NXZ 10083de0 f i SkillLurkers.obj
 0001:00082de0       ___acrt_uninitialize_critical 10083de0 f i MSVCRT:ucrt_stubs.obj
 0001:00082de0       ___vcrt_thread_attach      10083de0 f i MSVCRT:ucrt_stubs.obj
 0001:00082de0       ___vcrt_initialize         10083de0 f i MSVCRT:ucrt_stubs.obj
 0001:00082de0       ___scrt_stub_for_acrt_uninitialize 10083de0 f i MSVCRT:ucrt_stubs.obj
 0001:00082de0       ___acrt_initialize         10083de0 f i MSVCRT:ucrt_stubs.obj
 0001:00082de0       ___acrt_thread_detach      10083de0 f i MSVCRT:ucrt_stubs.obj
 0001:00082de0       ___acrt_uninitialize       10083de0 f i MSVCRT:ucrt_stubs.obj
 0001:00082de0       ___scrt_stub_for_acrt_initialize 10083de0 f i MSVCRT:ucrt_stubs.obj
 0001:00082de0       ___vcrt_thread_detach      10083de0 f i MSVCRT:ucrt_stubs.obj
 0001:00082de0       ?enabled@SkillBattles@UAlbertaBot@@UBE_NXZ 10083de0 f i SkillBattles.obj
 0001:00082de0       ___vcrt_uninitialize_critical 10083de0 f i MSVCRT:ucrt_stubs.obj
 0001:00082de0       ___acrt_thread_attach      10083de0 f i MSVCRT:ucrt_stubs.obj
 0001:00082de0       ?enabled@SkillUnitTimings@UAlbertaBot@@UBE_NXZ 10083de0 f i SkillUnitTimings.obj
 0001:00082de0       ___vcrt_uninitialize       10083de0 f i MSVCRT:ucrt_stubs.obj
 0001:00082de0       ___scrt_stub_for_acrt_thread_attach 10083de0 f i MSVCRT:ucrt_stubs.obj
 0001:00082df0       ?feasible@SkillUnitTimings@UAlbertaBot@@UBE_NXZ 10083df0 f i SkillUnitTimings.obj
 0001:00082df0       ?feasible@SkillOpeningTiming@UAlbertaBot@@UBE_NXZ 10083df0 f i SkillOpeningTiming.obj
 0001:00082df0       ?good@SkillUnitTimings@UAlbertaBot@@UBE_NXZ 10083df0 f i SkillUnitTimings.obj
 0001:00082df0       ?feasible@SkillBattles@UAlbertaBot@@UBE_NXZ 10083df0 f i SkillBattles.obj
 0001:00082df0       ?good@SkillOpeningTiming@UAlbertaBot@@UBE_NXZ 10083df0 f i SkillOpeningTiming.obj
 0001:00082df0       ?good@SkillBattles@UAlbertaBot@@UBE_NXZ 10083df0 f i SkillBattles.obj
 0001:00082e00       ?render@BattleRecord@SkillBattles@UAlbertaBot@@QBEXAAV?$basic_stringstream@DU?$char_traits@D@std@@V?$allocator@D@2@@std@@@Z 10083e00 f   SkillBattles.obj
 0001:00082ed0       ?putData@SkillBattles@UAlbertaBot@@UBE?AV?$basic_string@DU?$char_traits@D@std@@V?$allocator@D@2@@std@@XZ 10083ed0 f   SkillBattles.obj
 0001:00083080       ?getData@SkillBattles@UAlbertaBot@@UAEXAAVGameRecord@2@ABV?$basic_string@DU?$char_traits@D@std@@V?$allocator@D@2@@std@@@Z 10084080 f   SkillBattles.obj
 0001:000832f0       ?update@SkillBattles@UAlbertaBot@@UAEXXZ 100842f0 f   SkillBattles.obj
 0001:00083510       ??1BattleRecord@SkillBattles@UAlbertaBot@@QAE@XZ 10084510 f i SkillBattles.obj
 0001:00083530       ?_Destroy@?$vector@UBattleRecord@SkillBattles@UAlbertaBot@@V?$allocator@UBattleRecord@SkillBattles@UAlbertaBot@@@std@@@std@@AAEXPAUBattleRecord@SkillBattles@UAlbertaBot@@0@Z 10084530 f i SkillBattles.obj
 0001:00083570       ?deallocate@?$allocator@UBattleRecord@SkillBattles@UAlbertaBot@@@std@@QAEXQAUBattleRecord@SkillBattles@UAlbertaBot@@I@Z 10084570 f i SkillBattles.obj
 0001:000835c0       ??$_Range_construct_or_tidy@PBH@?$vector@HV?$allocator@H@std@@@std@@AAEXPBH0Uforward_iterator_tag@1@@Z 100845c0 f i SkillBattles.obj
 0001:00083610       ??$construct@UBattleRecord@SkillBattles@UAlbertaBot@@U123@@?$_Default_allocator_traits@V?$allocator@UBattleRecord@SkillBattles@UAlbertaBot@@@std@@@std@@SAXAAV?$allocator@UBattleRecord@SkillBattles@UAlbertaBot@@@1@QAUBattleRecord@SkillBattles@UAlbertaBot@@$$QAU345@@Z 10084610 f i SkillBattles.obj
 0001:00083670       ??$_Emplace_reallocate@UBattleRecord@SkillBattles@UAlbertaBot@@@?$vector@UBattleRecord@SkillBattles@UAlbertaBot@@V?$allocator@UBattleRecord@SkillBattles@UAlbertaBot@@@std@@@std@@QAEPAUBattleRecord@SkillBattles@UAlbertaBot@@QAU234@$$QAU234@@Z 10084670 f i SkillBattles.obj
 0001:00083910       ?_Umove@?$vector@UBattleRecord@SkillBattles@UAlbertaBot@@V?$allocator@UBattleRecord@SkillBattles@UAlbertaBot@@@std@@@std@@AAEPAUBattleRecord@SkillBattles@UAlbertaBot@@PAU345@00@Z 10084910 f i SkillBattles.obj
 0001:000839d0       ??1?$_Uninitialized_backout_al@PAUBattleRecord@SkillBattles@UAlbertaBot@@V?$allocator@UBattleRecord@SkillBattles@UAlbertaBot@@@std@@@std@@QAE@XZ 100849d0 f i SkillBattles.obj
 0001:00083a10       ?analyzeRecords@SkillGasSteal@UAlbertaBot@@AAEXXZ 10084a10 f   SkillGasSteal.obj
 0001:00083cc0       ?putData@SkillGasSteal@UAlbertaBot@@UBE?AV?$basic_string@DU?$char_traits@D@std@@V?$allocator@D@2@@std@@XZ 10084cc0 f   SkillGasSteal.obj
 0001:00083dc0       ?getData@SkillGasSteal@UAlbertaBot@@UAEXAAVGameRecord@2@ABV?$basic_string@DU?$char_traits@D@std@@V?$allocator@D@2@@std@@@Z 10084dc0 f   SkillGasSteal.obj
 0001:00083f20       ?enabled@SkillGasSteal@UAlbertaBot@@UBE_NXZ 10084f20 f   SkillGasSteal.obj
 0001:00083f40       ?update@SkillGasSteal@UAlbertaBot@@UAEXXZ 10084f40 f   SkillGasSteal.obj
 0001:000841a0       ?feasible@SkillGasSteal@UAlbertaBot@@UBE_NXZ 100851a0 f   SkillGasSteal.obj
 0001:00084270       ?good@SkillGasSteal@UAlbertaBot@@UBE_NXZ 10085270 f   SkillGasSteal.obj
 0001:00084560       ?execute@SkillGasSteal@UAlbertaBot@@UAEXXZ 10085560 f   SkillGasSteal.obj
 0001:00084590       ?addSkill@SkillKit@UAlbertaBot@@AAEXPAVSkill@2@@Z 10085590 f   SkillKit.obj
 0001:00084630       ?initialize@SkillKit@UAlbertaBot@@QAEXXZ 10085630 f   SkillKit.obj
 0001:00084af0       ?read@SkillKit@UAlbertaBot@@QAEXAAVGameRecord@2@ABV?$basic_string@DU?$char_traits@D@std@@V?$allocator@D@2@@std@@@Z 10085af0 f   SkillKit.obj
 0001:00084ca0       ??1?$map@PAVUnitInterface@BWAPI@@ULurkerRecord@SkillLurkers@UAlbertaBot@@U?$less@PAVUnitInterface@BWAPI@@@std@@V?$allocator@U?$pair@QAVUnitInterface@BWAPI@@ULurkerRecord@SkillLurkers@UAlbertaBot@@@std@@@7@@std@@QAE@XZ 10085ca0 f i SkillLurkers.obj
 0001:00084d40       ?putData@SkillLurkers@UAlbertaBot@@UBE?AV?$basic_string@DU?$char_traits@D@std@@V?$allocator@D@2@@std@@XZ 10085d40 f   SkillLurkers.obj
 0001:00084e00       ?getData@SkillLurkers@UAlbertaBot@@UAEXAAVGameRecord@2@ABV?$basic_string@DU?$char_traits@D@std@@V?$allocator@D@2@@std@@@Z 10085e00 f   SkillLurkers.obj
 0001:00084e70       ?enabled@SkillLurkers@UAlbertaBot@@UBE_NXZ 10085e70 f   SkillLurkers.obj
 0001:00084e80       ?update@SkillLurkers@UAlbertaBot@@UAEXXZ 10085e80 f   SkillLurkers.obj
 0001:00084ea0       ?feasible@SkillLurkers@UAlbertaBot@@UBE_NXZ 10085ea0 f   SkillLurkers.obj
 0001:00084ec0       ?draw@SkillLurkers@UAlbertaBot@@UBEXXZ 10085ec0 f   SkillLurkers.obj
 0001:00084fe0       ?putData@SkillOpeningTiming@UAlbertaBot@@UBE?AV?$basic_string@DU?$char_traits@D@std@@V?$allocator@D@2@@std@@XZ 10085fe0 f   SkillOpeningTiming.obj
 0001:00085340       ?getData@SkillOpeningTiming@UAlbertaBot@@UAEXAAVGameRecord@2@ABV?$basic_string@DU?$char_traits@D@std@@V?$allocator@D@2@@std@@@Z 10086340 f   SkillOpeningTiming.obj
 0001:00085730       ?update@SkillOpeningTiming@UAlbertaBot@@UAEXXZ 10086730 f   SkillOpeningTiming.obj
 0001:00086000       ?putData@SkillUnitTimings@UAlbertaBot@@UBE?AV?$basic_string@DU?$char_traits@D@std@@V?$allocator@D@2@@std@@XZ 10087000 f   SkillUnitTimings.obj
 0001:00086150       ?update@SkillUnitTimings@UAlbertaBot@@UAEXXZ 10087150 f   SkillUnitTimings.obj
 0001:00086330       ??1?$vector@V?$map@VUnitType@BWAPI@@HU?$less@VUnitType@BWAPI@@@std@@V?$allocator@U?$pair@$$CBVUnitType@BWAPI@@H@std@@@4@@std@@V?$allocator@V?$map@VUnitType@BWAPI@@HU?$less@VUnitType@BWAPI@@@std@@V?$allocator@U?$pair@$$CBVUnitType@BWAPI@@H@std@@@4@@std@@@2@@std@@QAE@XZ 10087330 f i SkillUnitTimings.obj
 0001:000863c0       ?_Destroy@?$vector@V?$map@VUnitType@BWAPI@@HU?$less@VUnitType@BWAPI@@@std@@V?$allocator@U?$pair@$$CBVUnitType@BWAPI@@H@std@@@4@@std@@V?$allocator@V?$map@VUnitType@BWAPI@@HU?$less@VUnitType@BWAPI@@@std@@V?$allocator@U?$pair@$$CBVUnitType@BWAPI@@H@std@@@4@@std@@@2@@std@@AAEXPAV?$map@VUnitType@BWAPI@@HU?$less@VUnitType@BWAPI@@@std@@V?$allocator@U?$pair@$$CBVUnitType@BWAPI@@H@std@@@4@@2@0@Z 100873c0 f i SkillUnitTimings.obj
 0001:000863f0       ?deallocate@?$allocator@V?$map@VUnitType@BWAPI@@HU?$less@VUnitType@BWAPI@@@std@@V?$allocator@U?$pair@$$CBVUnitType@BWAPI@@H@std@@@4@@std@@@std@@QAEXQAV?$map@VUnitType@BWAPI@@HU?$less@VUnitType@BWAPI@@@std@@V?$allocator@U?$pair@$$CBVUnitType@BWAPI@@H@std@@@4@@2@I@Z 100873f0 f i SkillUnitTimings.obj
 0001:00086430       ?_Change_array@?$vector@V?$map@VUnitType@BWAPI@@HU?$less@VUnitType@BWAPI@@@std@@V?$allocator@U?$pair@$$CBVUnitType@BWAPI@@H@std@@@4@@std@@V?$allocator@V?$map@VUnitType@BWAPI@@HU?$less@VUnitType@BWAPI@@@std@@V?$allocator@U?$pair@$$CBVUnitType@BWAPI@@H@std@@@4@@std@@@2@@std@@AAEXQAV?$map@VUnitType@BWAPI@@HU?$less@VUnitType@BWAPI@@@std@@V?$allocator@U?$pair@$$CBVUnitType@BWAPI@@H@std@@@4@@2@II@Z 10087430 f i SkillUnitTimings.obj
 0001:000864d0       ?_Umove_if_noexcept@?$vector@V?$map@VUnitType@BWAPI@@HU?$less@VUnitType@BWAPI@@@std@@V?$allocator@U?$pair@$$CBVUnitType@BWAPI@@H@std@@@4@@std@@V?$allocator@V?$map@VUnitType@BWAPI@@HU?$less@VUnitType@BWAPI@@@std@@V?$allocator@U?$pair@$$CBVUnitType@BWAPI@@H@std@@@4@@std@@@2@@std@@AAEXPAV?$map@VUnitType@BWAPI@@HU?$less@VUnitType@BWAPI@@@std@@V?$allocator@U?$pair@$$CBVUnitType@BWAPI@@H@std@@@4@@2@00@Z 100874d0 f i SkillUnitTimings.obj
 0001:00086550       ??1?$_Uninitialized_backout_al@PAV?$map@VUnitType@BWAPI@@HU?$less@VUnitType@BWAPI@@@std@@V?$allocator@U?$pair@$$CBVUnitType@BWAPI@@H@std@@@4@@std@@V?$allocator@V?$map@VUnitType@BWAPI@@HU?$less@VUnitType@BWAPI@@@std@@V?$allocator@U?$pair@$$CBVUnitType@BWAPI@@H@std@@@4@@std@@@2@@std@@QAE@XZ 10087550 f i SkillUnitTimings.obj
 0001:00086580       ??0Squad@UAlbertaBot@@QAE@XZ 10087580 f   Squad.obj
 0001:000869b0       ??0Squad@UAlbertaBot@@QAE@ABV?$basic_string@DU?$char_traits@D@std@@V?$allocator@D@2@@std@@I@Z 100879b0 f   Squad.obj
 0001:00086e10       ??1Squad@UAlbertaBot@@QAE@XZ 10087e10 f   Squad.obj
 0001:000871f0       ?update@Squad@UAlbertaBot@@QAEXXZ 100881f0 f   Squad.obj
 0001:00087b70       ?setClusterStatus@Squad@UAlbertaBot@@AAEXAAVUnitCluster@2@@Z 10088b70 f   Squad.obj
 0001:000880f0       ?joinUp@Squad@UAlbertaBot@@AAE_NABVUnitCluster@2@@Z 100890f0 f   Squad.obj
 0001:00088270       ?moveCluster@Squad@UAlbertaBot@@AAEXABVUnitCluster@2@ABV?$Point@H$00@BWAPI@@_N@Z 10089270 f   Squad.obj
 0001:00088350       ?setAllUnits@Squad@UAlbertaBot@@AAEXXZ 10089350 f   Squad.obj
 0001:000884f0       ?setNearEnemyUnits@Squad@UAlbertaBot@@AAEXXZ 100894f0 f   Squad.obj
 0001:00088810       ?addUnitsToMicroManagers@Squad@UAlbertaBot@@AAEXXZ 10089810 f   Squad.obj
 0001:000895c0       ?needsToRegroup@Squad@UAlbertaBot@@AAE_NAAVUnitCluster@2@@Z 1008a5c0 f   Squad.obj
 0001:0008a390       ?calcRegroupPosition@Squad@UAlbertaBot@@ABE?AV?$Point@H$00@BWAPI@@ABVUnitCluster@2@@Z 1008b390 f   Squad.obj
 0001:0008aa20       ?nearbyImmobileGroundDefense@Squad@UAlbertaBot@@ABEPAVUnitInterface@BWAPI@@ABV?$Point@H$00@4@@Z 1008ba20 f   Squad.obj
 0001:0008b0f0       ?clear@Squad@UAlbertaBot@@QAEXXZ 1008c0f0 f   Squad.obj
 0001:0008b1b0       ?unitClosestToPosition@Squad@UAlbertaBot@@ABEPAVUnitInterface@BWAPI@@ABV?$Point@H$00@4@ABVUnitset@4@@Z 1008c1b0 f   Squad.obj
 0001:0008b450       ?setOrder@Squad@UAlbertaBot@@QAEXAAVSquadOrder@2@@Z 1008c450 f   Squad.obj
 0001:0008b4e0       ?maybeWatch@Squad@UAlbertaBot@@AAE_NXZ 1008c4e0 f   Squad.obj
 0001:0008b7e0       ?loadTransport@Squad@UAlbertaBot@@AAEXXZ 1008c7e0 f   Squad.obj
 0001:0008b9e0       ?stimIfNeeded@Squad@UAlbertaBot@@AAEXXZ 1008c9e0 f   Squad.obj
 0001:0008bdb0       ?drawCluster@Squad@UAlbertaBot@@ABEXABVUnitCluster@2@@Z 1008cdb0 f   Squad.obj
 0001:0008bfc0       ??$?HDU?$char_traits@D@std@@V?$allocator@D@1@@std@@YA?AV?$basic_string@DU?$char_traits@D@std@@V?$allocator@D@2@@0@D$$QAV10@@Z 1008cfc0 f i Squad.obj
 0001:0008c070       ??$_Reallocate_grow_by@V<lambda_6607a66f2a10a1261ff9db96cba1015b>@@IID@?$basic_string@DU?$char_traits@D@std@@V?$allocator@D@2@@std@@QAEAAV01@IV<lambda_6607a66f2a10a1261ff9db96cba1015b>@@IID@Z 1008d070 f i Squad.obj
 0001:0008c1a0       ??$_Buynode@ABUpiecewise_construct_t@std@@V?$tuple@ABQAVUnitInterface@BWAPI@@@2@V?$tuple@$$V@2@@?$_Tree_comp_alloc@V?$_Tmap_traits@PAVUnitInterface@BWAPI@@_NU?$less@PAVUnitInterface@BWAPI@@@std@@V?$allocator@U?$pair@QAVUnitInterface@BWAPI@@_N@std@@@4@$0A@@std@@@std@@QAEPAU?$_Tree_node@U?$pair@QAVUnitInterface@BWAPI@@_N@std@@PAX@1@ABUpiecewise_construct_t@1@$$QAV?$tuple@ABQAVUnitInterface@BWAPI@@@1@$$QAV?$tuple@$$V@1@@Z 1008d1a0 f i Squad.obj
 0001:0008c1c0       ??$_Insert_hint@AAU?$pair@QAVUnitInterface@BWAPI@@W4WorkerJob@WorkerData@UAlbertaBot@@@std@@PAU?$_Tree_node@U?$pair@QAVUnitInterface@BWAPI@@W4WorkerJob@WorkerData@UAlbertaBot@@@std@@PAX@2@@?$_Tree@V?$_Tmap_traits@PAVUnitInterface@BWAPI@@W4WorkerJob@WorkerData@UAlbertaBot@@U?$less@PAVUnitInterface@BWAPI@@@std@@V?$allocator@U?$pair@QAVUnitInterface@BWAPI@@W4WorkerJob@WorkerData@UAlbertaBot@@@std@@@7@$0A@@std@@@std@@IAE?AV?$_Tree_iterator@V?$_Tree_val@U?$_Tree_simple_types@U?$pair@QAVUnitInterface@BWAPI@@W4WorkerJob@WorkerData@UAlbertaBot@@@std@@@std@@@std@@@1@V?$_Tree_const_iterator@V?$_Tree_val@U?$_Tree_simple_types@U?$pair@QAVUnitInterface@BWAPI@@W4WorkerJob@WorkerData@UAlbertaBot@@@std@@@std@@@std@@@1@AAU?$pair@QAVUnitInterface@BWAPI@@W4WorkerJob@WorkerData@UAlbertaBot@@@1@PAU?$_Tree_node@U?$pair@QAVUnitInterface@BWAPI@@W4WorkerJob@WorkerData@UAlbertaBot@@@std@@PAX@1@@Z 1008d1c0 f i WorkerData.obj
 0001:0008c1c0       ??$_Insert_hint@AAU?$pair@QAVUnitInterface@BWAPI@@_N@std@@PAU?$_Tree_node@U?$pair@QAVUnitInterface@BWAPI@@_N@std@@PAX@2@@?$_Tree@V?$_Tmap_traits@PAVUnitInterface@BWAPI@@_NU?$less@PAVUnitInterface@BWAPI@@@std@@V?$allocator@U?$pair@QAVUnitInterface@BWAPI@@_N@std@@@4@$0A@@std@@@std@@IAE?AV?$_Tree_iterator@V?$_Tree_val@U?$_Tree_simple_types@U?$pair@QAVUnitInterface@BWAPI@@_N@std@@@std@@@std@@@1@V?$_Tree_const_iterator@V?$_Tree_val@U?$_Tree_simple_types@U?$pair@QAVUnitInterface@BWAPI@@_N@std@@@std@@@std@@@1@AAU?$pair@QAVUnitInterface@BWAPI@@_N@1@PAU?$_Tree_node@U?$pair@QAVUnitInterface@BWAPI@@_N@std@@PAX@1@@Z 1008d1c0 f i Squad.obj
 0001:0008c450       ??$_Insert_nohint@AAU?$pair@QAVUnitInterface@BWAPI@@_N@std@@PAU?$_Tree_node@U?$pair@QAVUnitInterface@BWAPI@@_N@std@@PAX@2@@?$_Tree@V?$_Tmap_traits@PAVUnitInterface@BWAPI@@_NU?$less@PAVUnitInterface@BWAPI@@@std@@V?$allocator@U?$pair@QAVUnitInterface@BWAPI@@_N@std@@@4@$0A@@std@@@std@@IAE?AU?$pair@V?$_Tree_iterator@V?$_Tree_val@U?$_Tree_simple_types@U?$pair@QAVUnitInterface@BWAPI@@_N@std@@@std@@@std@@@std@@_N@1@_NAAU?$pair@QAVUnitInterface@BWAPI@@_N@1@PAU?$_Tree_node@U?$pair@QAVUnitInterface@BWAPI@@_N@std@@PAX@1@@Z 1008d450 f i Squad.obj
 0001:0008c450       ??$_Insert_nohint@AAU?$pair@QAVUnitInterface@BWAPI@@PAV12@@std@@PAU?$_Tree_node@U?$pair@QAVUnitInterface@BWAPI@@PAV12@@std@@PAX@2@@?$_Tree@V?$_Tmap_traits@PAVUnitInterface@BWAPI@@PAV12@U?$less@PAVUnitInterface@BWAPI@@@std@@V?$allocator@U?$pair@QAVUnitInterface@BWAPI@@PAV12@@std@@@4@$0A@@std@@@std@@IAE?AU?$pair@V?$_Tree_iterator@V?$_Tree_val@U?$_Tree_simple_types@U?$pair@QAVUnitInterface@BWAPI@@PAV12@@std@@@std@@@std@@@std@@_N@1@_NAAU?$pair@QAVUnitInterface@BWAPI@@PAV12@@1@PAU?$_Tree_node@U?$pair@QAVUnitInterface@BWAPI@@PAV12@@std@@PAX@1@@Z 1008d450 f i WorkerData.obj
 0001:0008c450       ??$_Insert_nohint@AAU?$pair@QAVUnitInterface@BWAPI@@H@std@@PAU?$_Tree_node@U?$pair@QAVUnitInterface@BWAPI@@H@std@@PAX@2@@?$_Tree@V?$_Tmap_traits@PAVUnitInterface@BWAPI@@HU?$less@PAVUnitInterface@BWAPI@@@std@@V?$allocator@U?$pair@QAVUnitInterface@BWAPI@@H@std@@@4@$0A@@std@@@std@@IAE?AU?$pair@V?$_Tree_iterator@V?$_Tree_val@U?$_Tree_simple_types@U?$pair@QAVUnitInterface@BWAPI@@H@std@@@std@@@std@@@std@@_N@1@_NAAU?$pair@QAVUnitInterface@BWAPI@@H@1@PAU?$_Tree_node@U?$pair@QAVUnitInterface@BWAPI@@H@std@@PAX@1@@Z 1008d450 f i WorkerData.obj
 0001:0008c450       ??$_Insert_nohint@AAU?$pair@QAVUnitInterface@BWAPI@@W4WorkerJob@WorkerData@UAlbertaBot@@@std@@PAU?$_Tree_node@U?$pair@QAVUnitInterface@BWAPI@@W4WorkerJob@WorkerData@UAlbertaBot@@@std@@PAX@2@@?$_Tree@V?$_Tmap_traits@PAVUnitInterface@BWAPI@@W4WorkerJob@WorkerData@UAlbertaBot@@U?$less@PAVUnitInterface@BWAPI@@@std@@V?$allocator@U?$pair@QAVUnitInterface@BWAPI@@W4WorkerJob@WorkerData@UAlbertaBot@@@std@@@7@$0A@@std@@@std@@IAE?AU?$pair@V?$_Tree_iterator@V?$_Tree_val@U?$_Tree_simple_types@U?$pair@QAVUnitInterface@BWAPI@@W4WorkerJob@WorkerData@UAlbertaBot@@@std@@@std@@@std@@@std@@_N@1@_NAAU?$pair@QAVUnitInterface@BWAPI@@W4WorkerJob@WorkerData@UAlbertaBot@@@1@PAU?$_Tree_node@U?$pair@QAVUnitInterface@BWAPI@@W4WorkerJob@WorkerData@UAlbertaBot@@@std@@PAX@1@@Z 1008d450 f i WorkerData.obj
 0001:0008c5c0       ?squadExists@SquadData@UAlbertaBot@@QAE_NABV?$basic_string@DU?$char_traits@D@std@@V?$allocator@D@2@@std@@@Z 1008d5c0 f   SquadData.obj
 0001:0008c620       ?drawSquadInformation@SquadData@UAlbertaBot@@QAEXHH@Z 1008d620 f   SquadData.obj
 0001:0008c8f0       ?getSquad@SquadData@UAlbertaBot@@QAEAAVSquad@2@ABV?$basic_string@DU?$char_traits@D@std@@V?$allocator@D@2@@std@@@Z 1008d8f0 f   SquadData.obj
 0001:0008c9b0       ?_Buyheadnode@?$_Tree_comp_alloc@V?$_Tmap_traits@V?$basic_string@DU?$char_traits@D@std@@V?$allocator@D@2@@std@@VSquad@UAlbertaBot@@U?$less@V?$basic_string@DU?$char_traits@D@std@@V?$allocator@D@2@@std@@@2@V?$allocator@U?$pair@$$CBV?$basic_string@DU?$char_traits@D@std@@V?$allocator@D@2@@std@@VSquad@UAlbertaBot@@@std@@@2@$0A@@std@@@std@@QAEPAU?$_Tree_node@U?$pair@$$CBV?$basic_string@DU?$char_traits@D@std@@V?$allocator@D@2@@std@@VSquad@UAlbertaBot@@@std@@PAX@2@XZ 1008d9b0 f i SquadData.obj
 0001:0008c9d0       ??$_Buynode@ABV?$basic_string@DU?$char_traits@D@std@@V?$allocator@D@2@@std@@VSquad@UAlbertaBot@@@?$_Tree_comp_alloc@V?$_Tmap_traits@V?$basic_string@DU?$char_traits@D@std@@V?$allocator@D@2@@std@@VSquad@UAlbertaBot@@U?$less@V?$basic_string@DU?$char_traits@D@std@@V?$allocator@D@2@@std@@@2@V?$allocator@U?$pair@$$CBV?$basic_string@DU?$char_traits@D@std@@V?$allocator@D@2@@std@@VSquad@UAlbertaBot@@@std@@@2@$0A@@std@@@std@@QAEPAU?$_Tree_node@U?$pair@$$CBV?$basic_string@DU?$char_traits@D@std@@V?$allocator@D@2@@std@@VSquad@UAlbertaBot@@@std@@PAX@1@ABV?$basic_string@DU?$char_traits@D@std@@V?$allocator@D@2@@1@$$QAVSquad@UAlbertaBot@@@Z 1008d9d0 f i SquadData.obj
 0001:0008ca60       ??$_Insert_nohint@AAU?$pair@$$CBV?$basic_string@DU?$char_traits@D@std@@V?$allocator@D@2@@std@@VSquad@UAlbertaBot@@@std@@PAU?$_Tree_node@U?$pair@$$CBV?$basic_string@DU?$char_traits@D@std@@V?$allocator@D@2@@std@@VSquad@UAlbertaBot@@@std@@PAX@2@@?$_Tree@V?$_Tmap_traits@V?$basic_string@DU?$char_traits@D@std@@V?$allocator@D@2@@std@@VSquad@UAlbertaBot@@U?$less@V?$basic_string@DU?$char_traits@D@std@@V?$allocator@D@2@@std@@@2@V?$allocator@U?$pair@$$CBV?$basic_string@DU?$char_traits@D@std@@V?$allocator@D@2@@std@@VSquad@UAlbertaBot@@@std@@@2@$0A@@std@@@std@@IAE?AU?$pair@V?$_Tree_iterator@V?$_Tree_val@U?$_Tree_simple_types@U?$pair@$$CBV?$basic_string@DU?$char_traits@D@std@@V?$allocator@D@2@@std@@VSquad@UAlbertaBot@@@std@@@std@@@std@@@std@@_N@1@_NAAU?$pair@$$CBV?$basic_string@DU?$char_traits@D@std@@V?$allocator@D@2@@std@@VSquad@UAlbertaBot@@@1@PAU?$_Tree_node@U?$pair@$$CBV?$basic_string@DU?$char_traits@D@std@@V?$allocator@D@2@@std@@VSquad@UAlbertaBot@@@std@@PAX@1@@Z 1008da60 f i SquadData.obj
 0001:0008cc10       ?_Freenode0@?$_Tree_comp_alloc@V?$_Tmap_traits@V?$basic_string@DU?$char_traits@D@std@@V?$allocator@D@2@@std@@VSquad@UAlbertaBot@@U?$less@V?$basic_string@DU?$char_traits@D@std@@V?$allocator@D@2@@std@@@2@V?$allocator@U?$pair@$$CBV?$basic_string@DU?$char_traits@D@std@@V?$allocator@D@2@@std@@VSquad@UAlbertaBot@@@std@@@2@$0A@@std@@@std@@QAEXPAU?$_Tree_node@U?$pair@$$CBV?$basic_string@DU?$char_traits@D@std@@V?$allocator@D@2@@std@@VSquad@UAlbertaBot@@@std@@PAX@2@@Z 1008dc10 f i SquadData.obj
 0001:0008cc30       ?_Buynode0@?$_Tree_comp_alloc@V?$_Tmap_traits@V?$basic_string@DU?$char_traits@D@std@@V?$allocator@D@2@@std@@VSquad@UAlbertaBot@@U?$less@V?$basic_string@DU?$char_traits@D@std@@V?$allocator@D@2@@std@@@2@V?$allocator@U?$pair@$$CBV?$basic_string@DU?$char_traits@D@std@@V?$allocator@D@2@@std@@VSquad@UAlbertaBot@@@std@@@2@$0A@@std@@@std@@QAEPAU?$_Tree_node@U?$pair@$$CBV?$basic_string@DU?$char_traits@D@std@@V?$allocator@D@2@@std@@VSquad@UAlbertaBot@@@std@@PAX@2@XZ 1008dc30 f i SquadData.obj
 0001:0008cc50       ?_Destroy_if_node@?$_Tree@V?$_Tmap_traits@V?$basic_string@DU?$char_traits@D@std@@V?$allocator@D@2@@std@@VSquad@UAlbertaBot@@U?$less@V?$basic_string@DU?$char_traits@D@std@@V?$allocator@D@2@@std@@@2@V?$allocator@U?$pair@$$CBV?$basic_string@DU?$char_traits@D@std@@V?$allocator@D@2@@std@@VSquad@UAlbertaBot@@@std@@@2@$0A@@std@@@std@@IAEXPAU?$_Tree_node@U?$pair@$$CBV?$basic_string@DU?$char_traits@D@std@@V?$allocator@D@2@@std@@VSquad@UAlbertaBot@@@std@@PAX@2@@Z 1008dc50 f i SquadData.obj
 0001:0008cc80       ??$_Insert_at@AAU?$pair@$$CBV?$basic_string@DU?$char_traits@D@std@@V?$allocator@D@2@@std@@VSquad@UAlbertaBot@@@std@@PAU?$_Tree_node@U?$pair@$$CBV?$basic_string@DU?$char_traits@D@std@@V?$allocator@D@2@@std@@VSquad@UAlbertaBot@@@std@@PAX@2@@?$_Tree@V?$_Tmap_traits@V?$basic_string@DU?$char_traits@D@std@@V?$allocator@D@2@@std@@VSquad@UAlbertaBot@@U?$less@V?$basic_string@DU?$char_traits@D@std@@V?$allocator@D@2@@std@@@2@V?$allocator@U?$pair@$$CBV?$basic_string@DU?$char_traits@D@std@@V?$allocator@D@2@@std@@VSquad@UAlbertaBot@@@std@@@2@$0A@@std@@@std@@IAE?AV?$_Tree_iterator@V?$_Tree_val@U?$_Tree_simple_types@U?$pair@$$CBV?$basic_string@DU?$char_traits@D@std@@V?$allocator@D@2@@std@@VSquad@UAlbertaBot@@@std@@@std@@@std@@@1@_NPAU?$_Tree_node@U?$pair@$$CBV?$basic_string@DU?$char_traits@D@std@@V?$allocator@D@2@@std@@VSquad@UAlbertaBot@@@std@@PAX@1@AAU?$pair@$$CBV?$basic_string@DU?$char_traits@D@std@@V?$allocator@D@2@@std@@VSquad@UAlbertaBot@@@1@1@Z 1008dc80 f i SquadData.obj
 0001:0008ceb0       ??$_Buynode@ABUpiecewise_construct_t@std@@V?$tuple@ABV?$basic_string@DU?$char_traits@D@std@@V?$allocator@D@2@@std@@@2@V?$tuple@$$V@2@@?$_Tree_comp_alloc@V?$_Tmap_traits@V?$basic_string@DU?$char_traits@D@std@@V?$allocator@D@2@@std@@VSquad@UAlbertaBot@@U?$less@V?$basic_string@DU?$char_traits@D@std@@V?$allocator@D@2@@std@@@2@V?$allocator@U?$pair@$$CBV?$basic_string@DU?$char_traits@D@std@@V?$allocator@D@2@@std@@VSquad@UAlbertaBot@@@std@@@2@$0A@@std@@@std@@QAEPAU?$_Tree_node@U?$pair@$$CBV?$basic_string@DU?$char_traits@D@std@@V?$allocator@D@2@@std@@VSquad@UAlbertaBot@@@std@@PAX@1@ABUpiecewise_construct_t@1@$$QAV?$tuple@ABV?$basic_string@DU?$char_traits@D@std@@V?$allocator@D@2@@std@@@1@$$QAV?$tuple@$$V@1@@Z 1008deb0 f i SquadData.obj
 0001:0008cf40       ??$_Insert_hint@AAU?$pair@$$CBV?$basic_string@DU?$char_traits@D@std@@V?$allocator@D@2@@std@@VSquad@UAlbertaBot@@@std@@PAU?$_Tree_node@U?$pair@$$CBV?$basic_string@DU?$char_traits@D@std@@V?$allocator@D@2@@std@@VSquad@UAlbertaBot@@@std@@PAX@2@@?$_Tree@V?$_Tmap_traits@V?$basic_string@DU?$char_traits@D@std@@V?$allocator@D@2@@std@@VSquad@UAlbertaBot@@U?$less@V?$basic_string@DU?$char_traits@D@std@@V?$allocator@D@2@@std@@@2@V?$allocator@U?$pair@$$CBV?$basic_string@DU?$char_traits@D@std@@V?$allocator@D@2@@std@@VSquad@UAlbertaBot@@@std@@@2@$0A@@std@@@std@@IAE?AV?$_Tree_iterator@V?$_Tree_val@U?$_Tree_simple_types@U?$pair@$$CBV?$basic_string@DU?$char_traits@D@std@@V?$allocator@D@2@@std@@VSquad@UAlbertaBot@@@std@@@std@@@std@@@1@V?$_Tree_const_iterator@V?$_Tree_val@U?$_Tree_simple_types@U?$pair@$$CBV?$basic_string@DU?$char_traits@D@std@@V?$allocator@D@2@@std@@VSquad@UAlbertaBot@@@std@@@std@@@std@@@1@AAU?$pair@$$CBV?$basic_string@DU?$char_traits@D@std@@V?$allocator@D@2@@std@@VSquad@UAlbertaBot@@@1@PAU?$_Tree_node@U?$pair@$$CBV?$basic_string@DU?$char_traits@D@std@@V?$allocator@D@2@@std@@VSquad@UAlbertaBot@@@std@@PAX@1@@Z 1008df40 f i SquadData.obj
 0001:0008d290       ??0Squad@UAlbertaBot@@QAE@ABV01@@Z 1008e290 f i SquadData.obj
 0001:0008d6d0       ??0MicroManager@UAlbertaBot@@QAE@ABV01@@Z 1008e6d0 f i SquadData.obj
 0001:0008d790       ??0?$vector@V?$Point@H$00@BWAPI@@V?$allocator@V?$Point@H$00@BWAPI@@@std@@@std@@QAE@ABV01@@Z 1008e790 f i SquadData.obj
 0001:0008d790       ??0?$vector@V?$Point@H$0CA@@BWAPI@@V?$allocator@V?$Point@H$0CA@@BWAPI@@@std@@@std@@QAE@ABV01@@Z 1008e790 f i SquadOrder.obj
 0001:0008d860       ??0?$vector@VUnitCluster@UAlbertaBot@@V?$allocator@VUnitCluster@UAlbertaBot@@@std@@@std@@QAE@ABV01@@Z 1008e860 f i SquadData.obj
 0001:0008d970       ??$?0V?$allocator@U?$_Tree_node@U?$pair@QAVUnitInterface@BWAPI@@_N@std@@PAX@std@@@std@@@?$_Tree@V?$_Tmap_traits@PAVUnitInterface@BWAPI@@_NU?$less@PAVUnitInterface@BWAPI@@@std@@V?$allocator@U?$pair@QAVUnitInterface@BWAPI@@_N@std@@@4@$0A@@std@@@std@@QAE@ABV01@$$QAV?$allocator@U?$_Tree_node@U?$pair@QAVUnitInterface@BWAPI@@_N@std@@PAX@std@@@1@@Z 1008e970 f i SquadData.obj
 0001:0008da50       ??$?0V?$allocator@U?$_Tree_node@U?$pair@QAVUnitInterface@BWAPI@@V?$Point@H$0CA@@2@@std@@PAX@std@@@std@@@?$_Tree@V?$_Tmap_traits@PAVUnitInterface@BWAPI@@V?$Point@H$0CA@@2@U?$less@PAVUnitInterface@BWAPI@@@std@@V?$allocator@U?$pair@QAVUnitInterface@BWAPI@@V?$Point@H$0CA@@2@@std@@@5@$0A@@std@@@std@@QAE@ABV01@$$QAV?$allocator@U?$_Tree_node@U?$pair@QAVUnitInterface@BWAPI@@V?$Point@H$0CA@@2@@std@@PAX@std@@@1@@Z 1008ea50 f i SquadData.obj
 0001:0008db30       ??$?0V?$allocator@U?$_Tree_node@U?$pair@QAVUnitInterface@BWAPI@@VCasterState@UAlbertaBot@@@std@@PAX@std@@@std@@@?$_Tree@V?$_Tmap_traits@PAVUnitInterface@BWAPI@@VCasterState@UAlbertaBot@@U?$less@PAVUnitInterface@BWAPI@@@std@@V?$allocator@U?$pair@QAVUnitInterface@BWAPI@@VCasterState@UAlbertaBot@@@std@@@6@$0A@@std@@@std@@QAE@ABV01@$$QAV?$allocator@U?$_Tree_node@U?$pair@QAVUnitInterface@BWAPI@@VCasterState@UAlbertaBot@@@std@@PAX@std@@@1@@Z 1008eb30 f i SquadData.obj
 0001:0008dc10       ??$_Copy_nodes@U_Copy_tag@?$_Tree@V?$_Tmap_traits@PAVUnitInterface@BWAPI@@V?$Point@H$0CA@@2@U?$less@PAVUnitInterface@BWAPI@@@std@@V?$allocator@U?$pair@QAVUnitInterface@BWAPI@@V?$Point@H$0CA@@2@@std@@@5@$0A@@std@@@std@@@?$_Tree@V?$_Tmap_traits@PAVUnitInterface@BWAPI@@V?$Point@H$0CA@@2@U?$less@PAVUnitInterface@BWAPI@@@std@@V?$allocator@U?$pair@QAVUnitInterface@BWAPI@@V?$Point@H$0CA@@2@@std@@@5@$0A@@std@@@std@@IAEPAU?$_Tree_node@U?$pair@QAVUnitInterface@BWAPI@@V?$Point@H$0CA@@2@@std@@PAX@1@PAU21@0U_Copy_tag@01@@Z 1008ec10 f i SquadData.obj
 0001:0008dcd0       ??$_Copy_nodes@U_Copy_tag@?$_Tree@V?$_Tmap_traits@PAVUnitInterface@BWAPI@@VCasterState@UAlbertaBot@@U?$less@PAVUnitInterface@BWAPI@@@std@@V?$allocator@U?$pair@QAVUnitInterface@BWAPI@@VCasterState@UAlbertaBot@@@std@@@6@$0A@@std@@@std@@@?$_Tree@V?$_Tmap_traits@PAVUnitInterface@BWAPI@@VCasterState@UAlbertaBot@@U?$less@PAVUnitInterface@BWAPI@@@std@@V?$allocator@U?$pair@QAVUnitInterface@BWAPI@@VCasterState@UAlbertaBot@@@std@@@6@$0A@@std@@@std@@IAEPAU?$_Tree_node@U?$pair@QAVUnitInterface@BWAPI@@VCasterState@UAlbertaBot@@@std@@PAX@1@PAU21@0U_Copy_tag@01@@Z 1008ecd0 f i SquadData.obj
 0001:0008dd90       ??$_Buynode@AAU?$pair@QAVUnitInterface@BWAPI@@V?$Point@H$0CA@@2@@std@@@?$_Tree_comp_alloc@V?$_Tmap_traits@PAVUnitInterface@BWAPI@@V?$Point@H$0CA@@2@U?$less@PAVUnitInterface@BWAPI@@@std@@V?$allocator@U?$pair@QAVUnitInterface@BWAPI@@V?$Point@H$0CA@@2@@std@@@5@$0A@@std@@@std@@QAEPAU?$_Tree_node@U?$pair@QAVUnitInterface@BWAPI@@V?$Point@H$0CA@@2@@std@@PAX@1@AAU?$pair@QAVUnitInterface@BWAPI@@V?$Point@H$0CA@@2@@1@@Z 1008ed90 f i SquadData.obj
 0001:0008ddc0       ??$_Buynode@AAU?$pair@QAVUnitInterface@BWAPI@@VCasterState@UAlbertaBot@@@std@@@?$_Tree_comp_alloc@V?$_Tmap_traits@PAVUnitInterface@BWAPI@@VCasterState@UAlbertaBot@@U?$less@PAVUnitInterface@BWAPI@@@std@@V?$allocator@U?$pair@QAVUnitInterface@BWAPI@@VCasterState@UAlbertaBot@@@std@@@6@$0A@@std@@@std@@QAEPAU?$_Tree_node@U?$pair@QAVUnitInterface@BWAPI@@VCasterState@UAlbertaBot@@@std@@PAX@1@AAU?$pair@QAVUnitInterface@BWAPI@@VCasterState@UAlbertaBot@@@1@@Z 1008edc0 f i SquadData.obj
 0001:0008dde0       ??0GridDistances@UAlbertaBot@@QAE@ABV01@@Z 1008ede0 f i SquadOrder.obj
 0001:0008de60       ??4SquadOrder@UAlbertaBot@@QAEAAV01@$$QAV01@@Z 1008ee60 f   SquadOrder.obj
 0001:0008df00       ??1SquadOrder@UAlbertaBot@@QAE@XZ 1008ef00 f   SquadOrder.obj
 0001:0008dfc0       ??0?$vector@V?$vector@FV?$allocator@F@std@@@std@@V?$allocator@V?$vector@FV?$allocator@F@std@@@std@@@2@@std@@QAE@ABV01@@Z 1008efc0 f i SquadOrder.obj
 0001:0008e090       ??1?$map@V?$basic_string@DU?$char_traits@D@std@@V?$allocator@D@2@@std@@UStrategy@UAlbertaBot@@U?$less@V?$basic_string@DU?$char_traits@D@std@@V?$allocator@D@2@@std@@@2@V?$allocator@U?$pair@$$CBV?$basic_string@DU?$char_traits@D@std@@V?$allocator@D@2@@std@@UStrategy@UAlbertaBot@@@std@@@2@@std@@QAE@XZ 1008f090 f i StrategyManager.obj
 0001:0008e0c0       ?Instance@StrategyManager@UAlbertaBot@@SAAAV12@XZ 1008f0c0 f   StrategyManager.obj
 0001:0008e240       ?performBuildOrderSearch@StrategyManager@UAlbertaBot@@AAEXXZ 1008f240 f   StrategyManager.obj
 0001:0008e3f0       ?erase@?$_Tree@V?$_Tmap_traits@V?$basic_string@DU?$char_traits@D@std@@V?$allocator@D@2@@std@@UStrategy@UAlbertaBot@@U?$less@V?$basic_string@DU?$char_traits@D@std@@V?$allocator@D@2@@std@@@2@V?$allocator@U?$pair@$$CBV?$basic_string@DU?$char_traits@D@std@@V?$allocator@D@2@@std@@UStrategy@UAlbertaBot@@@std@@@2@$0A@@std@@@std@@QAE?AV?$_Tree_iterator@V?$_Tree_val@U?$_Tree_simple_types@U?$pair@$$CBV?$basic_string@DU?$char_traits@D@std@@V?$allocator@D@2@@std@@UStrategy@UAlbertaBot@@@std@@@std@@@std@@@2@V?$_Tree_const_iterator@V?$_Tree_val@U?$_Tree_simple_types@U?$pair@$$CBV?$basic_string@DU?$char_traits@D@std@@V?$allocator@D@2@@std@@UStrategy@UAlbertaBot@@@std@@@std@@@std@@@2@0@Z 1008f3f0 f i StrategyManager.obj
 0001:0008e590       ?_Buyheadnode@?$_Tree_comp_alloc@V?$_Tmap_traits@V?$basic_string@DU?$char_traits@D@std@@V?$allocator@D@2@@std@@UStrategy@UAlbertaBot@@U?$less@V?$basic_string@DU?$char_traits@D@std@@V?$allocator@D@2@@std@@@2@V?$allocator@U?$pair@$$CBV?$basic_string@DU?$char_traits@D@std@@V?$allocator@D@2@@std@@UStrategy@UAlbertaBot@@@std@@@2@$0A@@std@@@std@@QAEPAU?$_Tree_node@U?$pair@$$CBV?$basic_string@DU?$char_traits@D@std@@V?$allocator@D@2@@std@@UStrategy@UAlbertaBot@@@std@@PAX@2@XZ 1008f590 f i StrategyManager.obj
 0001:0008e5b0       ?_Erase@?$_Tree@V?$_Tmap_traits@V?$basic_string@DU?$char_traits@D@std@@V?$allocator@D@2@@std@@UStrategy@UAlbertaBot@@U?$less@V?$basic_string@DU?$char_traits@D@std@@V?$allocator@D@2@@std@@@2@V?$allocator@U?$pair@$$CBV?$basic_string@DU?$char_traits@D@std@@V?$allocator@D@2@@std@@UStrategy@UAlbertaBot@@@std@@@2@$0A@@std@@@std@@IAEXPAU?$_Tree_node@U?$pair@$$CBV?$basic_string@DU?$char_traits@D@std@@V?$allocator@D@2@@std@@UStrategy@UAlbertaBot@@@std@@PAX@2@@Z 1008f5b0 f i StrategyManager.obj
 0001:0008e640       ??$_Lbound@V?$basic_string@DU?$char_traits@D@std@@V?$allocator@D@2@@std@@@?$_Tree@V?$_Tmap_traits@V?$basic_string@DU?$char_traits@D@std@@V?$allocator@D@2@@std@@UStrategy@UAlbertaBot@@U?$less@V?$basic_string@DU?$char_traits@D@std@@V?$allocator@D@2@@std@@@2@V?$allocator@U?$pair@$$CBV?$basic_string@DU?$char_traits@D@std@@V?$allocator@D@2@@std@@UStrategy@UAlbertaBot@@@std@@@2@$0A@@std@@@std@@IBEPAU?$_Tree_node@U?$pair@$$CBV?$basic_string@DU?$char_traits@D@std@@V?$allocator@D@2@@std@@UStrategy@UAlbertaBot@@@std@@PAX@1@ABV?$basic_string@DU?$char_traits@D@std@@V?$allocator@D@2@@1@@Z 1008f640 f i StrategyManager.obj
 0001:0008e6b0       ??1Strategy@UAlbertaBot@@QAE@XZ 1008f6b0 f i StrategyManager.obj
 0001:0008e750       ??0The@UAlbertaBot@@QAE@XZ 1008f750 f   The.obj
 0001:0008ed50       ?initialize@The@UAlbertaBot@@QAEXXZ 1008fd50 f   The.obj
 0001:0008f050       ?attacks@The@UAlbertaBot@@QBEHPAVUnitInterface@BWAPI@@@Z 10090050 f   The.obj
 0001:0008f0e0       ?update@The@UAlbertaBot@@QAEXXZ 100900e0 f   The.obj
 0001:0008f2e0       ??0TimerManager@UAlbertaBot@@QAE@XZ 100902e0 f   TimerManager.obj
 0001:0008fa70       ?drawModuleTimers@TimerManager@UAlbertaBot@@QAEXHH@Z 10090a70 f   TimerManager.obj
 0001:0008fd10       ??0?$vector@VTimer@BOSS@@V?$allocator@VTimer@BOSS@@@std@@@std@@QAE@IABV?$allocator@VTimer@BOSS@@@1@@Z 10090d10 f i TimerManager.obj
 0001:0008fda0       ?ReportFailure@Assert@UAlbertaBot@@YAXPBDH0ZZ 10090da0 f   UABAssert.obj
 0001:000901d0       ??_GUAlbertaBotModule@UAlbertaBot@@UAEPAXI@Z 100911d0 f i UAlbertaBotModule.obj
 0001:000901d0       ??_EUAlbertaBotModule@UAlbertaBot@@UAEPAXI@Z 100911d0 f i * CIL library *:* CIL module *
 0001:00090200       ?onStart@UAlbertaBotModule@UAlbertaBot@@UAEXXZ 10091200 f   UAlbertaBotModule.obj
 0001:00090450       ?onEnd@UAlbertaBotModule@UAlbertaBot@@UAEX_N@Z 10091450 f   UAlbertaBotModule.obj
 0001:000905a0       ?onFrame@UAlbertaBotModule@UAlbertaBot@@UAEXXZ 100915a0 f   UAlbertaBotModule.obj
 0001:000905b0       ?onUnitDestroy@UAlbertaBotModule@UAlbertaBot@@UAEXPAVUnitInterface@BWAPI@@@Z 100915b0 f   UAlbertaBotModule.obj
 0001:00090630       ?onUnitMorph@UAlbertaBotModule@UAlbertaBot@@UAEXPAVUnitInterface@BWAPI@@@Z 10091630 f   UAlbertaBotModule.obj
 0001:00090790       ?onSendText@UAlbertaBotModule@UAlbertaBot@@UAEXV?$basic_string@DU?$char_traits@D@std@@V?$allocator@D@2@@std@@@Z 10091790 f   UAlbertaBotModule.obj
 0001:00090810       ?onUnitCreate@UAlbertaBotModule@UAlbertaBot@@UAEXPAVUnitInterface@BWAPI@@@Z 10091810 f   UAlbertaBotModule.obj
 0001:000908c0       ?onUnitComplete@UAlbertaBotModule@UAlbertaBot@@UAEXPAVUnitInterface@BWAPI@@@Z 100918c0 f   UAlbertaBotModule.obj
 0001:000909d0       ?onUnitShow@UAlbertaBotModule@UAlbertaBot@@UAEXPAVUnitInterface@BWAPI@@@Z 100919d0 f   UAlbertaBotModule.obj
 0001:00090ae0       ?onUnitHide@UAlbertaBotModule@UAlbertaBot@@UAEXPAVUnitInterface@BWAPI@@@Z 10091ae0 f   UAlbertaBotModule.obj
 0001:00090b40       ?onUnitRenegade@UAlbertaBotModule@UAlbertaBot@@UAEXPAVUnitInterface@BWAPI@@@Z 10091b40 f   UAlbertaBotModule.obj
 0001:00090bf0       ??0UnitInfo@UAlbertaBot@@QAE@PAVUnitInterface@BWAPI@@@Z 10091bf0 f   UnitData.obj
 0001:00090ce0       ?estimateHP@UnitInfo@UAlbertaBot@@QBEHXZ 10091ce0 f   UnitData.obj
 0001:00090d70       ?estimateShields@UnitInfo@UAlbertaBot@@QBEHXZ 10091d70 f   UnitData.obj
 0001:00090e00       ?predictCompletion@UnitInfo@UAlbertaBot@@QBEHXZ 10091e00 f   UnitData.obj
 0001:00090f50       ??0UnitData@UAlbertaBot@@QAE@XZ 10091f50 f   UnitData.obj
 0001:000910c0       ?updateUnit@UnitData@UAlbertaBot@@QAEXPAVUnitInterface@BWAPI@@@Z 100920c0 f   UnitData.obj
 0001:00091350       ?removeBadUnits@UnitData@UAlbertaBot@@QAEXXZ 10092350 f   UnitData.obj
 0001:00091450       ??A?$map@PAVUnitInterface@BWAPI@@UUnitInfo@UAlbertaBot@@U?$less@PAVUnitInterface@BWAPI@@@std@@V?$allocator@U?$pair@QAVUnitInterface@BWAPI@@UUnitInfo@UAlbertaBot@@@std@@@6@@std@@QAEAAUUnitInfo@UAlbertaBot@@ABQAVUnitInterface@BWAPI@@@Z 10092450 f i UnitData.obj
 0001:000914c0       ?_Buyheadnode@?$_Tree_comp_alloc@V?$_Tmap_traits@PAVUnitInterface@BWAPI@@UUnitInfo@UAlbertaBot@@U?$less@PAVUnitInterface@BWAPI@@@std@@V?$allocator@U?$pair@QAVUnitInterface@BWAPI@@UUnitInfo@UAlbertaBot@@@std@@@6@$0A@@std@@@std@@QAEPAU?$_Tree_node@U?$pair@QAVUnitInterface@BWAPI@@UUnitInfo@UAlbertaBot@@@std@@PAX@2@XZ 100924c0 f i UnitData.obj
 0001:000914e0       ??$_Buynode@ABUpiecewise_construct_t@std@@V?$tuple@ABQAVUnitInterface@BWAPI@@@2@V?$tuple@$$V@2@@?$_Tree_comp_alloc@V?$_Tmap_traits@PAVUnitInterface@BWAPI@@UUnitInfo@UAlbertaBot@@U?$less@PAVUnitInterface@BWAPI@@@std@@V?$allocator@U?$pair@QAVUnitInterface@BWAPI@@UUnitInfo@UAlbertaBot@@@std@@@6@$0A@@std@@@std@@QAEPAU?$_Tree_node@U?$pair@QAVUnitInterface@BWAPI@@UUnitInfo@UAlbertaBot@@@std@@PAX@1@ABUpiecewise_construct_t@1@$$QAV?$tuple@ABQAVUnitInterface@BWAPI@@@1@$$QAV?$tuple@$$V@1@@Z 100924e0 f i UnitData.obj
 0001:00091560       ??$_Insert_hint@AAU?$pair@QAVUnitInterface@BWAPI@@UUnitInfo@UAlbertaBot@@@std@@PAU?$_Tree_node@U?$pair@QAVUnitInterface@BWAPI@@UUnitInfo@UAlbertaBot@@@std@@PAX@2@@?$_Tree@V?$_Tmap_traits@PAVUnitInterface@BWAPI@@UUnitInfo@UAlbertaBot@@U?$less@PAVUnitInterface@BWAPI@@@std@@V?$allocator@U?$pair@QAVUnitInterface@BWAPI@@UUnitInfo@UAlbertaBot@@@std@@@6@$0A@@std@@@std@@IAE?AV?$_Tree_iterator@V?$_Tree_val@U?$_Tree_simple_types@U?$pair@QAVUnitInterface@BWAPI@@UUnitInfo@UAlbertaBot@@@std@@@std@@@std@@@1@V?$_Tree_const_iterator@V?$_Tree_val@U?$_Tree_simple_types@U?$pair@QAVUnitInterface@BWAPI@@UUnitInfo@UAlbertaBot@@@std@@@std@@@std@@@1@AAU?$pair@QAVUnitInterface@BWAPI@@UUnitInfo@UAlbertaBot@@@1@PAU?$_Tree_node@U?$pair@QAVUnitInterface@BWAPI@@UUnitInfo@UAlbertaBot@@@std@@PAX@1@@Z 10092560 f i UnitData.obj
 0001:000917c0       ?_Buynode0@?$_Tree_comp_alloc@V?$_Tmap_traits@PAVUnitInterface@BWAPI@@UUnitInfo@UAlbertaBot@@U?$less@PAVUnitInterface@BWAPI@@@std@@V?$allocator@U?$pair@QAVUnitInterface@BWAPI@@UUnitInfo@UAlbertaBot@@@std@@@6@$0A@@std@@@std@@QAEPAU?$_Tree_node@U?$pair@QAVUnitInterface@BWAPI@@UUnitInfo@UAlbertaBot@@@std@@PAX@2@XZ 100927c0 f i UnitData.obj
 0001:000917e0       ?_Destroy_if_node@?$_Tree@V?$_Tmap_traits@PAVUnitInterface@BWAPI@@UUnitInfo@UAlbertaBot@@U?$less@PAVUnitInterface@BWAPI@@@std@@V?$allocator@U?$pair@QAVUnitInterface@BWAPI@@UUnitInfo@UAlbertaBot@@@std@@@6@$0A@@std@@@std@@IAEXPAU?$_Tree_node@U?$pair@QAVUnitInterface@BWAPI@@UUnitInfo@UAlbertaBot@@@std@@PAX@2@@Z 100927e0 f i UnitData.obj
 0001:00091800       ??$_Insert_at@AAU?$pair@QAVUnitInterface@BWAPI@@UUnitInfo@UAlbertaBot@@@std@@PAU?$_Tree_node@U?$pair@QAVUnitInterface@BWAPI@@UUnitInfo@UAlbertaBot@@@std@@PAX@2@@?$_Tree@V?$_Tmap_traits@PAVUnitInterface@BWAPI@@UUnitInfo@UAlbertaBot@@U?$less@PAVUnitInterface@BWAPI@@@std@@V?$allocator@U?$pair@QAVUnitInterface@BWAPI@@UUnitInfo@UAlbertaBot@@@std@@@6@$0A@@std@@@std@@IAE?AV?$_Tree_iterator@V?$_Tree_val@U?$_Tree_simple_types@U?$pair@QAVUnitInterface@BWAPI@@UUnitInfo@UAlbertaBot@@@std@@@std@@@std@@@1@_NPAU?$_Tree_node@U?$pair@QAVUnitInterface@BWAPI@@UUnitInfo@UAlbertaBot@@@std@@PAX@1@AAU?$pair@QAVUnitInterface@BWAPI@@UUnitInfo@UAlbertaBot@@@1@1@Z 10092800 f i UnitData.obj
 0001:00091a30       ??$_Insert_nohint@AAU?$pair@QAVUnitInterface@BWAPI@@UUnitInfo@UAlbertaBot@@@std@@PAU?$_Tree_node@U?$pair@QAVUnitInterface@BWAPI@@UUnitInfo@UAlbertaBot@@@std@@PAX@2@@?$_Tree@V?$_Tmap_traits@PAVUnitInterface@BWAPI@@UUnitInfo@UAlbertaBot@@U?$less@PAVUnitInterface@BWAPI@@@std@@V?$allocator@U?$pair@QAVUnitInterface@BWAPI@@UUnitInfo@UAlbertaBot@@@std@@@6@$0A@@std@@@std@@IAE?AU?$pair@V?$_Tree_iterator@V?$_Tree_val@U?$_Tree_simple_types@U?$pair@QAVUnitInterface@BWAPI@@UUnitInfo@UAlbertaBot@@@std@@@std@@@std@@@std@@_N@1@_NAAU?$pair@QAVUnitInterface@BWAPI@@UUnitInfo@UAlbertaBot@@@1@PAU?$_Tree_node@U?$pair@QAVUnitInterface@BWAPI@@UUnitInfo@UAlbertaBot@@@std@@PAX@1@@Z 10092a30 f i UnitData.obj
 0001:00091ba0       ?IsMorphedBuildingType@UnitUtil@UAlbertaBot@@YA_NVUnitType@BWAPI@@@Z 10092ba0 f   UnitUtil.obj
 0001:00091be0       ?IsMorphedUnitType@UnitUtil@UAlbertaBot@@YA_NVUnitType@BWAPI@@@Z 10092be0 f   UnitUtil.obj
 0001:00091c00       ?IsCompletedResourceDepot@UnitUtil@UAlbertaBot@@YA_NPAVUnitInterface@BWAPI@@@Z 10092c00 f   UnitUtil.obj
 0001:00091c70       ?IsStaticDefense@UnitUtil@UAlbertaBot@@YA_NVUnitType@BWAPI@@@Z 10092c70 f   UnitUtil.obj
 0001:00091cb0       ?IsCombatSimUnit@UnitUtil@UAlbertaBot@@YA_NABUUnitInfo@2@@Z 10092cb0 f   UnitUtil.obj
 0001:00091d40       ?IsCombatSimUnit@UnitUtil@UAlbertaBot@@YA_NPAVUnitInterface@BWAPI@@@Z 10092d40 f   UnitUtil.obj
 0001:00091e80       ?IsValidUnit@UnitUtil@UAlbertaBot@@YA_NPAVUnitInterface@BWAPI@@@Z 10092e80 f   UnitUtil.obj
 0001:00091f50       ?GetGroundWeapon@UnitUtil@UAlbertaBot@@YA?AVWeaponType@BWAPI@@VUnitType@4@@Z 10092f50 f   UnitUtil.obj
 0001:00091f90       ?GetAirWeapon@UnitUtil@UAlbertaBot@@YA?AVWeaponType@BWAPI@@VUnitType@4@@Z 10092f90 f   UnitUtil.obj
 0001:00091fd0       ?GetWeapon@UnitUtil@UAlbertaBot@@YA?AVWeaponType@BWAPI@@PAVUnitInterface@4@0@Z 10092fd0 f   UnitUtil.obj
 0001:00092090       ?GetWeapon@UnitUtil@UAlbertaBot@@YA?AVWeaponType@BWAPI@@VUnitType@4@0@Z 10093090 f   UnitUtil.obj
 0001:00092100       ?GetAttackRange@UnitUtil@UAlbertaBot@@YAHPAVUnitInterface@BWAPI@@0@Z 10093100 f   UnitUtil.obj
 0001:00092200       ?GetAttackRangeAssumingUpgrades@UnitUtil@UAlbertaBot@@YAHVUnitType@BWAPI@@0@Z 10093200 f   UnitUtil.obj
 0001:000922a0       ?FramesToReachAttackRange@UnitUtil@UAlbertaBot@@YAHPAVUnitInterface@BWAPI@@0@Z 100932a0 f   UnitUtil.obj
 0001:00092340       ?ExpectedSurvivalTime@UnitUtil@UAlbertaBot@@YAHPAVUnitInterface@BWAPI@@@Z 10093340 f   UnitUtil.obj
 0001:00092520       ?EnemyDetectorInRange@UnitUtil@UAlbertaBot@@YA_NV?$Point@H$00@BWAPI@@@Z 10093520 f   UnitUtil.obj
 0001:000927a0       ?MobilizeUnit@UnitUtil@UAlbertaBot@@YA_NPAVUnitInterface@BWAPI@@@Z 100937a0 f   UnitUtil.obj
 0001:00092890       ??0WorkerData@UAlbertaBot@@QAE@XZ 10093890 f   WorkerData.obj
 0001:00092af0       ??1?$map@PAVUnitInterface@BWAPI@@W4WorkerJob@WorkerData@UAlbertaBot@@U?$less@PAVUnitInterface@BWAPI@@@std@@V?$allocator@U?$pair@QAVUnitInterface@BWAPI@@W4WorkerJob@WorkerData@UAlbertaBot@@@std@@@7@@std@@QAE@XZ 10093af0 f i WorkerData.obj
 0001:00092b20       ??1?$map@PAVUnitInterface@BWAPI@@PAV12@U?$less@PAVUnitInterface@BWAPI@@@std@@V?$allocator@U?$pair@QAVUnitInterface@BWAPI@@PAV12@@std@@@4@@std@@QAE@XZ 10093b20 f i WorkerData.obj
 0001:00092b20       ??1?$map@PAVUnitInterface@BWAPI@@HU?$less@PAVUnitInterface@BWAPI@@@std@@V?$allocator@U?$pair@QAVUnitInterface@BWAPI@@H@std@@@4@@std@@QAE@XZ 10093b20 f i WorkerData.obj
 0001:00092b50       ??1?$map@PAVUnitInterface@BWAPI@@VWorkerPost@WorkerData@UAlbertaBot@@U?$less@PAVUnitInterface@BWAPI@@@std@@V?$allocator@U?$pair@QAVUnitInterface@BWAPI@@VWorkerPost@WorkerData@UAlbertaBot@@@std@@@7@@std@@QAE@XZ 10093b50 f i WorkerData.obj
 0001:00092b80       ?addWorker@WorkerData@UAlbertaBot@@QAEXPAVUnitInterface@BWAPI@@@Z 10093b80 f   WorkerData.obj
 0001:00092bd0       ?addToMineralPatch@WorkerData@UAlbertaBot@@QAEXPAVUnitInterface@BWAPI@@H@Z 10093bd0 f   WorkerData.obj
 0001:00092c30       ?setWorkerJob@WorkerData@UAlbertaBot@@QAEXPAVUnitInterface@BWAPI@@W4WorkerJob@12@0@Z 10093c30 f   WorkerData.obj
 0001:00092dc0       ?resetWorkerPost@WorkerData@UAlbertaBot@@QAEXPAVUnitInterface@BWAPI@@W4WorkerJob@12@@Z 10093dc0 f   WorkerData.obj
 0001:00092ea0       ?clearPreviousJob@WorkerData@UAlbertaBot@@AAEXPAVUnitInterface@BWAPI@@@Z 10093ea0 f   WorkerData.obj
 0001:00093190       ?getWorkerJob@WorkerData@UAlbertaBot@@QBE?AW4WorkerJob@12@PAVUnitInterface@BWAPI@@@Z 10094190 f   WorkerData.obj
 0001:000931f0       ?depotIsFull@WorkerData@UAlbertaBot@@QAE_NPAVUnitInterface@BWAPI@@@Z 100941f0 f   WorkerData.obj
 0001:000932a0       ?getMineralPatchesNearDepot@WorkerData@UAlbertaBot@@QAE?AVUnitset@BWAPI@@PAVUnitInterface@4@@Z 100942a0 f   WorkerData.obj
 0001:00093400       ?getMineralToMine@WorkerData@UAlbertaBot@@AAEPAVUnitInterface@BWAPI@@PAV34@@Z 10094400 f   WorkerData.obj
 0001:00093600       ?getWorkerPostPosition@WorkerData@UAlbertaBot@@QAE?AV?$Point@H$00@BWAPI@@PAVUnitInterface@4@@Z 10094600 f   WorkerData.obj
 0001:00093670       ?getNumAssignedWorkers@WorkerData@UAlbertaBot@@QBEHPAVUnitInterface@BWAPI@@@Z 10094670 f   WorkerData.obj
 0001:00093740       ?getGasWorkers@WorkerData@UAlbertaBot@@QAEXAAV?$set@PAVUnitInterface@BWAPI@@U?$less@PAVUnitInterface@BWAPI@@@std@@V?$allocator@PAVUnitInterface@BWAPI@@@4@@std@@@Z 10094740 f   WorkerData.obj
 0001:00093790       ?drawDepotDebugInfo@WorkerData@UAlbertaBot@@QAEXXZ 10094790 f   WorkerData.obj
 0001:00093a70       ?find@?$_Tree@V?$_Tmap_traits@PAVUnitInterface@BWAPI@@HU?$less@PAVUnitInterface@BWAPI@@@std@@V?$allocator@U?$pair@QAVUnitInterface@BWAPI@@H@std@@@4@$0A@@std@@@std@@QAE?AV?$_Tree_iterator@V?$_Tree_val@U?$_Tree_simple_types@U?$pair@QAVUnitInterface@BWAPI@@H@std@@@std@@@std@@@2@ABQAVUnitInterface@BWAPI@@@Z 10094a70 f i WorkerData.obj
 0001:00093a70       ?find@?$_Tree@V?$_Tmap_traits@PAVUnitInterface@BWAPI@@PAV12@U?$less@PAVUnitInterface@BWAPI@@@std@@V?$allocator@U?$pair@QAVUnitInterface@BWAPI@@PAV12@@std@@@4@$0A@@std@@@std@@QAE?AV?$_Tree_iterator@V?$_Tree_val@U?$_Tree_simple_types@U?$pair@QAVUnitInterface@BWAPI@@PAV12@@std@@@std@@@std@@@2@ABQAVUnitInterface@BWAPI@@@Z 10094a70 f i WorkerData.obj
 0001:00093ac0       ??A?$map@PAVUnitInterface@BWAPI@@PAV12@U?$less@PAVUnitInterface@BWAPI@@@std@@V?$allocator@U?$pair@QAVUnitInterface@BWAPI@@PAV12@@std@@@4@@std@@QAEAAPAVUnitInterface@BWAPI@@ABQAV23@@Z 10094ac0 f i WorkerData.obj
 0001:00093ac0       ??A?$map@PAVUnitInterface@BWAPI@@HU?$less@PAVUnitInterface@BWAPI@@@std@@V?$allocator@U?$pair@QAVUnitInterface@BWAPI@@H@std@@@4@@std@@QAEAAHABQAVUnitInterface@BWAPI@@@Z 10094ac0 f i WorkerData.obj
 0001:00093b30       ?erase@?$_Tree@V?$_Tmap_traits@PAVUnitInterface@BWAPI@@PAV12@U?$less@PAVUnitInterface@BWAPI@@@std@@V?$allocator@U?$pair@QAVUnitInterface@BWAPI@@PAV12@@std@@@4@$0A@@std@@@std@@QAEIABQAVUnitInterface@BWAPI@@@Z 10094b30 f i WorkerData.obj
 0001:00093bd0       ??A?$map@PAVUnitInterface@BWAPI@@W4WorkerJob@WorkerData@UAlbertaBot@@U?$less@PAVUnitInterface@BWAPI@@@std@@V?$allocator@U?$pair@QAVUnitInterface@BWAPI@@W4WorkerJob@WorkerData@UAlbertaBot@@@std@@@7@@std@@QAEAAW4WorkerJob@WorkerData@UAlbertaBot@@ABQAVUnitInterface@BWAPI@@@Z 10094bd0 f i WorkerData.obj
 0001:00093c40       ?erase@?$_Tree@V?$_Tmap_traits@PAVUnitInterface@BWAPI@@PAV12@U?$less@PAVUnitInterface@BWAPI@@@std@@V?$allocator@U?$pair@QAVUnitInterface@BWAPI@@PAV12@@std@@@4@$0A@@std@@@std@@QAE?AV?$_Tree_iterator@V?$_Tree_val@U?$_Tree_simple_types@U?$pair@QAVUnitInterface@BWAPI@@PAV12@@std@@@std@@@std@@@2@V?$_Tree_const_iterator@V?$_Tree_val@U?$_Tree_simple_types@U?$pair@QAVUnitInterface@BWAPI@@PAV12@@std@@@std@@@std@@@2@0@Z 10094c40 f i WorkerData.obj
 0001:00093c40       ?erase@?$_Tree@V?$_Tmap_traits@PAVUnitInterface@BWAPI@@HU?$less@PAVUnitInterface@BWAPI@@@std@@V?$allocator@U?$pair@QAVUnitInterface@BWAPI@@H@std@@@4@$0A@@std@@@std@@QAE?AV?$_Tree_iterator@V?$_Tree_val@U?$_Tree_simple_types@U?$pair@QAVUnitInterface@BWAPI@@H@std@@@std@@@std@@@2@V?$_Tree_const_iterator@V?$_Tree_val@U?$_Tree_simple_types@U?$pair@QAVUnitInterface@BWAPI@@H@std@@@std@@@std@@@2@0@Z 10094c40 f i WorkerData.obj
 0001:00093d30       ?erase@?$_Tree@V?$_Tmap_traits@PAVUnitInterface@BWAPI@@VWorkerPost@WorkerData@UAlbertaBot@@U?$less@PAVUnitInterface@BWAPI@@@std@@V?$allocator@U?$pair@QAVUnitInterface@BWAPI@@VWorkerPost@WorkerData@UAlbertaBot@@@std@@@7@$0A@@std@@@std@@QAE?AV?$_Tree_iterator@V?$_Tree_val@U?$_Tree_simple_types@U?$pair@QAVUnitInterface@BWAPI@@VWorkerPost@WorkerData@UAlbertaBot@@@std@@@std@@@std@@@2@V?$_Tree_const_iterator@V?$_Tree_val@U?$_Tree_simple_types@U?$pair@QAVUnitInterface@BWAPI@@VWorkerPost@WorkerData@UAlbertaBot@@@std@@@std@@@std@@@2@0@Z 10094d30 f i WorkerData.obj
 0001:00093eb0       ?erase@?$_Tree@V?$_Tmap_traits@PAVUnitInterface@BWAPI@@W4WorkerJob@WorkerData@UAlbertaBot@@U?$less@PAVUnitInterface@BWAPI@@@std@@V?$allocator@U?$pair@QAVUnitInterface@BWAPI@@W4WorkerJob@WorkerData@UAlbertaBot@@@std@@@7@$0A@@std@@@std@@QAE?AV?$_Tree_iterator@V?$_Tree_val@U?$_Tree_simple_types@U?$pair@QAVUnitInterface@BWAPI@@W4WorkerJob@WorkerData@UAlbertaBot@@@std@@@std@@@std@@@2@V?$_Tree_const_iterator@V?$_Tree_val@U?$_Tree_simple_types@U?$pair@QAVUnitInterface@BWAPI@@W4WorkerJob@WorkerData@UAlbertaBot@@@std@@@std@@@std@@@2@0@Z 10094eb0 f i WorkerData.obj
 0001:00094030       ??$_Insert_hint@AAU?$pair@QAVUnitInterface@BWAPI@@PAV12@@std@@PAU?$_Tree_node@U?$pair@QAVUnitInterface@BWAPI@@PAV12@@std@@PAX@2@@?$_Tree@V?$_Tmap_traits@PAVUnitInterface@BWAPI@@PAV12@U?$less@PAVUnitInterface@BWAPI@@@std@@V?$allocator@U?$pair@QAVUnitInterface@BWAPI@@PAV12@@std@@@4@$0A@@std@@@std@@IAE?AV?$_Tree_iterator@V?$_Tree_val@U?$_Tree_simple_types@U?$pair@QAVUnitInterface@BWAPI@@PAV12@@std@@@std@@@std@@@1@V?$_Tree_const_iterator@V?$_Tree_val@U?$_Tree_simple_types@U?$pair@QAVUnitInterface@BWAPI@@PAV12@@std@@@std@@@std@@@1@AAU?$pair@QAVUnitInterface@BWAPI@@PAV12@@1@PAU?$_Tree_node@U?$pair@QAVUnitInterface@BWAPI@@PAV12@@std@@PAX@1@@Z 10095030 f i WorkerData.obj
 0001:00094030       ??$_Insert_hint@AAU?$pair@QAVUnitInterface@BWAPI@@H@std@@PAU?$_Tree_node@U?$pair@QAVUnitInterface@BWAPI@@H@std@@PAX@2@@?$_Tree@V?$_Tmap_traits@PAVUnitInterface@BWAPI@@HU?$less@PAVUnitInterface@BWAPI@@@std@@V?$allocator@U?$pair@QAVUnitInterface@BWAPI@@H@std@@@4@$0A@@std@@@std@@IAE?AV?$_Tree_iterator@V?$_Tree_val@U?$_Tree_simple_types@U?$pair@QAVUnitInterface@BWAPI@@H@std@@@std@@@std@@@1@V?$_Tree_const_iterator@V?$_Tree_val@U?$_Tree_simple_types@U?$pair@QAVUnitInterface@BWAPI@@H@std@@@std@@@std@@@1@AAU?$pair@QAVUnitInterface@BWAPI@@H@1@PAU?$_Tree_node@U?$pair@QAVUnitInterface@BWAPI@@H@std@@PAX@1@@Z 10095030 f i WorkerData.obj
 0001:00094290       ??$_Buynode@ABUpiecewise_construct_t@std@@V?$tuple@ABQAVUnitInterface@BWAPI@@@2@V?$tuple@$$V@2@@?$_Tree_comp_alloc@V?$_Tmap_traits@PAVUnitInterface@BWAPI@@VWorkerPost@WorkerData@UAlbertaBot@@U?$less@PAVUnitInterface@BWAPI@@@std@@V?$allocator@U?$pair@QAVUnitInterface@BWAPI@@VWorkerPost@WorkerData@UAlbertaBot@@@std@@@7@$0A@@std@@@std@@QAEPAU?$_Tree_node@U?$pair@QAVUnitInterface@BWAPI@@VWorkerPost@WorkerData@UAlbertaBot@@@std@@PAX@1@ABUpiecewise_construct_t@1@$$QAV?$tuple@ABQAVUnitInterface@BWAPI@@@1@$$QAV?$tuple@$$V@1@@Z 10095290 f i WorkerData.obj
 0001:00094340       ??$_Insert_hint@AAU?$pair@QAVUnitInterface@BWAPI@@VWorkerPost@WorkerData@UAlbertaBot@@@std@@PAU?$_Tree_node@U?$pair@QAVUnitInterface@BWAPI@@VWorkerPost@WorkerData@UAlbertaBot@@@std@@PAX@2@@?$_Tree@V?$_Tmap_traits@PAVUnitInterface@BWAPI@@VWorkerPost@WorkerData@UAlbertaBot@@U?$less@PAVUnitInterface@BWAPI@@@std@@V?$allocator@U?$pair@QAVUnitInterface@BWAPI@@VWorkerPost@WorkerData@UAlbertaBot@@@std@@@7@$0A@@std@@@std@@IAE?AV?$_Tree_iterator@V?$_Tree_val@U?$_Tree_simple_types@U?$pair@QAVUnitInterface@BWAPI@@VWorkerPost@WorkerData@UAlbertaBot@@@std@@@std@@@std@@@1@V?$_Tree_const_iterator@V?$_Tree_val@U?$_Tree_simple_types@U?$pair@QAVUnitInterface@BWAPI@@VWorkerPost@WorkerData@UAlbertaBot@@@std@@@std@@@std@@@1@AAU?$pair@QAVUnitInterface@BWAPI@@VWorkerPost@WorkerData@UAlbertaBot@@@1@PAU?$_Tree_node@U?$pair@QAVUnitInterface@BWAPI@@VWorkerPost@WorkerData@UAlbertaBot@@@std@@PAX@1@@Z 10095340 f i WorkerData.obj
 0001:000945d0       ??1WorkerData@UAlbertaBot@@QAE@XZ 100955d0 f i WorkerManager.obj
 0001:00094760       ?Instance@WorkerManager@UAlbertaBot@@SAAAV12@XZ 10095760 f   WorkerManager.obj
 0001:000948a0       ?update@WorkerManager@UAlbertaBot@@QAEXXZ 100958a0 f   WorkerManager.obj
 0001:00094c70       ?updateWorkerStatus@WorkerManager@UAlbertaBot@@QAEXXZ 10095c70 f   WorkerManager.obj
 0001:00095460       ?clearBlockingMinerals@WorkerManager@UAlbertaBot@@AAEXXZ 10096460 f   WorkerManager.obj
 0001:00095790       ?handleGasWorkers@WorkerManager@UAlbertaBot@@AAEXXZ 10096790 f   WorkerManager.obj
 0001:00095e30       ?handleRepairWorkers@WorkerManager@UAlbertaBot@@AAEXXZ 10096e30 f   WorkerManager.obj
 0001:00096250       ?handleMineralWorkers@WorkerManager@UAlbertaBot@@AAEXXZ 10097250 f   WorkerManager.obj
 0001:00096530       ?handleUnblockWorkers@WorkerManager@UAlbertaBot@@AAEXXZ 10097530 f   WorkerManager.obj
 0001:00096840       ?maybeFleeDanger@WorkerManager@UAlbertaBot@@AAE_NPAVUnitInterface@BWAPI@@H@Z 10097840 f   WorkerManager.obj
 0001:000969a0       ?inIrradiateDanger@WorkerManager@UAlbertaBot@@ABE_NPAVUnitInterface@BWAPI@@@Z 100979a0 f   WorkerManager.obj
 0001:00096b90       ?findEnemyTargetForWorker@WorkerManager@UAlbertaBot@@ABEPAVUnitInterface@BWAPI@@PAV34@@Z 10097b90 f   WorkerManager.obj
 0001:00096d50       ?getAnyClosestDepot@WorkerManager@UAlbertaBot@@AAEPAVUnitInterface@BWAPI@@PAV34@@Z 10097d50 f   WorkerManager.obj
 0001:00096e60       ?getClosestNonFullDepot@WorkerManager@UAlbertaBot@@AAEPAVUnitInterface@BWAPI@@PAV34@@Z 10097e60 f   WorkerManager.obj
 0001:000970f0       ?finishedWithWorker@WorkerManager@UAlbertaBot@@QAEXPAVUnitInterface@BWAPI@@@Z 100980f0 f   WorkerManager.obj
 0001:00097170       ?getAnyWorker@WorkerManager@UAlbertaBot@@AAEPAVUnitInterface@BWAPI@@ABV?$Point@H$00@4@H@Z 10098170 f   WorkerManager.obj
 0001:00097240       ?getUnencumberedWorker@WorkerManager@UAlbertaBot@@AAEPAVUnitInterface@BWAPI@@ABV?$Point@H$00@4@H@Z 10098240 f   WorkerManager.obj
 0001:00097340       ?getBuilder@WorkerManager@UAlbertaBot@@QAEPAVUnitInterface@BWAPI@@ABVBuilding@2@@Z 10098340 f   WorkerManager.obj
 0001:00097630       ?setBuildWorker@WorkerManager@UAlbertaBot@@QAEXPAVUnitInterface@BWAPI@@@Z 10098630 f   WorkerManager.obj
 0001:000976c0       ?willHaveResources@WorkerManager@UAlbertaBot@@QAE_NHHN@Z 100986c0 f   WorkerManager.obj
 0001:00097860       ?postGivenWorker@WorkerManager@UAlbertaBot@@QAEXPAVUnitInterface@BWAPI@@W4MacroLocation@2@@Z 10098860 f   WorkerManager.obj
 0001:00097950       ?postWorker@WorkerManager@UAlbertaBot@@QAEPAVUnitInterface@BWAPI@@W4MacroLocation@2@@Z 10098950 f   WorkerManager.obj
 0001:00097a30       ?onUnitDestroy@WorkerManager@UAlbertaBot@@QAEXPAVUnitInterface@BWAPI@@@Z 10098a30 f   WorkerManager.obj
 0001:00097c90       ?drawWorkerInformation@WorkerManager@UAlbertaBot@@AAEXXZ 10098c90 f   WorkerManager.obj
 0001:00097ec0       ?init@ActionTypes@BOSS@@YAXXZ 10098ec0 f   BOSS:ActionType.obj
 0001:00098950       ?GetActionType@ActionTypes@BOSS@@YAABVActionType@2@ABV?$basic_string@DU?$char_traits@D@std@@V?$allocator@D@2@@std@@@Z 10099950 f   BOSS:ActionType.obj
 0001:000989a0       ?TypeExists@ActionTypes@BOSS@@YA?B_NABV?$basic_string@DU?$char_traits@D@std@@V?$allocator@D@2@@std@@@Z 100999a0 f   BOSS:ActionType.obj
 0001:00098a00       ??A?$map@V?$basic_string@DU?$char_traits@D@std@@V?$allocator@D@2@@std@@VActionType@BOSS@@U?$less@V?$basic_string@DU?$char_traits@D@std@@V?$allocator@D@2@@std@@@2@V?$allocator@U?$pair@$$CBV?$basic_string@DU?$char_traits@D@std@@V?$allocator@D@2@@std@@VActionType@BOSS@@@std@@@2@@std@@QAEAAVActionType@BOSS@@ABV?$basic_string@DU?$char_traits@D@std@@V?$allocator@D@2@@1@@Z 10099a00 f i BOSS:ActionType.obj
 0001:00098a80       ?lower_bound@?$_Tree@V?$_Tmap_traits@V?$basic_string@DU?$char_traits@D@std@@V?$allocator@D@2@@std@@VActionType@BOSS@@U?$less@V?$basic_string@DU?$char_traits@D@std@@V?$allocator@D@2@@std@@@2@V?$allocator@U?$pair@$$CBV?$basic_string@DU?$char_traits@D@std@@V?$allocator@D@2@@std@@VActionType@BOSS@@@std@@@2@$0A@@std@@@std@@QAE?AV?$_Tree_iterator@V?$_Tree_val@U?$_Tree_simple_types@U?$pair@$$CBV?$basic_string@DU?$char_traits@D@std@@V?$allocator@D@2@@std@@VActionType@BOSS@@@std@@@std@@@std@@@2@ABV?$basic_string@DU?$char_traits@D@std@@V?$allocator@D@2@@2@@Z 10099a80 f i BOSS:ActionType.obj
 0001:00098af0       ?erase@?$_Tree@V?$_Tmap_traits@V?$basic_string@DU?$char_traits@D@std@@V?$allocator@D@2@@std@@VActionType@BOSS@@U?$less@V?$basic_string@DU?$char_traits@D@std@@V?$allocator@D@2@@std@@@2@V?$allocator@U?$pair@$$CBV?$basic_string@DU?$char_traits@D@std@@V?$allocator@D@2@@std@@VActionType@BOSS@@@std@@@2@$0A@@std@@@std@@QAE?AV?$_Tree_iterator@V?$_Tree_val@U?$_Tree_simple_types@U?$pair@$$CBV?$basic_string@DU?$char_traits@D@std@@V?$allocator@D@2@@std@@VActionType@BOSS@@@std@@@std@@@std@@@2@V?$_Tree_const_iterator@V?$_Tree_val@U?$_Tree_simple_types@U?$pair@$$CBV?$basic_string@DU?$char_traits@D@std@@V?$allocator@D@2@@std@@VActionType@BOSS@@@std@@@std@@@std@@@2@0@Z 10099af0 f i BOSS:ActionType.obj
 0001:00098ca0       ?_Erase@?$_Tree@V?$_Tmap_traits@V?$basic_string@DU?$char_traits@D@std@@V?$allocator@D@2@@std@@VActionType@BOSS@@U?$less@V?$basic_string@DU?$char_traits@D@std@@V?$allocator@D@2@@std@@@2@V?$allocator@U?$pair@$$CBV?$basic_string@DU?$char_traits@D@std@@V?$allocator@D@2@@std@@VActionType@BOSS@@@std@@@2@$0A@@std@@@std@@IAEXPAU?$_Tree_node@U?$pair@$$CBV?$basic_string@DU?$char_traits@D@std@@V?$allocator@D@2@@std@@VActionType@BOSS@@@std@@PAX@2@@Z 10099ca0 f i BOSS:ActionType.obj
 0001:00098d30       ??$_Emplace_reallocate@V?$vector@VActionType@BOSS@@V?$allocator@VActionType@BOSS@@@std@@@std@@@?$vector@V?$vector@VActionType@BOSS@@V?$allocator@VActionType@BOSS@@@std@@@std@@V?$allocator@V?$vector@VActionType@BOSS@@V?$allocator@VActionType@BOSS@@@std@@@std@@@2@@std@@QAEPAV?$vector@VActionType@BOSS@@V?$allocator@VActionType@BOSS@@@std@@@1@QAV21@$$QAV21@@Z 10099d30 f i BOSS:ActionType.obj
 0001:00098f20       ??$_Emplace_reallocate@ABVActionType@BOSS@@@?$vector@VActionType@BOSS@@V?$allocator@VActionType@BOSS@@@std@@@std@@QAEPAVActionType@BOSS@@QAV23@ABV23@@Z 10099f20 f i BOSS:ActionType.obj
 0001:00099090       ?_Change_array@?$vector@VActionType@BOSS@@V?$allocator@VActionType@BOSS@@@std@@@std@@AAEXQAVActionType@BOSS@@II@Z 1009a090 f i BOSS:ActionType.obj
 0001:000990f0       ??$_Uninitialized_move@PAV?$vector@VActionType@BOSS@@V?$allocator@VActionType@BOSS@@@std@@@std@@PAV12@V?$allocator@V?$vector@VActionType@BOSS@@V?$allocator@VActionType@BOSS@@@std@@@std@@@2@@std@@YAPAV?$vector@VActionType@BOSS@@V?$allocator@VActionType@BOSS@@@std@@@0@QAV10@0PAV10@AAV?$allocator@V?$vector@VActionType@BOSS@@V?$allocator@VActionType@BOSS@@@std@@@std@@@0@@Z 1009a0f0 f i BOSS:ActionType.obj
 0001:00099160       ??$_Buynode@ABUpiecewise_construct_t@std@@V?$tuple@ABV?$basic_string@DU?$char_traits@D@std@@V?$allocator@D@2@@std@@@2@V?$tuple@$$V@2@@?$_Tree_comp_alloc@V?$_Tmap_traits@V?$basic_string@DU?$char_traits@D@std@@V?$allocator@D@2@@std@@VActionType@BOSS@@U?$less@V?$basic_string@DU?$char_traits@D@std@@V?$allocator@D@2@@std@@@2@V?$allocator@U?$pair@$$CBV?$basic_string@DU?$char_traits@D@std@@V?$allocator@D@2@@std@@VActionType@BOSS@@@std@@@2@$0A@@std@@@std@@QAEPAU?$_Tree_node@U?$pair@$$CBV?$basic_string@DU?$char_traits@D@std@@V?$allocator@D@2@@std@@VActionType@BOSS@@@std@@PAX@1@ABUpiecewise_construct_t@1@$$QAV?$tuple@ABV?$basic_string@DU?$char_traits@D@std@@V?$allocator@D@2@@std@@@1@$$QAV?$tuple@$$V@1@@Z 1009a160 f i BOSS:ActionType.obj
 0001:000991e0       ??$_Insert_hint@AAU?$pair@$$CBV?$basic_string@DU?$char_traits@D@std@@V?$allocator@D@2@@std@@VActionType@BOSS@@@std@@PAU?$_Tree_node@U?$pair@$$CBV?$basic_string@DU?$char_traits@D@std@@V?$allocator@D@2@@std@@VActionType@BOSS@@@std@@PAX@2@@?$_Tree@V?$_Tmap_traits@V?$basic_string@DU?$char_traits@D@std@@V?$allocator@D@2@@std@@VActionType@BOSS@@U?$less@V?$basic_string@DU?$char_traits@D@std@@V?$allocator@D@2@@std@@@2@V?$allocator@U?$pair@$$CBV?$basic_string@DU?$char_traits@D@std@@V?$allocator@D@2@@std@@VActionType@BOSS@@@std@@@2@$0A@@std@@@std@@IAE?AV?$_Tree_iterator@V?$_Tree_val@U?$_Tree_simple_types@U?$pair@$$CBV?$basic_string@DU?$char_traits@D@std@@V?$allocator@D@2@@std@@VActionType@BOSS@@@std@@@std@@@std@@@1@V?$_Tree_const_iterator@V?$_Tree_val@U?$_Tree_simple_types@U?$pair@$$CBV?$basic_string@DU?$char_traits@D@std@@V?$allocator@D@2@@std@@VActionType@BOSS@@@std@@@std@@@std@@@1@AAU?$pair@$$CBV?$basic_string@DU?$char_traits@D@std@@V?$allocator@D@2@@std@@VActionType@BOSS@@@1@PAU?$_Tree_node@U?$pair@$$CBV?$basic_string@DU?$char_traits@D@std@@V?$allocator@D@2@@std@@VActionType@BOSS@@@std@@PAX@1@@Z 1009a1e0 f i BOSS:ActionType.obj
 0001:00099520       ?_Freenode0@?$_Tree_comp_alloc@V?$_Tmap_traits@V?$basic_string@DU?$char_traits@D@std@@V?$allocator@D@2@@std@@VActionType@BOSS@@U?$less@V?$basic_string@DU?$char_traits@D@std@@V?$allocator@D@2@@std@@@2@V?$allocator@U?$pair@$$CBV?$basic_string@DU?$char_traits@D@std@@V?$allocator@D@2@@std@@VActionType@BOSS@@@std@@@2@$0A@@std@@@std@@QAEXPAU?$_Tree_node@U?$pair@$$CBV?$basic_string@DU?$char_traits@D@std@@V?$allocator@D@2@@std@@VActionType@BOSS@@@std@@PAX@2@@Z 1009a520 f i BOSS:ActionType.obj
 0001:00099540       ?_Buynode0@?$_Tree_comp_alloc@V?$_Tmap_traits@V?$basic_string@DU?$char_traits@D@std@@V?$allocator@D@2@@std@@VActionType@BOSS@@U?$less@V?$basic_string@DU?$char_traits@D@std@@V?$allocator@D@2@@std@@@2@V?$allocator@U?$pair@$$CBV?$basic_string@DU?$char_traits@D@std@@V?$allocator@D@2@@std@@VActionType@BOSS@@@std@@@2@$0A@@std@@@std@@QAEPAU?$_Tree_node@U?$pair@$$CBV?$basic_string@DU?$char_traits@D@std@@V?$allocator@D@2@@std@@VActionType@BOSS@@@std@@PAX@2@XZ 1009a540 f i BOSS:ActionType.obj
 0001:00099570       ?_Destroy_if_node@?$_Tree@V?$_Tmap_traits@V?$basic_string@DU?$char_traits@D@std@@V?$allocator@D@2@@std@@VActionType@BOSS@@U?$less@V?$basic_string@DU?$char_traits@D@std@@V?$allocator@D@2@@std@@@2@V?$allocator@U?$pair@$$CBV?$basic_string@DU?$char_traits@D@std@@V?$allocator@D@2@@std@@VActionType@BOSS@@@std@@@2@$0A@@std@@@std@@IAEXPAU?$_Tree_node@U?$pair@$$CBV?$basic_string@DU?$char_traits@D@std@@V?$allocator@D@2@@std@@VActionType@BOSS@@@std@@PAX@2@@Z 1009a570 f i BOSS:ActionType.obj
 0001:000995d0       ??$_Insert_at@AAU?$pair@$$CBV?$basic_string@DU?$char_traits@D@std@@V?$allocator@D@2@@std@@VActionType@BOSS@@@std@@PAU?$_Tree_node@U?$pair@$$CBV?$basic_string@DU?$char_traits@D@std@@V?$allocator@D@2@@std@@VActionType@BOSS@@@std@@PAX@2@@?$_Tree@V?$_Tmap_traits@V?$basic_string@DU?$char_traits@D@std@@V?$allocator@D@2@@std@@VActionType@BOSS@@U?$less@V?$basic_string@DU?$char_traits@D@std@@V?$allocator@D@2@@std@@@2@V?$allocator@U?$pair@$$CBV?$basic_string@DU?$char_traits@D@std@@V?$allocator@D@2@@std@@VActionType@BOSS@@@std@@@2@$0A@@std@@@std@@IAE?AV?$_Tree_iterator@V?$_Tree_val@U?$_Tree_simple_types@U?$pair@$$CBV?$basic_string@DU?$char_traits@D@std@@V?$allocator@D@2@@std@@VActionType@BOSS@@@std@@@std@@@std@@@1@_NPAU?$_Tree_node@U?$pair@$$CBV?$basic_string@DU?$char_traits@D@std@@V?$allocator@D@2@@std@@VActionType@BOSS@@@std@@PAX@1@AAU?$pair@$$CBV?$basic_string@DU?$char_traits@D@std@@V?$allocator@D@2@@std@@VActionType@BOSS@@@1@1@Z 1009a5d0 f i BOSS:ActionType.obj
 0001:00099810       ??$_Insert_nohint@AAU?$pair@$$CBV?$basic_string@DU?$char_traits@D@std@@V?$allocator@D@2@@std@@VActionType@BOSS@@@std@@PAU?$_Tree_node@U?$pair@$$CBV?$basic_string@DU?$char_traits@D@std@@V?$allocator@D@2@@std@@VActionType@BOSS@@@std@@PAX@2@@?$_Tree@V?$_Tmap_traits@V?$basic_string@DU?$char_traits@D@std@@V?$allocator@D@2@@std@@VActionType@BOSS@@U?$less@V?$basic_string@DU?$char_traits@D@std@@V?$allocator@D@2@@std@@@2@V?$allocator@U?$pair@$$CBV?$basic_string@DU?$char_traits@D@std@@V?$allocator@D@2@@std@@VActionType@BOSS@@@std@@@2@$0A@@std@@@std@@IAE?AU?$pair@V?$_Tree_iterator@V?$_Tree_val@U?$_Tree_simple_types@U?$pair@$$CBV?$basic_string@DU?$char_traits@D@std@@V?$allocator@D@2@@std@@VActionType@BOSS@@@std@@@std@@@std@@@std@@_N@1@_NAAU?$pair@$$CBV?$basic_string@DU?$char_traits@D@std@@V?$allocator@D@2@@std@@VActionType@BOSS@@@1@PAU?$_Tree_node@U?$pair@$$CBV?$basic_string@DU?$char_traits@D@std@@V?$allocator@D@2@@std@@VActionType@BOSS@@@std@@PAX@1@@Z 1009a810 f i BOSS:ActionType.obj
 0001:000999d0       ??0ActionCountPair@BOSS@@QAE@ABV01@@Z 1009a9d0 f i BOSS:DFBB_BuildOrderSmartSearch.obj
 0001:000999d0       ??0ActionCountPair@BOSS@@QAE@$$QAV01@@Z 1009a9d0 f i BOSS:ActionTypeData.obj
 0001:000999f0       ??0GameState@BOSS@@QAE@E@Z 1009a9f0 f   BOSS:GameState.obj
 0001:00099a70       __vsnprintf_l              1009aa70 f i BOSS:BOSSAssert.obj
 0001:00099ab0       _vsprintf                  1009aab0 f i BOSS:BOSSAssert.obj
 0001:00099ad0       ?ReportFailure@Assert@BOSS@@YAXPBVGameState@2@PBD1H1ZZ 1009aad0 f   BOSS:BOSSAssert.obj
 0001:00099c80       ??0BOSSException@BOSS@@QAE@ABV01@@Z 1009ac80 f i BOSS:BOSSAssert.obj
 0001:00099d00       ??_GBOSSException@BOSS@@UAEPAXI@Z 1009ad00 f i BOSS:BOSSAssert.obj
 0001:00099d00       ??_EBOSSException@BOSS@@UAEPAXI@Z 1009ad00 f i * CIL library *:* CIL module *
 0001:00099d30       ??0DFBB_BuildOrderSearchResults@BOSS@@QAE@XZ 1009ad30 f   BOSS:DFBB_BuildOrderSearchResults.obj
 0001:00099de0       ??0?$Vec@G$0EA@@BOSS@@QAE@ABIABG@Z 1009ade0 f i BOSS:DFBB_BuildOrderSearchParameters.obj
 0001:00099ec0       ??0ActionTypeData@BOSS@@AAE@VUnitType@BWAPI@@E@Z 1009aec0 f   BOSS:ActionTypeData.obj
 0001:0009a160       ??0ActionTypeData@BOSS@@AAE@VUpgradeType@BWAPI@@E@Z 1009b160 f   BOSS:ActionTypeData.obj
 0001:0009a320       ??0ActionTypeData@BOSS@@AAE@VTechType@BWAPI@@E@Z 1009b320 f   BOSS:ActionTypeData.obj
 0001:0009a4e0       ?setShortName@ActionTypeData@BOSS@@AAEXXZ 1009b4e0 f   BOSS:ActionTypeData.obj
 0001:0009a6c0       ?AddActions@ActionTypeData@BOSS@@CAXXZ 1009b6c0 f   BOSS:ActionTypeData.obj
 0001:0009afc0       ??1ActionTypeData@BOSS@@QAE@XZ 1009bfc0 f i BOSS:ActionTypeData.obj
 0001:0009b0a0       ?GetActionID@ActionTypeData@BOSS@@SAEABVUnitType@BWAPI@@@Z 1009c0a0 f   BOSS:ActionTypeData.obj
 0001:0009b1a0       ?GetActionID@ActionTypeData@BOSS@@SAEABVTechType@BWAPI@@@Z 1009c1a0 f   BOSS:ActionTypeData.obj
 0001:0009b2c0       ??0ActionTypeData@BOSS@@QAE@ABV01@@Z 1009c2c0 f i BOSS:ActionTypeData.obj
 0001:0009b4c0       ?AddPrerequisites@ActionTypeData@BOSS@@CAXXZ 1009c4c0 f   BOSS:ActionTypeData.obj
 0001:0009b8f0       ?CalculatePrerequisites@ActionTypeData@BOSS@@CA?AVPrerequisiteSet@2@ABV12@@Z 1009c8f0 f   BOSS:ActionTypeData.obj
 0001:0009bbd0       ?CalculateRecursivePrerequisites@ActionTypeData@BOSS@@CAXAAVPrerequisiteSet@2@ABV12@@Z 1009cbd0 f   BOSS:ActionTypeData.obj
 0001:0009bde0       ??0?$vector@V?$vector@VActionTypeData@BOSS@@V?$allocator@VActionTypeData@BOSS@@@std@@@std@@V?$allocator@V?$vector@VActionTypeData@BOSS@@V?$allocator@VActionTypeData@BOSS@@@std@@@std@@@2@@std@@QAE@IABV?$allocator@V?$vector@VActionTypeData@BOSS@@V?$allocator@VActionTypeData@BOSS@@@std@@@std@@@1@@Z 1009cde0 f i BOSS:ActionTypeData.obj
 0001:0009be70       ?_Tidy@?$vector@V?$vector@VActionTypeData@BOSS@@V?$allocator@VActionTypeData@BOSS@@@std@@@std@@V?$allocator@V?$vector@VActionTypeData@BOSS@@V?$allocator@VActionTypeData@BOSS@@@std@@@std@@@2@@std@@AAEXXZ 1009ce70 f i BOSS:ActionTypeData.obj
 0001:0009bf00       ??$_Emplace_reallocate@VActionTypeData@BOSS@@@?$vector@VActionTypeData@BOSS@@V?$allocator@VActionTypeData@BOSS@@@std@@@std@@QAEPAVActionTypeData@BOSS@@QAV23@$$QAV23@@Z 1009cf00 f i BOSS:ActionTypeData.obj
 0001:0009c1c0       ??$_Destroy_range@V?$allocator@V?$vector@VActionTypeData@BOSS@@V?$allocator@VActionTypeData@BOSS@@@std@@@std@@@std@@@std@@YAXPAV?$vector@VActionTypeData@BOSS@@V?$allocator@VActionTypeData@BOSS@@@std@@@0@0AAV?$allocator@V?$vector@VActionTypeData@BOSS@@V?$allocator@VActionTypeData@BOSS@@@std@@@std@@@0@@Z 1009d1c0 f i BOSS:ActionTypeData.obj
 0001:0009c270       ??0ActionTypeData@BOSS@@QAE@$$QAV01@@Z 1009d270 f i BOSS:ActionTypeData.obj
 0001:0009c4f0       ?_Destroy@?$vector@VActionTypeData@BOSS@@V?$allocator@VActionTypeData@BOSS@@@std@@@std@@AAEXPAVActionTypeData@BOSS@@0@Z 1009d4f0 f i BOSS:ActionTypeData.obj
 0001:0009c520       ?deallocate@?$allocator@VActionTypeData@BOSS@@@std@@QAEXQAVActionTypeData@BOSS@@I@Z 1009d520 f i BOSS:ActionTypeData.obj
 0001:0009c560       ??1?$_Uninitialized_backout_al@PAVActionTypeData@BOSS@@V?$allocator@VActionTypeData@BOSS@@@std@@@std@@QAE@XZ 1009d560 f i BOSS:ActionTypeData.obj
 0001:0009c590       ??0UnitData@BOSS@@QAE@E@Z  1009d590 f   BOSS:UnitData.obj
 0001:0009c6c0       ?contains@PrerequisiteSet@BOSS@@QBE?B_NABVActionType@2@@Z 1009d6c0 f   BOSS:PrerequisiteSet.obj
 0001:0009c730       ?add@PrerequisiteSet@BOSS@@QAEXABVActionType@2@G@Z 1009d730 f   BOSS:PrerequisiteSet.obj
 0001:0009c790       ?size@?$Vec@VActionCountPair@BOSS@@$0GE@@BOSS@@QBEABIXZ 1009d790 f i BOSS:PrerequisiteSet.obj
 0001:0009c7a0       ??0BOSSException@BOSS@@QAE@V?$basic_string@DU?$char_traits@D@std@@V?$allocator@D@2@@std@@@Z 1009d7a0 f   BOSS:BOSSException.obj
 0001:0009c850       ??1BOSSException@BOSS@@UAE@XZ 1009d850 f   BOSS:BOSSException.obj
 0001:0009c8c0       ?what@BOSSException@BOSS@@UBEPBDXZ 1009d8c0 f   BOSS:BOSSException.obj
 0001:0009c8d0       ??0?$SetContainer@VUpgradeType@BWAPI@@U?$hash@H@std@@@BWAPI@@QAE@V?$initializer_list@VUpgradeType@BWAPI@@@std@@@Z 1009d8d0 f i BWAPILIB:UnitType.obj
 0001:0009c8d0       ??0?$SetContainer@VWeaponType@BWAPI@@U?$hash@H@std@@@BWAPI@@QAE@V?$initializer_list@VWeaponType@BWAPI@@@std@@@Z 1009d8d0 f i BWAPILIB:WeaponType.obj
 0001:0009c8d0       ??0?$SetContainer@VTechType@BWAPI@@U?$hash@H@std@@@BWAPI@@QAE@V?$initializer_list@VTechType@BWAPI@@@std@@@Z 1009d8d0 f i BWAPILIB:UnitType.obj
 0001:0009c8d0       ??0?$SetContainer@VUnitType@BWAPI@@U?$hash@H@std@@@BWAPI@@QAE@V?$initializer_list@VUnitType@BWAPI@@@std@@@Z 1009d8d0 f i BWAPILIB:UnitType.obj
 0001:0009c9e0       ?whatBuilds@UnitType@BWAPI@@QBE?BU?$pair@VUnitType@BWAPI@@H@std@@XZ 1009d9e0 f   BWAPILIB:UnitType.obj
 0001:0009ca30       ?reqUnitsInit@BWAPI@@YA?AV?$vector@V?$map@VUnitType@BWAPI@@HU?$less@VUnitType@BWAPI@@@std@@V?$allocator@U?$pair@$$CBVUnitType@BWAPI@@H@std@@@4@@std@@V?$allocator@V?$map@VUnitType@BWAPI@@HU?$less@VUnitType@BWAPI@@@std@@V?$allocator@U?$pair@$$CBVUnitType@BWAPI@@H@std@@@4@@std@@@2@@std@@XZ 1009da30 f   BWAPILIB:UnitType.obj
 0001:0009d8c0       ?requiredUnits@UnitType@BWAPI@@QBEABV?$map@VUnitType@BWAPI@@HU?$less@VUnitType@BWAPI@@@std@@V?$allocator@U?$pair@$$CBVUnitType@BWAPI@@H@std@@@4@@std@@XZ 1009e8c0 f   BWAPILIB:UnitType.obj
 0001:0009d920       ?topSpeed@UnitType@BWAPI@@QBENXZ 1009e920 f   BWAPILIB:UnitType.obj
 0001:0009d930       ?canAttack@UnitType@BWAPI@@QBE_NXZ 1009e930 f   BWAPILIB:UnitType.obj
 0001:0009da30       ?isSpell@UnitType@BWAPI@@QBE_NXZ 1009ea30 f   BWAPILIB:UnitType.obj
 0001:0009da50       ?isMineralField@UnitType@BWAPI@@QBE_NXZ 1009ea50 f   BWAPILIB:UnitType.obj
 0001:0009da70       ?canBuildAddon@UnitType@BWAPI@@QBE_NXZ 1009ea70 f   BWAPILIB:UnitType.obj
 0001:0009da90       ??R<lambda_3b68910d29f027af2c1a7db1c8ed951a>@@QBEPAV?$map@VUnitType@BWAPI@@HU?$less@VUnitType@BWAPI@@@std@@V?$allocator@U?$pair@$$CBVUnitType@BWAPI@@H@std@@@4@@std@@PAV12@I@Z 1009ea90 f i BWAPILIB:UnitType.obj
 0001:0009db10       ??0?$unordered_set@VUnitType@BWAPI@@U?$hash@H@std@@U?$equal_to@VUnitType@BWAPI@@@4@V?$allocator@VUnitType@BWAPI@@@4@@std@@QAE@XZ 1009eb10 f i BWAPILIB:UnitType.obj
 0001:0009db10       ??0?$unordered_set@VUpgradeType@BWAPI@@U?$hash@H@std@@U?$equal_to@VUpgradeType@BWAPI@@@4@V?$allocator@VUpgradeType@BWAPI@@@4@@std@@QAE@XZ 1009eb10 f i BWAPILIB:UnitType.obj
 0001:0009db10       ??0?$unordered_set@VTechType@BWAPI@@U?$hash@H@std@@U?$equal_to@VTechType@BWAPI@@@4@V?$allocator@VTechType@BWAPI@@@4@@std@@QAE@XZ 1009eb10 f i BWAPILIB:UnitType.obj
 0001:0009dba0       ??0?$_Hash@V?$_Uset_traits@VTechType@BWAPI@@V?$_Uhash_compare@VTechType@BWAPI@@U?$hash@H@std@@U?$equal_to@VTechType@BWAPI@@@4@@std@@V?$allocator@VTechType@BWAPI@@@4@$0A@@std@@@std@@QAE@ABV?$_Uhash_compare@VTechType@BWAPI@@U?$hash@H@std@@U?$equal_to@VTechType@BWAPI@@@4@@1@ABV?$allocator@VTechType@BWAPI@@@1@@Z 1009eba0 f i BWAPILIB:UnitType.obj
 0001:0009dba0       ??0?$_Hash@V?$_Uset_traits@VUpgradeType@BWAPI@@V?$_Uhash_compare@VUpgradeType@BWAPI@@U?$hash@H@std@@U?$equal_to@VUpgradeType@BWAPI@@@4@@std@@V?$allocator@VUpgradeType@BWAPI@@@4@$0A@@std@@@std@@QAE@ABV?$_Uhash_compare@VUpgradeType@BWAPI@@U?$hash@H@std@@U?$equal_to@VUpgradeType@BWAPI@@@4@@1@ABV?$allocator@VUpgradeType@BWAPI@@@1@@Z 1009eba0 f i BWAPILIB:UnitType.obj
 0001:0009dc30       ?_Init@?$_Hash@V?$_Uset_traits@VUpgradeType@BWAPI@@V?$_Uhash_compare@VUpgradeType@BWAPI@@U?$hash@H@std@@U?$equal_to@VUpgradeType@BWAPI@@@4@@std@@V?$allocator@VUpgradeType@BWAPI@@@4@$0A@@std@@@std@@IAEXI@Z 1009ec30 f i BWAPILIB:UnitType.obj
 0001:0009dc30       ?_Init@?$_Hash@V?$_Uset_traits@VUnitType@BWAPI@@V?$_Uhash_compare@VUnitType@BWAPI@@U?$hash@H@std@@U?$equal_to@VUnitType@BWAPI@@@4@@std@@V?$allocator@VUnitType@BWAPI@@@4@$0A@@std@@@std@@IAEXI@Z 1009ec30 f i BWAPILIB:UnitType.obj
 0001:0009dc30       ?_Init@?$_Hash@V?$_Uset_traits@VRace@BWAPI@@V?$_Uhash_compare@VRace@BWAPI@@U?$hash@H@std@@U?$equal_to@VRace@BWAPI@@@4@@std@@V?$allocator@VRace@BWAPI@@@4@$0A@@std@@@std@@IAEXI@Z 1009ec30 f i BWAPILIB:Race.obj
 0001:0009dc30       ?_Init@?$_Hash@V?$_Uset_traits@VBulletType@BWAPI@@V?$_Uhash_compare@VBulletType@BWAPI@@U?$hash@H@std@@U?$equal_to@VBulletType@BWAPI@@@4@@std@@V?$allocator@VBulletType@BWAPI@@@4@$0A@@std@@@std@@IAEXI@Z 1009ec30 f i BWAPILIB:BulletType.obj
 0001:0009dc30       ?_Init@?$_Hash@V?$_Uset_traits@VTechType@BWAPI@@V?$_Uhash_compare@VTechType@BWAPI@@U?$hash@H@std@@U?$equal_to@VTechType@BWAPI@@@4@@std@@V?$allocator@VTechType@BWAPI@@@4@$0A@@std@@@std@@IAEXI@Z 1009ec30 f i BWAPILIB:UnitType.obj
 0001:0009dc30       ?_Init@?$_Hash@V?$_Uset_traits@VWeaponType@BWAPI@@V?$_Uhash_compare@VWeaponType@BWAPI@@U?$hash@H@std@@U?$equal_to@VWeaponType@BWAPI@@@4@@std@@V?$allocator@VWeaponType@BWAPI@@@4@$0A@@std@@@std@@IAEXI@Z 1009ec30 f i BWAPILIB:WeaponType.obj
 0001:0009dc30       ?_Init@?$_Hash@V?$_Uset_traits@VOrder@BWAPI@@V?$_Uhash_compare@VOrder@BWAPI@@U?$hash@H@std@@U?$equal_to@VOrder@BWAPI@@@4@@std@@V?$allocator@VOrder@BWAPI@@@4@$0A@@std@@@std@@IAEXI@Z 1009ec30 f i BWAPILIB:Order.obj
 0001:0009dc90       ??0?$vector@V?$_List_unchecked_const_iterator@V?$_List_val@U?$_List_simple_types@VUnitType@BWAPI@@@std@@@std@@U_Iterator_base0@2@@std@@V?$allocator@V?$_List_unchecked_const_iterator@V?$_List_val@U?$_List_simple_types@VUnitType@BWAPI@@@std@@@std@@U_Iterator_base0@2@@std@@@2@@std@@QAE@ABV?$allocator@V?$_List_unchecked_const_iterator@V?$_List_val@U?$_List_simple_types@VUnitType@BWAPI@@@std@@@std@@U_Iterator_base0@2@@std@@@1@@Z 1009ec90 f i BWAPILIB:UnitType.obj
 0001:0009dcb0       ??0?$list@VUnitType@BWAPI@@V?$allocator@VUnitType@BWAPI@@@std@@@std@@QAE@ABV?$allocator@VUnitType@BWAPI@@@1@@Z 1009ecb0 f i BWAPILIB:UnitType.obj
 0001:0009dce0       ?assign@?$vector@V?$_List_unchecked_const_iterator@V?$_List_val@U?$_List_simple_types@VRace@BWAPI@@@std@@@std@@U_Iterator_base0@2@@std@@V?$allocator@V?$_List_unchecked_const_iterator@V?$_List_val@U?$_List_simple_types@VRace@BWAPI@@@std@@@std@@U_Iterator_base0@2@@std@@@2@@std@@QAEXIABV?$_List_unchecked_const_iterator@V?$_List_val@U?$_List_simple_types@VRace@BWAPI@@@std@@@std@@U_Iterator_base0@2@@2@@Z 1009ece0 f i BWAPILIB:Race.obj
 0001:0009dce0       ?assign@?$vector@V?$_List_unchecked_const_iterator@V?$_List_val@U?$_List_simple_types@VWeaponType@BWAPI@@@std@@@std@@U_Iterator_base0@2@@std@@V?$allocator@V?$_List_unchecked_const_iterator@V?$_List_val@U?$_List_simple_types@VWeaponType@BWAPI@@@std@@@std@@U_Iterator_base0@2@@std@@@2@@std@@QAEXIABV?$_List_unchecked_const_iterator@V?$_List_val@U?$_List_simple_types@VWeaponType@BWAPI@@@std@@@std@@U_Iterator_base0@2@@2@@Z 1009ece0 f i BWAPILIB:WeaponType.obj
 0001:0009dce0       ?assign@?$vector@V?$_List_unchecked_const_iterator@V?$_List_val@U?$_List_simple_types@VUpgradeType@BWAPI@@@std@@@std@@U_Iterator_base0@2@@std@@V?$allocator@V?$_List_unchecked_const_iterator@V?$_List_val@U?$_List_simple_types@VUpgradeType@BWAPI@@@std@@@std@@U_Iterator_base0@2@@std@@@2@@std@@QAEXIABV?$_List_unchecked_const_iterator@V?$_List_val@U?$_List_simple_types@VUpgradeType@BWAPI@@@std@@@std@@U_Iterator_base0@2@@2@@Z 1009ece0 f i BWAPILIB:UnitType.obj
 0001:0009dce0       ?assign@?$vector@V?$_List_unchecked_const_iterator@V?$_List_val@U?$_List_simple_types@VBulletType@BWAPI@@@std@@@std@@U_Iterator_base0@2@@std@@V?$allocator@V?$_List_unchecked_const_iterator@V?$_List_val@U?$_List_simple_types@VBulletType@BWAPI@@@std@@@std@@U_Iterator_base0@2@@std@@@2@@std@@QAEXIABV?$_List_unchecked_const_iterator@V?$_List_val@U?$_List_simple_types@VBulletType@BWAPI@@@std@@@std@@U_Iterator_base0@2@@2@@Z 1009ece0 f i BWAPILIB:BulletType.obj
 0001:0009dce0       ?assign@?$vector@V?$_List_unchecked_const_iterator@V?$_List_val@U?$_List_simple_types@VTechType@BWAPI@@@std@@@std@@U_Iterator_base0@2@@std@@V?$allocator@V?$_List_unchecked_const_iterator@V?$_List_val@U?$_List_simple_types@VTechType@BWAPI@@@std@@@std@@U_Iterator_base0@2@@std@@@2@@std@@QAEXIABV?$_List_unchecked_const_iterator@V?$_List_val@U?$_List_simple_types@VTechType@BWAPI@@@std@@@std@@U_Iterator_base0@2@@2@@Z 1009ece0 f i BWAPILIB:UnitType.obj
 0001:0009dce0       ?assign@?$vector@V?$_List_unchecked_const_iterator@V?$_List_val@U?$_List_simple_types@VUnitType@BWAPI@@@std@@@std@@U_Iterator_base0@2@@std@@V?$allocator@V?$_List_unchecked_const_iterator@V?$_List_val@U?$_List_simple_types@VUnitType@BWAPI@@@std@@@std@@U_Iterator_base0@2@@std@@@2@@std@@QAEXIABV?$_List_unchecked_const_iterator@V?$_List_val@U?$_List_simple_types@VUnitType@BWAPI@@@std@@@std@@U_Iterator_base0@2@@2@@Z 1009ece0 f i BWAPILIB:UnitType.obj
 0001:0009dce0       ?assign@?$vector@V?$_List_unchecked_const_iterator@V?$_List_val@U?$_List_simple_types@VOrder@BWAPI@@@std@@@std@@U_Iterator_base0@2@@std@@V?$allocator@V?$_List_unchecked_const_iterator@V?$_List_val@U?$_List_simple_types@VOrder@BWAPI@@@std@@@std@@U_Iterator_base0@2@@std@@@2@@std@@QAEXIABV?$_List_unchecked_const_iterator@V?$_List_val@U?$_List_simple_types@VOrder@BWAPI@@@std@@@std@@U_Iterator_base0@2@@2@@Z 1009ece0 f i BWAPILIB:Order.obj
 0001:0009de40       ?_Reallocate_exactly@?$vector@V?$_List_unchecked_const_iterator@V?$_List_val@U?$_List_simple_types@VBulletType@BWAPI@@@std@@@std@@U_Iterator_base0@2@@std@@V?$allocator@V?$_List_unchecked_const_iterator@V?$_List_val@U?$_List_simple_types@VBulletType@BWAPI@@@std@@@std@@U_Iterator_base0@2@@std@@@2@@std@@AAEXI@Z 1009ee40 f i BWAPILIB:BulletType.obj
 0001:0009de40       ?_Reallocate_exactly@?$vector@V?$_List_unchecked_const_iterator@V?$_List_val@U?$_List_simple_types@VRace@BWAPI@@@std@@@std@@U_Iterator_base0@2@@std@@V?$allocator@V?$_List_unchecked_const_iterator@V?$_List_val@U?$_List_simple_types@VRace@BWAPI@@@std@@@std@@U_Iterator_base0@2@@std@@@2@@std@@AAEXI@Z 1009ee40 f i BWAPILIB:Race.obj
 0001:0009de40       ?_Reallocate_exactly@?$vector@V?$_List_unchecked_const_iterator@V?$_List_val@U?$_List_simple_types@VTechType@BWAPI@@@std@@@std@@U_Iterator_base0@2@@std@@V?$allocator@V?$_List_unchecked_const_iterator@V?$_List_val@U?$_List_simple_types@VTechType@BWAPI@@@std@@@std@@U_Iterator_base0@2@@std@@@2@@std@@AAEXI@Z 1009ee40 f i BWAPILIB:UnitType.obj
 0001:0009de40       ?_Reallocate_exactly@?$vector@V?$_List_unchecked_const_iterator@V?$_List_val@U?$_List_simple_types@VUpgradeType@BWAPI@@@std@@@std@@U_Iterator_base0@2@@std@@V?$allocator@V?$_List_unchecked_const_iterator@V?$_List_val@U?$_List_simple_types@VUpgradeType@BWAPI@@@std@@@std@@U_Iterator_base0@2@@std@@@2@@std@@AAEXI@Z 1009ee40 f i BWAPILIB:UnitType.obj
 0001:0009de40       ?_Reallocate_exactly@?$vector@V?$_List_unchecked_const_iterator@V?$_List_val@U?$_List_simple_types@VOrder@BWAPI@@@std@@@std@@U_Iterator_base0@2@@std@@V?$allocator@V?$_List_unchecked_const_iterator@V?$_List_val@U?$_List_simple_types@VOrder@BWAPI@@@std@@@std@@U_Iterator_base0@2@@std@@@2@@std@@AAEXI@Z 1009ee40 f i BWAPILIB:Order.obj
 0001:0009de40       ?_Reallocate_exactly@?$vector@V?$_List_unchecked_const_iterator@V?$_List_val@U?$_List_simple_types@VWeaponType@BWAPI@@@std@@@std@@U_Iterator_base0@2@@std@@V?$allocator@V?$_List_unchecked_const_iterator@V?$_List_val@U?$_List_simple_types@VWeaponType@BWAPI@@@std@@@std@@U_Iterator_base0@2@@std@@@2@@std@@AAEXI@Z 1009ee40 f i BWAPILIB:WeaponType.obj
 0001:0009de40       ?_Reallocate_exactly@?$vector@V?$_List_unchecked_const_iterator@V?$_List_val@U?$_List_simple_types@VUnitType@BWAPI@@@std@@@std@@U_Iterator_base0@2@@std@@V?$allocator@V?$_List_unchecked_const_iterator@V?$_List_val@U?$_List_simple_types@VUnitType@BWAPI@@@std@@@std@@U_Iterator_base0@2@@std@@@2@@std@@AAEXI@Z 1009ee40 f i BWAPILIB:UnitType.obj
 0001:0009df40       ??$?0PBH@?$SetContainer@VUpgradeType@BWAPI@@U?$hash@H@std@@@BWAPI@@QAE@PBH0@Z 1009ef40 f i BWAPILIB:UnitType.obj
 0001:0009e040       ??$?0PBH@?$SetContainer@VTechType@BWAPI@@U?$hash@H@std@@@BWAPI@@QAE@PBH0@Z 1009f040 f i BWAPILIB:UnitType.obj
 0001:0009e140       ??$_Resize@V<lambda_3b68910d29f027af2c1a7db1c8ed951a>@@@?$vector@V?$map@VUnitType@BWAPI@@HU?$less@VUnitType@BWAPI@@@std@@V?$allocator@U?$pair@$$CBVUnitType@BWAPI@@H@std@@@4@@std@@V?$allocator@V?$map@VUnitType@BWAPI@@HU?$less@VUnitType@BWAPI@@@std@@V?$allocator@U?$pair@$$CBVUnitType@BWAPI@@H@std@@@4@@std@@@2@@std@@AAEXIV<lambda_3b68910d29f027af2c1a7db1c8ed951a>@@@Z 1009f140 f i BWAPILIB:UnitType.obj
 0001:0009e2f0       ??$_Fill_unchecked@PAV?$_List_unchecked_const_iterator@V?$_List_val@U?$_List_simple_types@VTechType@BWAPI@@@std@@@std@@U_Iterator_base0@2@@std@@V12@@std@@YAXPAV?$_List_unchecked_const_iterator@V?$_List_val@U?$_List_simple_types@VTechType@BWAPI@@@std@@@std@@U_Iterator_base0@2@@0@0ABV10@@Z 1009f2f0 f i BWAPILIB:UnitType.obj
 0001:0009e2f0       ??$_Fill_unchecked@PAV?$_List_unchecked_const_iterator@V?$_List_val@U?$_List_simple_types@VUnitType@BWAPI@@@std@@@std@@U_Iterator_base0@2@@std@@V12@@std@@YAXPAV?$_List_unchecked_const_iterator@V?$_List_val@U?$_List_simple_types@VUnitType@BWAPI@@@std@@@std@@U_Iterator_base0@2@@0@0ABV10@@Z 1009f2f0 f i BWAPILIB:UnitType.obj
 0001:0009e2f0       ??$_Fill_unchecked@PAV?$_List_unchecked_const_iterator@V?$_List_val@U?$_List_simple_types@VRace@BWAPI@@@std@@@std@@U_Iterator_base0@2@@std@@V12@@std@@YAXPAV?$_List_unchecked_const_iterator@V?$_List_val@U?$_List_simple_types@VRace@BWAPI@@@std@@@std@@U_Iterator_base0@2@@0@0ABV10@@Z 1009f2f0 f i BWAPILIB:Race.obj
 0001:0009e2f0       ??$_Fill_unchecked@PAV?$_List_unchecked_const_iterator@V?$_List_val@U?$_List_simple_types@VWeaponType@BWAPI@@@std@@@std@@U_Iterator_base0@2@@std@@V12@@std@@YAXPAV?$_List_unchecked_const_iterator@V?$_List_val@U?$_List_simple_types@VWeaponType@BWAPI@@@std@@@std@@U_Iterator_base0@2@@0@0ABV10@@Z 1009f2f0 f i BWAPILIB:WeaponType.obj
 0001:0009e2f0       ??$_Fill_unchecked@PAV?$_List_unchecked_const_iterator@V?$_List_val@U?$_List_simple_types@VBulletType@BWAPI@@@std@@@std@@U_Iterator_base0@2@@std@@V12@@std@@YAXPAV?$_List_unchecked_const_iterator@V?$_List_val@U?$_List_simple_types@VBulletType@BWAPI@@@std@@@std@@U_Iterator_base0@2@@0@0ABV10@@Z 1009f2f0 f i BWAPILIB:BulletType.obj
 0001:0009e2f0       ??$_Fill_unchecked@PAV?$_List_unchecked_const_iterator@V?$_List_val@U?$_List_simple_types@VUpgradeType@BWAPI@@@std@@@std@@U_Iterator_base0@2@@std@@V12@@std@@YAXPAV?$_List_unchecked_const_iterator@V?$_List_val@U?$_List_simple_types@VUpgradeType@BWAPI@@@std@@@std@@U_Iterator_base0@2@@0@0ABV10@@Z 1009f2f0 f i BWAPILIB:UnitType.obj
 0001:0009e2f0       ??$_Fill_unchecked@PAV?$_List_unchecked_const_iterator@V?$_List_val@U?$_List_simple_types@VOrder@BWAPI@@@std@@@std@@U_Iterator_base0@2@@std@@V12@@std@@YAXPAV?$_List_unchecked_const_iterator@V?$_List_val@U?$_List_simple_types@VOrder@BWAPI@@@std@@@std@@U_Iterator_base0@2@@0@0ABV10@@Z 1009f2f0 f i BWAPILIB:Order.obj
 0001:0009e370       ?_Buynode0@?$_List_alloc@U?$_List_base_types@VWeaponType@BWAPI@@V?$allocator@VWeaponType@BWAPI@@@std@@@std@@@std@@QAEPAU?$_List_node@VWeaponType@BWAPI@@PAX@2@PAU32@0@Z 1009f370 f i BWAPILIB:WeaponType.obj
 0001:0009e370       ?_Buynode0@?$_List_alloc@U?$_List_base_types@VOrder@BWAPI@@V?$allocator@VOrder@BWAPI@@@std@@@std@@@std@@QAEPAU?$_List_node@VOrder@BWAPI@@PAX@2@PAU32@0@Z 1009f370 f i BWAPILIB:Order.obj
 0001:0009e370       ?_Buynode0@?$_List_alloc@U?$_List_base_types@VRace@BWAPI@@V?$allocator@VRace@BWAPI@@@std@@@std@@@std@@QAEPAU?$_List_node@VRace@BWAPI@@PAX@2@PAU32@0@Z 1009f370 f i BWAPILIB:Race.obj
 0001:0009e370       ?_Buynode0@?$_List_alloc@U?$_List_base_types@VUnitType@BWAPI@@V?$allocator@VUnitType@BWAPI@@@std@@@std@@@std@@QAEPAU?$_List_node@VUnitType@BWAPI@@PAX@2@PAU32@0@Z 1009f370 f i BWAPILIB:UnitType.obj
 0001:0009e370       ?_Buynode0@?$_List_alloc@U?$_List_base_types@VTechType@BWAPI@@V?$allocator@VTechType@BWAPI@@@std@@@std@@@std@@QAEPAU?$_List_node@VTechType@BWAPI@@PAX@2@PAU32@0@Z 1009f370 f i BWAPILIB:UnitType.obj
 0001:0009e370       ?_Buynode0@?$_List_alloc@U?$_List_base_types@VBulletType@BWAPI@@V?$allocator@VBulletType@BWAPI@@@std@@@std@@@std@@QAEPAU?$_List_node@VBulletType@BWAPI@@PAX@2@PAU32@0@Z 1009f370 f i BWAPILIB:BulletType.obj
 0001:0009e370       ?_Buynode0@?$_List_alloc@U?$_List_base_types@VUpgradeType@BWAPI@@V?$allocator@VUpgradeType@BWAPI@@@std@@@std@@@std@@QAEPAU?$_List_node@VUpgradeType@BWAPI@@PAX@2@PAU32@0@Z 1009f370 f i BWAPILIB:UnitType.obj
 0001:0009e3a0       ??$_Buynode@AAU?$pair@VUnitType@BWAPI@@H@std@@@?$_Tree_comp_alloc@V?$_Tmap_traits@VUnitType@BWAPI@@HU?$less@VUnitType@BWAPI@@@std@@V?$allocator@U?$pair@$$CBVUnitType@BWAPI@@H@std@@@4@$0A@@std@@@std@@QAEPAU?$_Tree_node@U?$pair@$$CBVUnitType@BWAPI@@H@std@@PAX@1@AAU?$pair@VUnitType@BWAPI@@H@1@@Z 1009f3a0 f i BWAPILIB:UnitType.obj
 0001:0009e3c0       ??$_Insert@ABVUnitType@BWAPI@@V?$_List_unchecked_const_iterator@V?$_List_val@U?$_List_simple_types@VUnitType@BWAPI@@@std@@@std@@U_Iterator_base0@2@@std@@@?$_Hash@V?$_Uset_traits@VUnitType@BWAPI@@V?$_Uhash_compare@VUnitType@BWAPI@@U?$hash@H@std@@U?$equal_to@VUnitType@BWAPI@@@4@@std@@V?$allocator@VUnitType@BWAPI@@@4@$0A@@std@@@std@@IAE?AU?$pair@V?$_List_const_iterator@V?$_List_val@U?$_List_simple_types@VUnitType@BWAPI@@@std@@@std@@@std@@_N@1@ABVUnitType@BWAPI@@V?$_List_unchecked_const_iterator@V?$_List_val@U?$_List_simple_types@VUnitType@BWAPI@@@std@@@std@@U_Iterator_base0@2@@1@@Z 1009f3c0 f i BWAPILIB:UnitType.obj
 0001:0009e3c0       ??$_Insert@ABVTechType@BWAPI@@V?$_List_unchecked_const_iterator@V?$_List_val@U?$_List_simple_types@VTechType@BWAPI@@@std@@@std@@U_Iterator_base0@2@@std@@@?$_Hash@V?$_Uset_traits@VTechType@BWAPI@@V?$_Uhash_compare@VTechType@BWAPI@@U?$hash@H@std@@U?$equal_to@VTechType@BWAPI@@@4@@std@@V?$allocator@VTechType@BWAPI@@@4@$0A@@std@@@std@@IAE?AU?$pair@V?$_List_const_iterator@V?$_List_val@U?$_List_simple_types@VTechType@BWAPI@@@std@@@std@@@std@@_N@1@ABVTechType@BWAPI@@V?$_List_unchecked_const_iterator@V?$_List_val@U?$_List_simple_types@VTechType@BWAPI@@@std@@@std@@U_Iterator_base0@2@@1@@Z 1009f3c0 f i BWAPILIB:UnitType.obj
 0001:0009e3c0       ??$_Insert@ABVUpgradeType@BWAPI@@V?$_List_unchecked_const_iterator@V?$_List_val@U?$_List_simple_types@VUpgradeType@BWAPI@@@std@@@std@@U_Iterator_base0@2@@std@@@?$_Hash@V?$_Uset_traits@VUpgradeType@BWAPI@@V?$_Uhash_compare@VUpgradeType@BWAPI@@U?$hash@H@std@@U?$equal_to@VUpgradeType@BWAPI@@@4@@std@@V?$allocator@VUpgradeType@BWAPI@@@4@$0A@@std@@@std@@IAE?AU?$pair@V?$_List_const_iterator@V?$_List_val@U?$_List_simple_types@VUpgradeType@BWAPI@@@std@@@std@@@std@@_N@1@ABVUpgradeType@BWAPI@@V?$_List_unchecked_const_iterator@V?$_List_val@U?$_List_simple_types@VUpgradeType@BWAPI@@@std@@@std@@U_Iterator_base0@2@@1@@Z 1009f3c0 f i BWAPILIB:UnitType.obj
 0001:0009e3c0       ??$_Insert@ABVBulletType@BWAPI@@V?$_List_unchecked_const_iterator@V?$_List_val@U?$_List_simple_types@VBulletType@BWAPI@@@std@@@std@@U_Iterator_base0@2@@std@@@?$_Hash@V?$_Uset_traits@VBulletType@BWAPI@@V?$_Uhash_compare@VBulletType@BWAPI@@U?$hash@H@std@@U?$equal_to@VBulletType@BWAPI@@@4@@std@@V?$allocator@VBulletType@BWAPI@@@4@$0A@@std@@@std@@IAE?AU?$pair@V?$_List_const_iterator@V?$_List_val@U?$_List_simple_types@VBulletType@BWAPI@@@std@@@std@@@std@@_N@1@ABVBulletType@BWAPI@@V?$_List_unchecked_const_iterator@V?$_List_val@U?$_List_simple_types@VBulletType@BWAPI@@@std@@@std@@U_Iterator_base0@2@@1@@Z 1009f3c0 f i BWAPILIB:BulletType.obj
 0001:0009e3c0       ??$_Insert@AAVWeaponType@BWAPI@@V?$_List_unchecked_const_iterator@V?$_List_val@U?$_List_simple_types@VWeaponType@BWAPI@@@std@@@std@@U_Iterator_base0@2@@std@@@?$_Hash@V?$_Uset_traits@VWeaponType@BWAPI@@V?$_Uhash_compare@VWeaponType@BWAPI@@U?$hash@H@std@@U?$equal_to@VWeaponType@BWAPI@@@4@@std@@V?$allocator@VWeaponType@BWAPI@@@4@$0A@@std@@@std@@IAE?AU?$pair@V?$_List_const_iterator@V?$_List_val@U?$_List_simple_types@VWeaponType@BWAPI@@@std@@@std@@@std@@_N@1@AAVWeaponType@BWAPI@@V?$_List_unchecked_const_iterator@V?$_List_val@U?$_List_simple_types@VWeaponType@BWAPI@@@std@@@std@@U_Iterator_base0@2@@1@@Z 1009f3c0 f i BWAPILIB:WeaponType.obj
 0001:0009e3c0       ??$_Insert@AAVTechType@BWAPI@@V?$_List_unchecked_const_iterator@V?$_List_val@U?$_List_simple_types@VTechType@BWAPI@@@std@@@std@@U_Iterator_base0@2@@std@@@?$_Hash@V?$_Uset_traits@VTechType@BWAPI@@V?$_Uhash_compare@VTechType@BWAPI@@U?$hash@H@std@@U?$equal_to@VTechType@BWAPI@@@4@@std@@V?$allocator@VTechType@BWAPI@@@4@$0A@@std@@@std@@IAE?AU?$pair@V?$_List_const_iterator@V?$_List_val@U?$_List_simple_types@VTechType@BWAPI@@@std@@@std@@@std@@_N@1@AAVTechType@BWAPI@@V?$_List_unchecked_const_iterator@V?$_List_val@U?$_List_simple_types@VTechType@BWAPI@@@std@@@std@@U_Iterator_base0@2@@1@@Z 1009f3c0 f i BWAPILIB:UnitType.obj
